Archive member included because of file (symbol)

c:/logicielge1/altera/13.0sp1/nios2eds/bin/gnu/h-i686-mingw32/bin/../lib/gcc/nios2-elf/4.1.2/../../../../nios2-elf/lib\libstdc++.a(eh_throw.o)
                              obj/default/controller/PIO.o (__cxa_throw)
c:/logicielge1/altera/13.0sp1/nios2eds/bin/gnu/h-i686-mingw32/bin/../lib/gcc/nios2-elf/4.1.2/../../../../nios2-elf/lib\libstdc++.a(eh_term_handler.o)
                              c:/logicielge1/altera/13.0sp1/nios2eds/bin/gnu/h-i686-mingw32/bin/../lib/gcc/nios2-elf/4.1.2/../../../../nios2-elf/lib\libstdc++.a(eh_throw.o) (__cxxabiv1::__terminate_handler)
c:/logicielge1/altera/13.0sp1/nios2eds/bin/gnu/h-i686-mingw32/bin/../lib/gcc/nios2-elf/4.1.2/../../../../nios2-elf/lib\libstdc++.a(new_opv.o)
                              obj/default/controller/UART.o (operator new[](unsigned long))
c:/logicielge1/altera/13.0sp1/nios2eds/bin/gnu/h-i686-mingw32/bin/../lib/gcc/nios2-elf/4.1.2/../../../../nios2-elf/lib\libstdc++.a(eh_catch.o)
                              obj/default/main.o (__cxa_end_catch)
c:/logicielge1/altera/13.0sp1/nios2eds/bin/gnu/h-i686-mingw32/bin/../lib/gcc/nios2-elf/4.1.2/../../../../nios2-elf/lib\libstdc++.a(del_op.o)
                              obj/default/FSM.o (operator delete(void*))
c:/logicielge1/altera/13.0sp1/nios2eds/bin/gnu/h-i686-mingw32/bin/../lib/gcc/nios2-elf/4.1.2/../../../../nios2-elf/lib\libstdc++.a(del_opv.o)
                              obj/default/controller/UART.o (operator delete[](void*))
c:/logicielge1/altera/13.0sp1/nios2eds/bin/gnu/h-i686-mingw32/bin/../lib/gcc/nios2-elf/4.1.2/../../../../nios2-elf/lib\libstdc++.a(eh_unex_handler.o)
                              c:/logicielge1/altera/13.0sp1/nios2eds/bin/gnu/h-i686-mingw32/bin/../lib/gcc/nios2-elf/4.1.2/../../../../nios2-elf/lib\libstdc++.a(eh_throw.o) (__cxxabiv1::__unexpected_handler)
c:/logicielge1/altera/13.0sp1/nios2eds/bin/gnu/h-i686-mingw32/bin/../lib/gcc/nios2-elf/4.1.2/../../../../nios2-elf/lib\libstdc++.a(eh_personality.o)
                              obj/default/FSM.o (__gxx_personality_sj0)
c:/logicielge1/altera/13.0sp1/nios2eds/bin/gnu/h-i686-mingw32/bin/../lib/gcc/nios2-elf/4.1.2/../../../../nios2-elf/lib\libstdc++.a(class_type_info.o)
                              obj/default/FSM.o (vtable for __cxxabiv1::__class_type_info)
c:/logicielge1/altera/13.0sp1/nios2eds/bin/gnu/h-i686-mingw32/bin/../lib/gcc/nios2-elf/4.1.2/../../../../nios2-elf/lib\libstdc++.a(si_class_type_info.o)
                              c:/logicielge1/altera/13.0sp1/nios2eds/bin/gnu/h-i686-mingw32/bin/../lib/gcc/nios2-elf/4.1.2/../../../../nios2-elf/lib\libstdc++.a(class_type_info.o) (vtable for __cxxabiv1::__si_class_type_info)
c:/logicielge1/altera/13.0sp1/nios2eds/bin/gnu/h-i686-mingw32/bin/../lib/gcc/nios2-elf/4.1.2/../../../../nios2-elf/lib\libstdc++.a(eh_globals.o)
                              c:/logicielge1/altera/13.0sp1/nios2eds/bin/gnu/h-i686-mingw32/bin/../lib/gcc/nios2-elf/4.1.2/../../../../nios2-elf/lib\libstdc++.a(eh_catch.o) (__cxa_get_globals_fast)
c:/logicielge1/altera/13.0sp1/nios2eds/bin/gnu/h-i686-mingw32/bin/../lib/gcc/nios2-elf/4.1.2/../../../../nios2-elf/lib\libstdc++.a(eh_terminate.o)
                              c:/logicielge1/altera/13.0sp1/nios2eds/bin/gnu/h-i686-mingw32/bin/../lib/gcc/nios2-elf/4.1.2/../../../../nios2-elf/lib\libstdc++.a(eh_throw.o) (__cxxabiv1::__terminate(void (*)()))
c:/logicielge1/altera/13.0sp1/nios2eds/bin/gnu/h-i686-mingw32/bin/../lib/gcc/nios2-elf/4.1.2/../../../../nios2-elf/lib\libstdc++.a(new_op.o)
                              obj/default/FSM.o (operator new(unsigned long))
c:/logicielge1/altera/13.0sp1/nios2eds/bin/gnu/h-i686-mingw32/bin/../lib/gcc/nios2-elf/4.1.2/../../../../nios2-elf/lib\libstdc++.a(eh_call.o)
                              c:/logicielge1/altera/13.0sp1/nios2eds/bin/gnu/h-i686-mingw32/bin/../lib/gcc/nios2-elf/4.1.2/../../../../nios2-elf/lib\libstdc++.a(eh_personality.o) (__cxa_call_terminate)
c:/logicielge1/altera/13.0sp1/nios2eds/bin/gnu/h-i686-mingw32/bin/../lib/gcc/nios2-elf/4.1.2/../../../../nios2-elf/lib\libstdc++.a(eh_exception.o)
                              c:/logicielge1/altera/13.0sp1/nios2eds/bin/gnu/h-i686-mingw32/bin/../lib/gcc/nios2-elf/4.1.2/../../../../nios2-elf/lib\libstdc++.a(eh_personality.o) (vtable for std::bad_exception)
c:/logicielge1/altera/13.0sp1/nios2eds/bin/gnu/h-i686-mingw32/bin/../lib/gcc/nios2-elf/4.1.2/../../../../nios2-elf/lib\libstdc++.a(fundamental_type_info.o)
                              obj/default/controller/PIO.o (typeinfo for char const*)
c:/logicielge1/altera/13.0sp1/nios2eds/bin/gnu/h-i686-mingw32/bin/../lib/gcc/nios2-elf/4.1.2/../../../../nios2-elf/lib\libstdc++.a(new_handler.o)
                              c:/logicielge1/altera/13.0sp1/nios2eds/bin/gnu/h-i686-mingw32/bin/../lib/gcc/nios2-elf/4.1.2/../../../../nios2-elf/lib\libstdc++.a(new_op.o) (__new_handler)
c:/logicielge1/altera/13.0sp1/nios2eds/bin/gnu/h-i686-mingw32/bin/../lib/gcc/nios2-elf/4.1.2/../../../../nios2-elf/lib\libstdc++.a(eh_alloc.o)
                              c:/logicielge1/altera/13.0sp1/nios2eds/bin/gnu/h-i686-mingw32/bin/../lib/gcc/nios2-elf/4.1.2/../../../../nios2-elf/lib\libstdc++.a(eh_throw.o) (__cxa_free_exception)
c:/logicielge1/altera/13.0sp1/nios2eds/bin/gnu/h-i686-mingw32/bin/../lib/gcc/nios2-elf/4.1.2/../../../../nios2-elf/lib\libstdc++.a(tinfo.o)
                              c:/logicielge1/altera/13.0sp1/nios2eds/bin/gnu/h-i686-mingw32/bin/../lib/gcc/nios2-elf/4.1.2/../../../../nios2-elf/lib\libstdc++.a(class_type_info.o) (std::type_info::__is_pointer_p() const)
c:/logicielge1/altera/13.0sp1/nios2eds/bin/gnu/h-i686-mingw32/bin/../lib/gcc/nios2-elf/4.1.2/../../../../nios2-elf/lib\libstdc++.a(pointer_type_info.o)
                              c:/logicielge1/altera/13.0sp1/nios2eds/bin/gnu/h-i686-mingw32/bin/../lib/gcc/nios2-elf/4.1.2/../../../../nios2-elf/lib\libstdc++.a(fundamental_type_info.o) (vtable for __cxxabiv1::__pointer_type_info)
c:/logicielge1/altera/13.0sp1/nios2eds/bin/gnu/h-i686-mingw32/bin/../lib/gcc/nios2-elf/4.1.2/../../../../nios2-elf/lib\libstdc++.a(pbase_type_info.o)
                              c:/logicielge1/altera/13.0sp1/nios2eds/bin/gnu/h-i686-mingw32/bin/../lib/gcc/nios2-elf/4.1.2/../../../../nios2-elf/lib\libstdc++.a(pointer_type_info.o) (__cxxabiv1::__pbase_type_info::__do_catch(std::type_info const*, void**, unsigned int) const)
c:/logicielge1/altera/13.0sp1/nios2eds/bin/gnu/h-i686-mingw32/bin/../lib/gcc/nios2-elf/4.1.2\libgcc.a(unwind-sjlj.o)
                              obj/default/FSM.o (_Unwind_SjLj_Register)
c:/logicielge1/altera/13.0sp1/nios2eds/bin/gnu/h-i686-mingw32/bin/../lib/gcc/nios2-elf/4.1.2/../../../../nios2-elf/lib\libc.a(lib_a-abort.o)
                              c:/logicielge1/altera/13.0sp1/nios2eds/bin/gnu/h-i686-mingw32/bin/../lib/gcc/nios2-elf/4.1.2/../../../../nios2-elf/lib\libstdc++.a(eh_term_handler.o) (abort)
c:/logicielge1/altera/13.0sp1/nios2eds/bin/gnu/h-i686-mingw32/bin/../lib/gcc/nios2-elf/4.1.2/../../../../nios2-elf/lib\libc.a(lib_a-malloc.o)
                              obj/default/controller/UART.o (free)
c:/logicielge1/altera/13.0sp1/nios2eds/bin/gnu/h-i686-mingw32/bin/../lib/gcc/nios2-elf/4.1.2/../../../../nios2-elf/lib\libc.a(lib_a-mallocr.o)
                              c:/logicielge1/altera/13.0sp1/nios2eds/bin/gnu/h-i686-mingw32/bin/../lib/gcc/nios2-elf/4.1.2/../../../../nios2-elf/lib\libc.a(lib_a-malloc.o) (_malloc_r)
c:/logicielge1/altera/13.0sp1/nios2eds/bin/gnu/h-i686-mingw32/bin/../lib/gcc/nios2-elf/4.1.2/../../../../nios2-elf/lib\libc.a(lib_a-memset.o)
                              c:/logicielge1/altera/13.0sp1/nios2eds/bin/gnu/h-i686-mingw32/bin/../lib/gcc/nios2-elf/4.1.2/../../../../nios2-elf/lib\libstdc++.a(eh_alloc.o) (memset)
c:/logicielge1/altera/13.0sp1/nios2eds/bin/gnu/h-i686-mingw32/bin/../lib/gcc/nios2-elf/4.1.2/../../../../nios2-elf/lib\libc.a(lib_a-printf.o)
                              obj/default/main.o (printf)
c:/logicielge1/altera/13.0sp1/nios2eds/bin/gnu/h-i686-mingw32/bin/../lib/gcc/nios2-elf/4.1.2/../../../../nios2-elf/lib\libc.a(lib_a-sbrkr.o)
                              c:/logicielge1/altera/13.0sp1/nios2eds/bin/gnu/h-i686-mingw32/bin/../lib/gcc/nios2-elf/4.1.2/../../../../nios2-elf/lib\libc.a(lib_a-mallocr.o) (_sbrk_r)
c:/logicielge1/altera/13.0sp1/nios2eds/bin/gnu/h-i686-mingw32/bin/../lib/gcc/nios2-elf/4.1.2/../../../../nios2-elf/lib\libc.a(lib_a-signal.o)
                              c:/logicielge1/altera/13.0sp1/nios2eds/bin/gnu/h-i686-mingw32/bin/../lib/gcc/nios2-elf/4.1.2/../../../../nios2-elf/lib\libc.a(lib_a-abort.o) (raise)
c:/logicielge1/altera/13.0sp1/nios2eds/bin/gnu/h-i686-mingw32/bin/../lib/gcc/nios2-elf/4.1.2/../../../../nios2-elf/lib\libc.a(lib_a-signalr.o)
                              c:/logicielge1/altera/13.0sp1/nios2eds/bin/gnu/h-i686-mingw32/bin/../lib/gcc/nios2-elf/4.1.2/../../../../nios2-elf/lib\libc.a(lib_a-signal.o) (_getpid_r)
c:/logicielge1/altera/13.0sp1/nios2eds/bin/gnu/h-i686-mingw32/bin/../lib/gcc/nios2-elf/4.1.2/../../../../nios2-elf/lib\libc.a(lib_a-strlen.o)
                              obj/default/controller/UART.o (strlen)
c:/logicielge1/altera/13.0sp1/nios2eds/bin/gnu/h-i686-mingw32/bin/../lib/gcc/nios2-elf/4.1.2/../../../../nios2-elf/lib\libc.a(lib_a-vfprintf.o)
                              c:/logicielge1/altera/13.0sp1/nios2eds/bin/gnu/h-i686-mingw32/bin/../lib/gcc/nios2-elf/4.1.2/../../../../nios2-elf/lib\libc.a(lib_a-printf.o) (___vfprintf_internal_r)
c:/logicielge1/altera/13.0sp1/nios2eds/bin/gnu/h-i686-mingw32/bin/../lib/gcc/nios2-elf/4.1.2/../../../../nios2-elf/lib\libc.a(lib_a-vsnprintf.o)
                              obj/default/controller/UART.o (vsnprintf)
c:/logicielge1/altera/13.0sp1/nios2eds/bin/gnu/h-i686-mingw32/bin/../lib/gcc/nios2-elf/4.1.2/../../../../nios2-elf/lib\libc.a(lib_a-wsetup.o)
                              c:/logicielge1/altera/13.0sp1/nios2eds/bin/gnu/h-i686-mingw32/bin/../lib/gcc/nios2-elf/4.1.2/../../../../nios2-elf/lib\libc.a(lib_a-vfprintf.o) (__swsetup_r)
c:/logicielge1/altera/13.0sp1/nios2eds/bin/gnu/h-i686-mingw32/bin/../lib/gcc/nios2-elf/4.1.2/../../../../nios2-elf/lib\libc.a(lib_a-dtoa.o)
                              c:/logicielge1/altera/13.0sp1/nios2eds/bin/gnu/h-i686-mingw32/bin/../lib/gcc/nios2-elf/4.1.2/../../../../nios2-elf/lib\libc.a(lib_a-vfprintf.o) (_dtoa_r)
c:/logicielge1/altera/13.0sp1/nios2eds/bin/gnu/h-i686-mingw32/bin/../lib/gcc/nios2-elf/4.1.2/../../../../nios2-elf/lib\libc.a(lib_a-fflush.o)
                              c:/logicielge1/altera/13.0sp1/nios2eds/bin/gnu/h-i686-mingw32/bin/../lib/gcc/nios2-elf/4.1.2/../../../../nios2-elf/lib\libc.a(lib_a-vfprintf.o) (_fflush_r)
c:/logicielge1/altera/13.0sp1/nios2eds/bin/gnu/h-i686-mingw32/bin/../lib/gcc/nios2-elf/4.1.2/../../../../nios2-elf/lib\libc.a(lib_a-findfp.o)
                              c:/logicielge1/altera/13.0sp1/nios2eds/bin/gnu/h-i686-mingw32/bin/../lib/gcc/nios2-elf/4.1.2/../../../../nios2-elf/lib\libc.a(lib_a-vfprintf.o) (__sinit)
c:/logicielge1/altera/13.0sp1/nios2eds/bin/gnu/h-i686-mingw32/bin/../lib/gcc/nios2-elf/4.1.2/../../../../nios2-elf/lib\libc.a(lib_a-freer.o)
                              c:/logicielge1/altera/13.0sp1/nios2eds/bin/gnu/h-i686-mingw32/bin/../lib/gcc/nios2-elf/4.1.2/../../../../nios2-elf/lib\libc.a(lib_a-malloc.o) (_free_r)
c:/logicielge1/altera/13.0sp1/nios2eds/bin/gnu/h-i686-mingw32/bin/../lib/gcc/nios2-elf/4.1.2/../../../../nios2-elf/lib\libc.a(lib_a-fvwrite.o)
                              c:/logicielge1/altera/13.0sp1/nios2eds/bin/gnu/h-i686-mingw32/bin/../lib/gcc/nios2-elf/4.1.2/../../../../nios2-elf/lib\libc.a(lib_a-vfprintf.o) (__sfvwrite_r)
c:/logicielge1/altera/13.0sp1/nios2eds/bin/gnu/h-i686-mingw32/bin/../lib/gcc/nios2-elf/4.1.2/../../../../nios2-elf/lib\libc.a(lib_a-fwalk.o)
                              c:/logicielge1/altera/13.0sp1/nios2eds/bin/gnu/h-i686-mingw32/bin/../lib/gcc/nios2-elf/4.1.2/../../../../nios2-elf/lib\libc.a(lib_a-fflush.o) (_fwalk_reent)
c:/logicielge1/altera/13.0sp1/nios2eds/bin/gnu/h-i686-mingw32/bin/../lib/gcc/nios2-elf/4.1.2/../../../../nios2-elf/lib\libc.a(lib_a-impure.o)
                              c:/logicielge1/altera/13.0sp1/nios2eds/bin/gnu/h-i686-mingw32/bin/../lib/gcc/nios2-elf/4.1.2/../../../../nios2-elf/lib\libc.a(lib_a-malloc.o) (_impure_ptr)
c:/logicielge1/altera/13.0sp1/nios2eds/bin/gnu/h-i686-mingw32/bin/../lib/gcc/nios2-elf/4.1.2/../../../../nios2-elf/lib\libc.a(lib_a-int_errno.o)
                              c:/logicielge1/altera/13.0sp1/nios2eds/bin/gnu/h-i686-mingw32/bin/../lib/gcc/nios2-elf/4.1.2/../../../../nios2-elf/lib\libc.a(lib_a-sbrkr.o) (errno)
c:/logicielge1/altera/13.0sp1/nios2eds/bin/gnu/h-i686-mingw32/bin/../lib/gcc/nios2-elf/4.1.2/../../../../nios2-elf/lib\libc.a(lib_a-locale.o)
                              c:/logicielge1/altera/13.0sp1/nios2eds/bin/gnu/h-i686-mingw32/bin/../lib/gcc/nios2-elf/4.1.2/../../../../nios2-elf/lib\libc.a(lib_a-vfprintf.o) (_localeconv_r)
c:/logicielge1/altera/13.0sp1/nios2eds/bin/gnu/h-i686-mingw32/bin/../lib/gcc/nios2-elf/4.1.2/../../../../nios2-elf/lib\libc.a(lib_a-makebuf.o)
                              c:/logicielge1/altera/13.0sp1/nios2eds/bin/gnu/h-i686-mingw32/bin/../lib/gcc/nios2-elf/4.1.2/../../../../nios2-elf/lib\libc.a(lib_a-wsetup.o) (__smakebuf_r)
c:/logicielge1/altera/13.0sp1/nios2eds/bin/gnu/h-i686-mingw32/bin/../lib/gcc/nios2-elf/4.1.2/../../../../nios2-elf/lib\libc.a(lib_a-memchr.o)
                              c:/logicielge1/altera/13.0sp1/nios2eds/bin/gnu/h-i686-mingw32/bin/../lib/gcc/nios2-elf/4.1.2/../../../../nios2-elf/lib\libc.a(lib_a-vfprintf.o) (memchr)
c:/logicielge1/altera/13.0sp1/nios2eds/bin/gnu/h-i686-mingw32/bin/../lib/gcc/nios2-elf/4.1.2/../../../../nios2-elf/lib\libc.a(lib_a-memcpy.o)
                              c:/logicielge1/altera/13.0sp1/nios2eds/bin/gnu/h-i686-mingw32/bin/../lib/gcc/nios2-elf/4.1.2/../../../../nios2-elf/lib\libc.a(lib_a-dtoa.o) (memcpy)
c:/logicielge1/altera/13.0sp1/nios2eds/bin/gnu/h-i686-mingw32/bin/../lib/gcc/nios2-elf/4.1.2/../../../../nios2-elf/lib\libc.a(lib_a-memmove.o)
                              c:/logicielge1/altera/13.0sp1/nios2eds/bin/gnu/h-i686-mingw32/bin/../lib/gcc/nios2-elf/4.1.2/../../../../nios2-elf/lib\libc.a(lib_a-fvwrite.o) (memmove)
c:/logicielge1/altera/13.0sp1/nios2eds/bin/gnu/h-i686-mingw32/bin/../lib/gcc/nios2-elf/4.1.2/../../../../nios2-elf/lib\libc.a(lib_a-mprec.o)
                              c:/logicielge1/altera/13.0sp1/nios2eds/bin/gnu/h-i686-mingw32/bin/../lib/gcc/nios2-elf/4.1.2/../../../../nios2-elf/lib\libc.a(lib_a-dtoa.o) (_Bfree)
c:/logicielge1/altera/13.0sp1/nios2eds/bin/gnu/h-i686-mingw32/bin/../lib/gcc/nios2-elf/4.1.2/../../../../nios2-elf/lib\libc.a(lib_a-reallocr.o)
                              c:/logicielge1/altera/13.0sp1/nios2eds/bin/gnu/h-i686-mingw32/bin/../lib/gcc/nios2-elf/4.1.2/../../../../nios2-elf/lib\libc.a(lib_a-fvwrite.o) (_realloc_r)
c:/logicielge1/altera/13.0sp1/nios2eds/bin/gnu/h-i686-mingw32/bin/../lib/gcc/nios2-elf/4.1.2/../../../../nios2-elf/lib\libc.a(lib_a-s_isinfd.o)
                              c:/logicielge1/altera/13.0sp1/nios2eds/bin/gnu/h-i686-mingw32/bin/../lib/gcc/nios2-elf/4.1.2/../../../../nios2-elf/lib\libc.a(lib_a-vfprintf.o) (__isinfd)
c:/logicielge1/altera/13.0sp1/nios2eds/bin/gnu/h-i686-mingw32/bin/../lib/gcc/nios2-elf/4.1.2/../../../../nios2-elf/lib\libc.a(lib_a-s_isnand.o)
                              c:/logicielge1/altera/13.0sp1/nios2eds/bin/gnu/h-i686-mingw32/bin/../lib/gcc/nios2-elf/4.1.2/../../../../nios2-elf/lib\libc.a(lib_a-vfprintf.o) (__isnand)
c:/logicielge1/altera/13.0sp1/nios2eds/bin/gnu/h-i686-mingw32/bin/../lib/gcc/nios2-elf/4.1.2/../../../../nios2-elf/lib\libc.a(lib_a-stdio.o)
                              c:/logicielge1/altera/13.0sp1/nios2eds/bin/gnu/h-i686-mingw32/bin/../lib/gcc/nios2-elf/4.1.2/../../../../nios2-elf/lib\libc.a(lib_a-findfp.o) (__sclose)
c:/logicielge1/altera/13.0sp1/nios2eds/bin/gnu/h-i686-mingw32/bin/../lib/gcc/nios2-elf/4.1.2/../../../../nios2-elf/lib\libc.a(lib_a-strcmp.o)
                              c:/logicielge1/altera/13.0sp1/nios2eds/bin/gnu/h-i686-mingw32/bin/../lib/gcc/nios2-elf/4.1.2/../../../../nios2-elf/lib\libc.a(lib_a-locale.o) (strcmp)
c:/logicielge1/altera/13.0sp1/nios2eds/bin/gnu/h-i686-mingw32/bin/../lib/gcc/nios2-elf/4.1.2/../../../../nios2-elf/lib\libc.a(lib_a-writer.o)
                              c:/logicielge1/altera/13.0sp1/nios2eds/bin/gnu/h-i686-mingw32/bin/../lib/gcc/nios2-elf/4.1.2/../../../../nios2-elf/lib\libc.a(lib_a-stdio.o) (_write_r)
c:/logicielge1/altera/13.0sp1/nios2eds/bin/gnu/h-i686-mingw32/bin/../lib/gcc/nios2-elf/4.1.2/../../../../nios2-elf/lib\libc.a(lib_a-callocr.o)
                              c:/logicielge1/altera/13.0sp1/nios2eds/bin/gnu/h-i686-mingw32/bin/../lib/gcc/nios2-elf/4.1.2/../../../../nios2-elf/lib\libc.a(lib_a-mprec.o) (_calloc_r)
c:/logicielge1/altera/13.0sp1/nios2eds/bin/gnu/h-i686-mingw32/bin/../lib/gcc/nios2-elf/4.1.2/../../../../nios2-elf/lib\libc.a(lib_a-closer.o)
                              c:/logicielge1/altera/13.0sp1/nios2eds/bin/gnu/h-i686-mingw32/bin/../lib/gcc/nios2-elf/4.1.2/../../../../nios2-elf/lib\libc.a(lib_a-stdio.o) (_close_r)
c:/logicielge1/altera/13.0sp1/nios2eds/bin/gnu/h-i686-mingw32/bin/../lib/gcc/nios2-elf/4.1.2/../../../../nios2-elf/lib\libc.a(lib_a-fclose.o)
                              c:/logicielge1/altera/13.0sp1/nios2eds/bin/gnu/h-i686-mingw32/bin/../lib/gcc/nios2-elf/4.1.2/../../../../nios2-elf/lib\libc.a(lib_a-findfp.o) (fclose)
c:/logicielge1/altera/13.0sp1/nios2eds/bin/gnu/h-i686-mingw32/bin/../lib/gcc/nios2-elf/4.1.2/../../../../nios2-elf/lib\libc.a(lib_a-fstatr.o)
                              c:/logicielge1/altera/13.0sp1/nios2eds/bin/gnu/h-i686-mingw32/bin/../lib/gcc/nios2-elf/4.1.2/../../../../nios2-elf/lib\libc.a(lib_a-makebuf.o) (_fstat_r)
c:/logicielge1/altera/13.0sp1/nios2eds/bin/gnu/h-i686-mingw32/bin/../lib/gcc/nios2-elf/4.1.2/../../../../nios2-elf/lib\libc.a(lib_a-isattyr.o)
                              c:/logicielge1/altera/13.0sp1/nios2eds/bin/gnu/h-i686-mingw32/bin/../lib/gcc/nios2-elf/4.1.2/../../../../nios2-elf/lib\libc.a(lib_a-makebuf.o) (_isatty_r)
c:/logicielge1/altera/13.0sp1/nios2eds/bin/gnu/h-i686-mingw32/bin/../lib/gcc/nios2-elf/4.1.2/../../../../nios2-elf/lib\libc.a(lib_a-lseekr.o)
                              c:/logicielge1/altera/13.0sp1/nios2eds/bin/gnu/h-i686-mingw32/bin/../lib/gcc/nios2-elf/4.1.2/../../../../nios2-elf/lib\libc.a(lib_a-stdio.o) (_lseek_r)
c:/logicielge1/altera/13.0sp1/nios2eds/bin/gnu/h-i686-mingw32/bin/../lib/gcc/nios2-elf/4.1.2/../../../../nios2-elf/lib\libc.a(lib_a-readr.o)
                              c:/logicielge1/altera/13.0sp1/nios2eds/bin/gnu/h-i686-mingw32/bin/../lib/gcc/nios2-elf/4.1.2/../../../../nios2-elf/lib\libc.a(lib_a-stdio.o) (_read_r)
c:/logicielge1/altera/13.0sp1/nios2eds/bin/gnu/h-i686-mingw32/bin/../lib/gcc/nios2-elf/4.1.2\libgcc.a(_udivdi3.o)
                              c:/logicielge1/altera/13.0sp1/nios2eds/bin/gnu/h-i686-mingw32/bin/../lib/gcc/nios2-elf/4.1.2/../../../../nios2-elf/lib\libc.a(lib_a-vfprintf.o) (__udivdi3)
c:/logicielge1/altera/13.0sp1/nios2eds/bin/gnu/h-i686-mingw32/bin/../lib/gcc/nios2-elf/4.1.2\libgcc.a(_umoddi3.o)
                              c:/logicielge1/altera/13.0sp1/nios2eds/bin/gnu/h-i686-mingw32/bin/../lib/gcc/nios2-elf/4.1.2/../../../../nios2-elf/lib\libc.a(lib_a-vfprintf.o) (__umoddi3)
c:/logicielge1/altera/13.0sp1/nios2eds/bin/gnu/h-i686-mingw32/bin/../lib/gcc/nios2-elf/4.1.2\libgcc.a(_addsub_df.o)
                              c:/logicielge1/altera/13.0sp1/nios2eds/bin/gnu/h-i686-mingw32/bin/../lib/gcc/nios2-elf/4.1.2/../../../../nios2-elf/lib\libc.a(lib_a-dtoa.o) (__subdf3)
c:/logicielge1/altera/13.0sp1/nios2eds/bin/gnu/h-i686-mingw32/bin/../lib/gcc/nios2-elf/4.1.2\libgcc.a(_mul_df.o)
                              c:/logicielge1/altera/13.0sp1/nios2eds/bin/gnu/h-i686-mingw32/bin/../lib/gcc/nios2-elf/4.1.2/../../../../nios2-elf/lib\libc.a(lib_a-dtoa.o) (__muldf3)
c:/logicielge1/altera/13.0sp1/nios2eds/bin/gnu/h-i686-mingw32/bin/../lib/gcc/nios2-elf/4.1.2\libgcc.a(_div_df.o)
                              c:/logicielge1/altera/13.0sp1/nios2eds/bin/gnu/h-i686-mingw32/bin/../lib/gcc/nios2-elf/4.1.2/../../../../nios2-elf/lib\libc.a(lib_a-dtoa.o) (__divdf3)
c:/logicielge1/altera/13.0sp1/nios2eds/bin/gnu/h-i686-mingw32/bin/../lib/gcc/nios2-elf/4.1.2\libgcc.a(_eq_df.o)
                              c:/logicielge1/altera/13.0sp1/nios2eds/bin/gnu/h-i686-mingw32/bin/../lib/gcc/nios2-elf/4.1.2/../../../../nios2-elf/lib\libc.a(lib_a-vfprintf.o) (__eqdf2)
c:/logicielge1/altera/13.0sp1/nios2eds/bin/gnu/h-i686-mingw32/bin/../lib/gcc/nios2-elf/4.1.2\libgcc.a(_ne_df.o)
                              c:/logicielge1/altera/13.0sp1/nios2eds/bin/gnu/h-i686-mingw32/bin/../lib/gcc/nios2-elf/4.1.2/../../../../nios2-elf/lib\libc.a(lib_a-vfprintf.o) (__nedf2)
c:/logicielge1/altera/13.0sp1/nios2eds/bin/gnu/h-i686-mingw32/bin/../lib/gcc/nios2-elf/4.1.2\libgcc.a(_gt_df.o)
                              c:/logicielge1/altera/13.0sp1/nios2eds/bin/gnu/h-i686-mingw32/bin/../lib/gcc/nios2-elf/4.1.2/../../../../nios2-elf/lib\libc.a(lib_a-dtoa.o) (__gtdf2)
c:/logicielge1/altera/13.0sp1/nios2eds/bin/gnu/h-i686-mingw32/bin/../lib/gcc/nios2-elf/4.1.2\libgcc.a(_ge_df.o)
                              c:/logicielge1/altera/13.0sp1/nios2eds/bin/gnu/h-i686-mingw32/bin/../lib/gcc/nios2-elf/4.1.2/../../../../nios2-elf/lib\libc.a(lib_a-dtoa.o) (__gedf2)
c:/logicielge1/altera/13.0sp1/nios2eds/bin/gnu/h-i686-mingw32/bin/../lib/gcc/nios2-elf/4.1.2\libgcc.a(_lt_df.o)
                              c:/logicielge1/altera/13.0sp1/nios2eds/bin/gnu/h-i686-mingw32/bin/../lib/gcc/nios2-elf/4.1.2/../../../../nios2-elf/lib\libc.a(lib_a-vfprintf.o) (__ltdf2)
c:/logicielge1/altera/13.0sp1/nios2eds/bin/gnu/h-i686-mingw32/bin/../lib/gcc/nios2-elf/4.1.2\libgcc.a(_si_to_df.o)
                              c:/logicielge1/altera/13.0sp1/nios2eds/bin/gnu/h-i686-mingw32/bin/../lib/gcc/nios2-elf/4.1.2/../../../../nios2-elf/lib\libc.a(lib_a-dtoa.o) (__floatsidf)
c:/logicielge1/altera/13.0sp1/nios2eds/bin/gnu/h-i686-mingw32/bin/../lib/gcc/nios2-elf/4.1.2\libgcc.a(_df_to_si.o)
                              c:/logicielge1/altera/13.0sp1/nios2eds/bin/gnu/h-i686-mingw32/bin/../lib/gcc/nios2-elf/4.1.2/../../../../nios2-elf/lib\libc.a(lib_a-dtoa.o) (__fixdfsi)
c:/logicielge1/altera/13.0sp1/nios2eds/bin/gnu/h-i686-mingw32/bin/../lib/gcc/nios2-elf/4.1.2\libgcc.a(_thenan_df.o)
                              c:/logicielge1/altera/13.0sp1/nios2eds/bin/gnu/h-i686-mingw32/bin/../lib/gcc/nios2-elf/4.1.2\libgcc.a(_addsub_df.o) (__thenan_df)
c:/logicielge1/altera/13.0sp1/nios2eds/bin/gnu/h-i686-mingw32/bin/../lib/gcc/nios2-elf/4.1.2\libgcc.a(_usi_to_df.o)
                              c:/logicielge1/altera/13.0sp1/nios2eds/bin/gnu/h-i686-mingw32/bin/../lib/gcc/nios2-elf/4.1.2/../../../../nios2-elf/lib\libc.a(lib_a-dtoa.o) (__floatunsidf)
c:/logicielge1/altera/13.0sp1/nios2eds/bin/gnu/h-i686-mingw32/bin/../lib/gcc/nios2-elf/4.1.2\libgcc.a(lib2-divmod.o)
                              c:/logicielge1/altera/13.0sp1/nios2eds/bin/gnu/h-i686-mingw32/bin/../lib/gcc/nios2-elf/4.1.2/../../../../nios2-elf/lib\libc.a(lib_a-vfprintf.o) (__divsi3)
c:/logicielge1/altera/13.0sp1/nios2eds/bin/gnu/h-i686-mingw32/bin/../lib/gcc/nios2-elf/4.1.2\libgcc.a(_muldi3.o)
                              c:/logicielge1/altera/13.0sp1/nios2eds/bin/gnu/h-i686-mingw32/bin/../lib/gcc/nios2-elf/4.1.2\libgcc.a(_mul_df.o) (__muldi3)
c:/logicielge1/altera/13.0sp1/nios2eds/bin/gnu/h-i686-mingw32/bin/../lib/gcc/nios2-elf/4.1.2\libgcc.a(_clz.o)
                              c:/logicielge1/altera/13.0sp1/nios2eds/bin/gnu/h-i686-mingw32/bin/../lib/gcc/nios2-elf/4.1.2\libgcc.a(_udivdi3.o) (__clz_tab)
c:/logicielge1/altera/13.0sp1/nios2eds/bin/gnu/h-i686-mingw32/bin/../lib/gcc/nios2-elf/4.1.2\libgcc.a(_clzsi2.o)
                              c:/logicielge1/altera/13.0sp1/nios2eds/bin/gnu/h-i686-mingw32/bin/../lib/gcc/nios2-elf/4.1.2\libgcc.a(_si_to_df.o) (__clzsi2)
c:/logicielge1/altera/13.0sp1/nios2eds/bin/gnu/h-i686-mingw32/bin/../lib/gcc/nios2-elf/4.1.2\libgcc.a(_pack_df.o)
                              c:/logicielge1/altera/13.0sp1/nios2eds/bin/gnu/h-i686-mingw32/bin/../lib/gcc/nios2-elf/4.1.2\libgcc.a(_addsub_df.o) (__pack_d)
c:/logicielge1/altera/13.0sp1/nios2eds/bin/gnu/h-i686-mingw32/bin/../lib/gcc/nios2-elf/4.1.2\libgcc.a(_unpack_df.o)
                              c:/logicielge1/altera/13.0sp1/nios2eds/bin/gnu/h-i686-mingw32/bin/../lib/gcc/nios2-elf/4.1.2\libgcc.a(_addsub_df.o) (__unpack_d)
c:/logicielge1/altera/13.0sp1/nios2eds/bin/gnu/h-i686-mingw32/bin/../lib/gcc/nios2-elf/4.1.2\libgcc.a(_fpcmp_parts_df.o)
                              c:/logicielge1/altera/13.0sp1/nios2eds/bin/gnu/h-i686-mingw32/bin/../lib/gcc/nios2-elf/4.1.2\libgcc.a(_eq_df.o) (__fpcmp_parts_d)
../cmv_controller_bsp/\libhal_bsp.a(alt_close.o)
                              c:/logicielge1/altera/13.0sp1/nios2eds/bin/gnu/h-i686-mingw32/bin/../lib/gcc/nios2-elf/4.1.2/../../../../nios2-elf/lib\libc.a(lib_a-closer.o) (close)
../cmv_controller_bsp/\libhal_bsp.a(alt_dev.o)
                              ../cmv_controller_bsp/\libhal_bsp.a(alt_close.o) (alt_fd_list)
../cmv_controller_bsp/\libhal_bsp.a(alt_errno.o)
                              ../cmv_controller_bsp/\libhal_bsp.a(alt_close.o) (alt_errno)
../cmv_controller_bsp/\libhal_bsp.a(alt_exit.o)
                              c:/logicielge1/altera/13.0sp1/nios2eds/bin/gnu/h-i686-mingw32/bin/../lib/gcc/nios2-elf/4.1.2/../../../../nios2-elf/lib\libc.a(lib_a-abort.o) (_exit)
../cmv_controller_bsp/\libhal_bsp.a(alt_fstat.o)
                              c:/logicielge1/altera/13.0sp1/nios2eds/bin/gnu/h-i686-mingw32/bin/../lib/gcc/nios2-elf/4.1.2/../../../../nios2-elf/lib\libc.a(lib_a-fstatr.o) (fstat)
../cmv_controller_bsp/\libhal_bsp.a(alt_getpid.o)
                              c:/logicielge1/altera/13.0sp1/nios2eds/bin/gnu/h-i686-mingw32/bin/../lib/gcc/nios2-elf/4.1.2/../../../../nios2-elf/lib\libc.a(lib_a-signalr.o) (getpid)
../cmv_controller_bsp/\libhal_bsp.a(alt_irq_register.o)
                              obj/default/controller/UART.o (alt_irq_register)
../cmv_controller_bsp/\libhal_bsp.a(alt_irq_vars.o)
                              ../cmv_controller_bsp/\libhal_bsp.a(alt_irq_register.o) (alt_irq_active)
../cmv_controller_bsp/\libhal_bsp.a(alt_isatty.o)
                              c:/logicielge1/altera/13.0sp1/nios2eds/bin/gnu/h-i686-mingw32/bin/../lib/gcc/nios2-elf/4.1.2/../../../../nios2-elf/lib\libc.a(lib_a-isattyr.o) (isatty)
../cmv_controller_bsp/\libhal_bsp.a(alt_kill.o)
                              c:/logicielge1/altera/13.0sp1/nios2eds/bin/gnu/h-i686-mingw32/bin/../lib/gcc/nios2-elf/4.1.2/../../../../nios2-elf/lib\libc.a(lib_a-signalr.o) (kill)
../cmv_controller_bsp/\libhal_bsp.a(alt_load.o)
                              ../cmv_controller_bsp//obj/HAL/src/crt0.o (alt_load)
../cmv_controller_bsp/\libhal_bsp.a(alt_lseek.o)
                              c:/logicielge1/altera/13.0sp1/nios2eds/bin/gnu/h-i686-mingw32/bin/../lib/gcc/nios2-elf/4.1.2/../../../../nios2-elf/lib\libc.a(lib_a-lseekr.o) (lseek)
../cmv_controller_bsp/\libhal_bsp.a(alt_main.o)
                              ../cmv_controller_bsp//obj/HAL/src/crt0.o (alt_main)
../cmv_controller_bsp/\libhal_bsp.a(alt_malloc_lock.o)
                              c:/logicielge1/altera/13.0sp1/nios2eds/bin/gnu/h-i686-mingw32/bin/../lib/gcc/nios2-elf/4.1.2/../../../../nios2-elf/lib\libc.a(lib_a-mallocr.o) (__malloc_lock)
../cmv_controller_bsp/\libhal_bsp.a(alt_read.o)
                              c:/logicielge1/altera/13.0sp1/nios2eds/bin/gnu/h-i686-mingw32/bin/../lib/gcc/nios2-elf/4.1.2/../../../../nios2-elf/lib\libc.a(lib_a-readr.o) (read)
../cmv_controller_bsp/\libhal_bsp.a(alt_release_fd.o)
                              ../cmv_controller_bsp/\libhal_bsp.a(alt_close.o) (alt_release_fd)
../cmv_controller_bsp/\libhal_bsp.a(alt_sbrk.o)
                              c:/logicielge1/altera/13.0sp1/nios2eds/bin/gnu/h-i686-mingw32/bin/../lib/gcc/nios2-elf/4.1.2/../../../../nios2-elf/lib\libc.a(lib_a-sbrkr.o) (sbrk)
../cmv_controller_bsp/\libhal_bsp.a(alt_usleep.o)
                              obj/default/FSM.o (usleep)
../cmv_controller_bsp/\libhal_bsp.a(alt_write.o)
                              c:/logicielge1/altera/13.0sp1/nios2eds/bin/gnu/h-i686-mingw32/bin/../lib/gcc/nios2-elf/4.1.2/../../../../nios2-elf/lib\libc.a(lib_a-writer.o) (write)
../cmv_controller_bsp/\libhal_bsp.a(alt_sys_init.o)
                              ../cmv_controller_bsp/\libhal_bsp.a(alt_main.o) (alt_irq_init)
../cmv_controller_bsp/\libhal_bsp.a(altera_avalon_jtag_uart_fd.o)
                              ../cmv_controller_bsp/\libhal_bsp.a(alt_sys_init.o) (altera_avalon_jtag_uart_read_fd)
../cmv_controller_bsp/\libhal_bsp.a(altera_avalon_jtag_uart_init.o)
                              ../cmv_controller_bsp/\libhal_bsp.a(alt_sys_init.o) (altera_avalon_jtag_uart_init)
../cmv_controller_bsp/\libhal_bsp.a(altera_avalon_jtag_uart_ioctl.o)
                              ../cmv_controller_bsp/\libhal_bsp.a(altera_avalon_jtag_uart_fd.o) (altera_avalon_jtag_uart_ioctl)
../cmv_controller_bsp/\libhal_bsp.a(altera_avalon_jtag_uart_read.o)
                              ../cmv_controller_bsp/\libhal_bsp.a(altera_avalon_jtag_uart_fd.o) (altera_avalon_jtag_uart_read)
../cmv_controller_bsp/\libhal_bsp.a(altera_avalon_jtag_uart_write.o)
                              ../cmv_controller_bsp/\libhal_bsp.a(altera_avalon_jtag_uart_fd.o) (altera_avalon_jtag_uart_write)
../cmv_controller_bsp/\libhal_bsp.a(altera_avalon_spi.o)
                              obj/default/controller/SPI.o (alt_avalon_spi_command)
../cmv_controller_bsp/\libhal_bsp.a(altera_avalon_uart_fd.o)
                              ../cmv_controller_bsp/\libhal_bsp.a(alt_sys_init.o) (altera_avalon_uart_read_fd)
../cmv_controller_bsp/\libhal_bsp.a(altera_avalon_uart_init.o)
                              ../cmv_controller_bsp/\libhal_bsp.a(alt_sys_init.o) (altera_avalon_uart_init)
../cmv_controller_bsp/\libhal_bsp.a(altera_avalon_uart_read.o)
                              ../cmv_controller_bsp/\libhal_bsp.a(altera_avalon_uart_fd.o) (altera_avalon_uart_read)
../cmv_controller_bsp/\libhal_bsp.a(altera_avalon_uart_write.o)
                              ../cmv_controller_bsp/\libhal_bsp.a(altera_avalon_uart_fd.o) (altera_avalon_uart_write)
../cmv_controller_bsp/\libhal_bsp.a(alt_alarm_start.o)
                              ../cmv_controller_bsp/\libhal_bsp.a(altera_avalon_jtag_uart_init.o) (alt_alarm_start)
../cmv_controller_bsp/\libhal_bsp.a(alt_busy_sleep.o)
                              ../cmv_controller_bsp/\libhal_bsp.a(alt_usleep.o) (alt_busy_sleep)
../cmv_controller_bsp/\libhal_bsp.a(alt_dcache_flush_all.o)
                              ../cmv_controller_bsp/\libhal_bsp.a(alt_load.o) (alt_dcache_flush_all)
../cmv_controller_bsp/\libhal_bsp.a(alt_dev_llist_insert.o)
                              ../cmv_controller_bsp/\libhal_bsp.a(alt_sys_init.o) (alt_dev_llist_insert)
../cmv_controller_bsp/\libhal_bsp.a(alt_do_ctors.o)
                              ../cmv_controller_bsp/\libhal_bsp.a(alt_main.o) (_do_ctors)
../cmv_controller_bsp/\libhal_bsp.a(alt_do_dtors.o)
                              ../cmv_controller_bsp/\libhal_bsp.a(alt_main.o) (_do_dtors)
../cmv_controller_bsp/\libhal_bsp.a(alt_icache_flush_all.o)
                              ../cmv_controller_bsp/\libhal_bsp.a(alt_load.o) (alt_icache_flush_all)
../cmv_controller_bsp/\libhal_bsp.a(alt_iic.o)
                              ../cmv_controller_bsp/\libhal_bsp.a(altera_avalon_jtag_uart_init.o) (alt_ic_isr_register)
../cmv_controller_bsp/\libhal_bsp.a(alt_iic_isr_register.o)
                              ../cmv_controller_bsp/\libhal_bsp.a(alt_iic.o) (alt_iic_isr_register)
../cmv_controller_bsp/\libhal_bsp.a(alt_io_redirect.o)
                              ../cmv_controller_bsp/\libhal_bsp.a(alt_main.o) (alt_io_redirect)
../cmv_controller_bsp/\libhal_bsp.a(alt_irq_entry.o)
                              ../cmv_controller_bsp/\libhal_bsp.a(alt_irq_register.o) (alt_irq_entry)
../cmv_controller_bsp/\libhal_bsp.a(alt_irq_handler.o)
                              ../cmv_controller_bsp/\libhal_bsp.a(alt_irq_register.o) (alt_irq_handler)
../cmv_controller_bsp/\libhal_bsp.a(alt_open.o)
                              ../cmv_controller_bsp/\libhal_bsp.a(alt_io_redirect.o) (open)
../cmv_controller_bsp/\libhal_bsp.a(alt_tick.o)
                              ../cmv_controller_bsp/\libhal_bsp.a(altera_avalon_jtag_uart_init.o) (_alt_tick_rate)
../cmv_controller_bsp/\libhal_bsp.a(altera_nios2_qsys_irq.o)
                              ../cmv_controller_bsp/\libhal_bsp.a(alt_sys_init.o) (altera_nios2_qsys_irq_init)
../cmv_controller_bsp/\libhal_bsp.a(alt_exception_entry.o)
                              ../cmv_controller_bsp/\libhal_bsp.a(alt_irq_entry.o) (alt_exception)
../cmv_controller_bsp/\libhal_bsp.a(alt_find_dev.o)
                              ../cmv_controller_bsp/\libhal_bsp.a(alt_open.o) (alt_find_dev)
../cmv_controller_bsp/\libhal_bsp.a(alt_find_file.o)
                              ../cmv_controller_bsp/\libhal_bsp.a(alt_open.o) (alt_find_file)
../cmv_controller_bsp/\libhal_bsp.a(alt_get_fd.o)
                              ../cmv_controller_bsp/\libhal_bsp.a(alt_open.o) (alt_get_fd)
../cmv_controller_bsp/\libhal_bsp.a(alt_icache_flush.o)
                              ../cmv_controller_bsp/\libhal_bsp.a(alt_icache_flush_all.o) (alt_icache_flush)
c:/logicielge1/altera/13.0sp1/nios2eds/bin/gnu/h-i686-mingw32/bin/../lib/gcc/nios2-elf/4.1.2/../../../../nios2-elf/lib\libc.a(lib_a-atexit.o)
                              ../cmv_controller_bsp/\libhal_bsp.a(alt_main.o) (atexit)
c:/logicielge1/altera/13.0sp1/nios2eds/bin/gnu/h-i686-mingw32/bin/../lib/gcc/nios2-elf/4.1.2/../../../../nios2-elf/lib\libc.a(lib_a-exit.o)
                              ../cmv_controller_bsp/\libhal_bsp.a(alt_main.o) (exit)
c:/logicielge1/altera/13.0sp1/nios2eds/bin/gnu/h-i686-mingw32/bin/../lib/gcc/nios2-elf/4.1.2/../../../../nios2-elf/lib\libc.a(lib_a-memcmp.o)
                              ../cmv_controller_bsp/\libhal_bsp.a(alt_find_dev.o) (memcmp)
c:/logicielge1/altera/13.0sp1/nios2eds/bin/gnu/h-i686-mingw32/bin/../lib/gcc/nios2-elf/4.1.2/../../../../nios2-elf/lib\libc.a(lib_a-__atexit.o)
                              c:/logicielge1/altera/13.0sp1/nios2eds/bin/gnu/h-i686-mingw32/bin/../lib/gcc/nios2-elf/4.1.2/../../../../nios2-elf/lib\libc.a(lib_a-atexit.o) (__register_exitproc)
c:/logicielge1/altera/13.0sp1/nios2eds/bin/gnu/h-i686-mingw32/bin/../lib/gcc/nios2-elf/4.1.2/../../../../nios2-elf/lib\libc.a(lib_a-__call_atexit.o)
                              c:/logicielge1/altera/13.0sp1/nios2eds/bin/gnu/h-i686-mingw32/bin/../lib/gcc/nios2-elf/4.1.2/../../../../nios2-elf/lib\libc.a(lib_a-exit.o) (__call_exitprocs)

Allocating common symbols
Common symbol       size              file

alt_irq             0x100             ../cmv_controller_bsp/\libhal_bsp.a(alt_irq_handler.o)
errno               0x4               c:/logicielge1/altera/13.0sp1/nios2eds/bin/gnu/h-i686-mingw32/bin/../lib/gcc/nios2-elf/4.1.2/../../../../nios2-elf/lib\libc.a(lib_a-int_errno.o)
_atexit0            0x190             c:/logicielge1/altera/13.0sp1/nios2eds/bin/gnu/h-i686-mingw32/bin/../lib/gcc/nios2-elf/4.1.2/../../../../nios2-elf/lib\libc.a(lib_a-atexit.o)

Discarded input sections

 .group         0x00000000        0x8 obj/default/FSM.o
 .group         0x00000000        0x8 obj/default/FSM.o
 .group         0x00000000        0x8 obj/default/FSM.o
 .group         0x00000000        0x8 obj/default/controller/PIO.o
 .group         0x00000000        0x8 obj/default/controller/PIO.o
 .group         0x00000000        0x8 obj/default/controller/PIO.o
 .group         0x00000000        0x8 obj/default/controller/PIO_Bus.o
 .group         0x00000000        0x8 obj/default/controller/PIO_Bus.o
 .group         0x00000000        0x8 obj/default/controller/PIO_Bus.o
 .group         0x00000000        0x8 obj/default/controller/PIO_Pin.o
 .group         0x00000000        0x8 obj/default/controller/PIO_Pin.o
 .group         0x00000000        0x8 obj/default/controller/PIO_Pin.o
 .group         0x00000000        0x8 obj/default/controller/SPI.o
 .group         0x00000000        0x8 obj/default/controller/SPI.o
 .group         0x00000000        0x8 obj/default/controller/SPI.o
 .group         0x00000000        0x8 obj/default/controller/UART.o
 .group         0x00000000        0x8 obj/default/controller/UART.o
 .group         0x00000000        0x8 obj/default/controller/UART.o
 .group         0x00000000        0x8 obj/default/controller/UART.o
 .group         0x00000000        0x8 obj/default/controller/UART.o
 .group         0x00000000        0x8 obj/default/controller/UART.o
 .group         0x00000000        0x8 obj/default/controller/UART.o
 .group         0x00000000        0x8 obj/default/controller/UART.o
 .group         0x00000000        0x8 obj/default/controller/UART.o
 .group         0x00000000        0x8 obj/default/controller/UART.o
 .group         0x00000000        0x8 obj/default/controller/UART.o
 .group         0x00000000        0x8 obj/default/controller/UART.o
 .group         0x00000000        0x8 obj/default/controller/UART.o
 .group         0x00000000        0x8 obj/default/controller/UART.o
 .group         0x00000000        0x8 obj/default/controller/UART.o
 .group         0x00000000        0x8 obj/default/controller/UART.o
 .group         0x00000000        0x8 obj/default/controller/UART.o
 .group         0x00000000        0x8 c:/logicielge1/altera/13.0sp1/nios2eds/bin/gnu/h-i686-mingw32/bin/../lib/gcc/nios2-elf/4.1.2/../../../../nios2-elf/lib\libstdc++.a(class_type_info.o)
 .group         0x00000000        0x8 c:/logicielge1/altera/13.0sp1/nios2eds/bin/gnu/h-i686-mingw32/bin/../lib/gcc/nios2-elf/4.1.2/../../../../nios2-elf/lib\libstdc++.a(class_type_info.o)
 .group         0x00000000        0x8 c:/logicielge1/altera/13.0sp1/nios2eds/bin/gnu/h-i686-mingw32/bin/../lib/gcc/nios2-elf/4.1.2/../../../../nios2-elf/lib\libstdc++.a(class_type_info.o)
 .group         0x00000000        0x8 c:/logicielge1/altera/13.0sp1/nios2eds/bin/gnu/h-i686-mingw32/bin/../lib/gcc/nios2-elf/4.1.2/../../../../nios2-elf/lib\libstdc++.a(si_class_type_info.o)
 .group         0x00000000        0x8 c:/logicielge1/altera/13.0sp1/nios2eds/bin/gnu/h-i686-mingw32/bin/../lib/gcc/nios2-elf/4.1.2/../../../../nios2-elf/lib\libstdc++.a(si_class_type_info.o)
 .group         0x00000000        0x8 c:/logicielge1/altera/13.0sp1/nios2eds/bin/gnu/h-i686-mingw32/bin/../lib/gcc/nios2-elf/4.1.2/../../../../nios2-elf/lib\libstdc++.a(si_class_type_info.o)
 .group         0x00000000        0x8 c:/logicielge1/altera/13.0sp1/nios2eds/bin/gnu/h-i686-mingw32/bin/../lib/gcc/nios2-elf/4.1.2/../../../../nios2-elf/lib\libstdc++.a(eh_exception.o)
 .group         0x00000000        0x8 c:/logicielge1/altera/13.0sp1/nios2eds/bin/gnu/h-i686-mingw32/bin/../lib/gcc/nios2-elf/4.1.2/../../../../nios2-elf/lib\libstdc++.a(eh_exception.o)
 .group         0x00000000        0x8 c:/logicielge1/altera/13.0sp1/nios2eds/bin/gnu/h-i686-mingw32/bin/../lib/gcc/nios2-elf/4.1.2/../../../../nios2-elf/lib\libstdc++.a(eh_exception.o)
 .group         0x00000000        0x8 c:/logicielge1/altera/13.0sp1/nios2eds/bin/gnu/h-i686-mingw32/bin/../lib/gcc/nios2-elf/4.1.2/../../../../nios2-elf/lib\libstdc++.a(eh_exception.o)
 .group         0x00000000        0x8 c:/logicielge1/altera/13.0sp1/nios2eds/bin/gnu/h-i686-mingw32/bin/../lib/gcc/nios2-elf/4.1.2/../../../../nios2-elf/lib\libstdc++.a(eh_exception.o)
 .group         0x00000000        0x8 c:/logicielge1/altera/13.0sp1/nios2eds/bin/gnu/h-i686-mingw32/bin/../lib/gcc/nios2-elf/4.1.2/../../../../nios2-elf/lib\libstdc++.a(eh_exception.o)
 .group         0x00000000        0x8 c:/logicielge1/altera/13.0sp1/nios2eds/bin/gnu/h-i686-mingw32/bin/../lib/gcc/nios2-elf/4.1.2/../../../../nios2-elf/lib\libstdc++.a(fundamental_type_info.o)
 .group         0x00000000        0x8 c:/logicielge1/altera/13.0sp1/nios2eds/bin/gnu/h-i686-mingw32/bin/../lib/gcc/nios2-elf/4.1.2/../../../../nios2-elf/lib\libstdc++.a(fundamental_type_info.o)
 .group         0x00000000        0x8 c:/logicielge1/altera/13.0sp1/nios2eds/bin/gnu/h-i686-mingw32/bin/../lib/gcc/nios2-elf/4.1.2/../../../../nios2-elf/lib\libstdc++.a(fundamental_type_info.o)
 .group         0x00000000        0x8 c:/logicielge1/altera/13.0sp1/nios2eds/bin/gnu/h-i686-mingw32/bin/../lib/gcc/nios2-elf/4.1.2/../../../../nios2-elf/lib\libstdc++.a(fundamental_type_info.o)
 .group         0x00000000        0x8 c:/logicielge1/altera/13.0sp1/nios2eds/bin/gnu/h-i686-mingw32/bin/../lib/gcc/nios2-elf/4.1.2/../../../../nios2-elf/lib\libstdc++.a(fundamental_type_info.o)
 .group         0x00000000        0x8 c:/logicielge1/altera/13.0sp1/nios2eds/bin/gnu/h-i686-mingw32/bin/../lib/gcc/nios2-elf/4.1.2/../../../../nios2-elf/lib\libstdc++.a(fundamental_type_info.o)
 .group         0x00000000        0x8 c:/logicielge1/altera/13.0sp1/nios2eds/bin/gnu/h-i686-mingw32/bin/../lib/gcc/nios2-elf/4.1.2/../../../../nios2-elf/lib\libstdc++.a(fundamental_type_info.o)
 .group         0x00000000        0x8 c:/logicielge1/altera/13.0sp1/nios2eds/bin/gnu/h-i686-mingw32/bin/../lib/gcc/nios2-elf/4.1.2/../../../../nios2-elf/lib\libstdc++.a(fundamental_type_info.o)
 .group         0x00000000        0x8 c:/logicielge1/altera/13.0sp1/nios2eds/bin/gnu/h-i686-mingw32/bin/../lib/gcc/nios2-elf/4.1.2/../../../../nios2-elf/lib\libstdc++.a(fundamental_type_info.o)
 .group         0x00000000        0x8 c:/logicielge1/altera/13.0sp1/nios2eds/bin/gnu/h-i686-mingw32/bin/../lib/gcc/nios2-elf/4.1.2/../../../../nios2-elf/lib\libstdc++.a(fundamental_type_info.o)
 .group         0x00000000        0x8 c:/logicielge1/altera/13.0sp1/nios2eds/bin/gnu/h-i686-mingw32/bin/../lib/gcc/nios2-elf/4.1.2/../../../../nios2-elf/lib\libstdc++.a(fundamental_type_info.o)
 .group         0x00000000        0x8 c:/logicielge1/altera/13.0sp1/nios2eds/bin/gnu/h-i686-mingw32/bin/../lib/gcc/nios2-elf/4.1.2/../../../../nios2-elf/lib\libstdc++.a(fundamental_type_info.o)
 .group         0x00000000        0x8 c:/logicielge1/altera/13.0sp1/nios2eds/bin/gnu/h-i686-mingw32/bin/../lib/gcc/nios2-elf/4.1.2/../../../../nios2-elf/lib\libstdc++.a(fundamental_type_info.o)
 .group         0x00000000        0x8 c:/logicielge1/altera/13.0sp1/nios2eds/bin/gnu/h-i686-mingw32/bin/../lib/gcc/nios2-elf/4.1.2/../../../../nios2-elf/lib\libstdc++.a(fundamental_type_info.o)
 .group         0x00000000        0x8 c:/logicielge1/altera/13.0sp1/nios2eds/bin/gnu/h-i686-mingw32/bin/../lib/gcc/nios2-elf/4.1.2/../../../../nios2-elf/lib\libstdc++.a(fundamental_type_info.o)
 .group         0x00000000        0x8 c:/logicielge1/altera/13.0sp1/nios2eds/bin/gnu/h-i686-mingw32/bin/../lib/gcc/nios2-elf/4.1.2/../../../../nios2-elf/lib\libstdc++.a(fundamental_type_info.o)
 .group         0x00000000        0x8 c:/logicielge1/altera/13.0sp1/nios2eds/bin/gnu/h-i686-mingw32/bin/../lib/gcc/nios2-elf/4.1.2/../../../../nios2-elf/lib\libstdc++.a(fundamental_type_info.o)
 .group         0x00000000        0x8 c:/logicielge1/altera/13.0sp1/nios2eds/bin/gnu/h-i686-mingw32/bin/../lib/gcc/nios2-elf/4.1.2/../../../../nios2-elf/lib\libstdc++.a(fundamental_type_info.o)
 .group         0x00000000        0x8 c:/logicielge1/altera/13.0sp1/nios2eds/bin/gnu/h-i686-mingw32/bin/../lib/gcc/nios2-elf/4.1.2/../../../../nios2-elf/lib\libstdc++.a(fundamental_type_info.o)
 .group         0x00000000        0x8 c:/logicielge1/altera/13.0sp1/nios2eds/bin/gnu/h-i686-mingw32/bin/../lib/gcc/nios2-elf/4.1.2/../../../../nios2-elf/lib\libstdc++.a(fundamental_type_info.o)
 .group         0x00000000        0x8 c:/logicielge1/altera/13.0sp1/nios2eds/bin/gnu/h-i686-mingw32/bin/../lib/gcc/nios2-elf/4.1.2/../../../../nios2-elf/lib\libstdc++.a(fundamental_type_info.o)
 .group         0x00000000        0x8 c:/logicielge1/altera/13.0sp1/nios2eds/bin/gnu/h-i686-mingw32/bin/../lib/gcc/nios2-elf/4.1.2/../../../../nios2-elf/lib\libstdc++.a(fundamental_type_info.o)
 .group         0x00000000        0x8 c:/logicielge1/altera/13.0sp1/nios2eds/bin/gnu/h-i686-mingw32/bin/../lib/gcc/nios2-elf/4.1.2/../../../../nios2-elf/lib\libstdc++.a(fundamental_type_info.o)
 .group         0x00000000        0x8 c:/logicielge1/altera/13.0sp1/nios2eds/bin/gnu/h-i686-mingw32/bin/../lib/gcc/nios2-elf/4.1.2/../../../../nios2-elf/lib\libstdc++.a(fundamental_type_info.o)
 .group         0x00000000        0x8 c:/logicielge1/altera/13.0sp1/nios2eds/bin/gnu/h-i686-mingw32/bin/../lib/gcc/nios2-elf/4.1.2/../../../../nios2-elf/lib\libstdc++.a(fundamental_type_info.o)
 .group         0x00000000        0x8 c:/logicielge1/altera/13.0sp1/nios2eds/bin/gnu/h-i686-mingw32/bin/../lib/gcc/nios2-elf/4.1.2/../../../../nios2-elf/lib\libstdc++.a(fundamental_type_info.o)
 .group         0x00000000        0x8 c:/logicielge1/altera/13.0sp1/nios2eds/bin/gnu/h-i686-mingw32/bin/../lib/gcc/nios2-elf/4.1.2/../../../../nios2-elf/lib\libstdc++.a(fundamental_type_info.o)
 .group         0x00000000        0x8 c:/logicielge1/altera/13.0sp1/nios2eds/bin/gnu/h-i686-mingw32/bin/../lib/gcc/nios2-elf/4.1.2/../../../../nios2-elf/lib\libstdc++.a(fundamental_type_info.o)
 .group         0x00000000        0x8 c:/logicielge1/altera/13.0sp1/nios2eds/bin/gnu/h-i686-mingw32/bin/../lib/gcc/nios2-elf/4.1.2/../../../../nios2-elf/lib\libstdc++.a(fundamental_type_info.o)
 .group         0x00000000        0x8 c:/logicielge1/altera/13.0sp1/nios2eds/bin/gnu/h-i686-mingw32/bin/../lib/gcc/nios2-elf/4.1.2/../../../../nios2-elf/lib\libstdc++.a(fundamental_type_info.o)
 .group         0x00000000        0x8 c:/logicielge1/altera/13.0sp1/nios2eds/bin/gnu/h-i686-mingw32/bin/../lib/gcc/nios2-elf/4.1.2/../../../../nios2-elf/lib\libstdc++.a(fundamental_type_info.o)
 .group         0x00000000        0x8 c:/logicielge1/altera/13.0sp1/nios2eds/bin/gnu/h-i686-mingw32/bin/../lib/gcc/nios2-elf/4.1.2/../../../../nios2-elf/lib\libstdc++.a(fundamental_type_info.o)
 .group         0x00000000        0x8 c:/logicielge1/altera/13.0sp1/nios2eds/bin/gnu/h-i686-mingw32/bin/../lib/gcc/nios2-elf/4.1.2/../../../../nios2-elf/lib\libstdc++.a(fundamental_type_info.o)
 .group         0x00000000        0x8 c:/logicielge1/altera/13.0sp1/nios2eds/bin/gnu/h-i686-mingw32/bin/../lib/gcc/nios2-elf/4.1.2/../../../../nios2-elf/lib\libstdc++.a(fundamental_type_info.o)
 .group         0x00000000        0x8 c:/logicielge1/altera/13.0sp1/nios2eds/bin/gnu/h-i686-mingw32/bin/../lib/gcc/nios2-elf/4.1.2/../../../../nios2-elf/lib\libstdc++.a(fundamental_type_info.o)
 .group         0x00000000        0x8 c:/logicielge1/altera/13.0sp1/nios2eds/bin/gnu/h-i686-mingw32/bin/../lib/gcc/nios2-elf/4.1.2/../../../../nios2-elf/lib\libstdc++.a(fundamental_type_info.o)
 .group         0x00000000        0x8 c:/logicielge1/altera/13.0sp1/nios2eds/bin/gnu/h-i686-mingw32/bin/../lib/gcc/nios2-elf/4.1.2/../../../../nios2-elf/lib\libstdc++.a(fundamental_type_info.o)
 .group         0x00000000        0x8 c:/logicielge1/altera/13.0sp1/nios2eds/bin/gnu/h-i686-mingw32/bin/../lib/gcc/nios2-elf/4.1.2/../../../../nios2-elf/lib\libstdc++.a(fundamental_type_info.o)
 .group         0x00000000        0x8 c:/logicielge1/altera/13.0sp1/nios2eds/bin/gnu/h-i686-mingw32/bin/../lib/gcc/nios2-elf/4.1.2/../../../../nios2-elf/lib\libstdc++.a(fundamental_type_info.o)
 .group         0x00000000        0x8 c:/logicielge1/altera/13.0sp1/nios2eds/bin/gnu/h-i686-mingw32/bin/../lib/gcc/nios2-elf/4.1.2/../../../../nios2-elf/lib\libstdc++.a(fundamental_type_info.o)
 .group         0x00000000        0x8 c:/logicielge1/altera/13.0sp1/nios2eds/bin/gnu/h-i686-mingw32/bin/../lib/gcc/nios2-elf/4.1.2/../../../../nios2-elf/lib\libstdc++.a(fundamental_type_info.o)
 .group         0x00000000        0x8 c:/logicielge1/altera/13.0sp1/nios2eds/bin/gnu/h-i686-mingw32/bin/../lib/gcc/nios2-elf/4.1.2/../../../../nios2-elf/lib\libstdc++.a(fundamental_type_info.o)
 .group         0x00000000        0x8 c:/logicielge1/altera/13.0sp1/nios2eds/bin/gnu/h-i686-mingw32/bin/../lib/gcc/nios2-elf/4.1.2/../../../../nios2-elf/lib\libstdc++.a(fundamental_type_info.o)
 .group         0x00000000        0x8 c:/logicielge1/altera/13.0sp1/nios2eds/bin/gnu/h-i686-mingw32/bin/../lib/gcc/nios2-elf/4.1.2/../../../../nios2-elf/lib\libstdc++.a(fundamental_type_info.o)
 .group         0x00000000        0x8 c:/logicielge1/altera/13.0sp1/nios2eds/bin/gnu/h-i686-mingw32/bin/../lib/gcc/nios2-elf/4.1.2/../../../../nios2-elf/lib\libstdc++.a(fundamental_type_info.o)
 .group         0x00000000        0x8 c:/logicielge1/altera/13.0sp1/nios2eds/bin/gnu/h-i686-mingw32/bin/../lib/gcc/nios2-elf/4.1.2/../../../../nios2-elf/lib\libstdc++.a(fundamental_type_info.o)
 .group         0x00000000        0x8 c:/logicielge1/altera/13.0sp1/nios2eds/bin/gnu/h-i686-mingw32/bin/../lib/gcc/nios2-elf/4.1.2/../../../../nios2-elf/lib\libstdc++.a(fundamental_type_info.o)
 .group         0x00000000        0x8 c:/logicielge1/altera/13.0sp1/nios2eds/bin/gnu/h-i686-mingw32/bin/../lib/gcc/nios2-elf/4.1.2/../../../../nios2-elf/lib\libstdc++.a(fundamental_type_info.o)
 .group         0x00000000        0x8 c:/logicielge1/altera/13.0sp1/nios2eds/bin/gnu/h-i686-mingw32/bin/../lib/gcc/nios2-elf/4.1.2/../../../../nios2-elf/lib\libstdc++.a(fundamental_type_info.o)
 .group         0x00000000        0x8 c:/logicielge1/altera/13.0sp1/nios2eds/bin/gnu/h-i686-mingw32/bin/../lib/gcc/nios2-elf/4.1.2/../../../../nios2-elf/lib\libstdc++.a(fundamental_type_info.o)
 .group         0x00000000        0x8 c:/logicielge1/altera/13.0sp1/nios2eds/bin/gnu/h-i686-mingw32/bin/../lib/gcc/nios2-elf/4.1.2/../../../../nios2-elf/lib\libstdc++.a(fundamental_type_info.o)
 .group         0x00000000        0x8 c:/logicielge1/altera/13.0sp1/nios2eds/bin/gnu/h-i686-mingw32/bin/../lib/gcc/nios2-elf/4.1.2/../../../../nios2-elf/lib\libstdc++.a(fundamental_type_info.o)
 .group         0x00000000        0x8 c:/logicielge1/altera/13.0sp1/nios2eds/bin/gnu/h-i686-mingw32/bin/../lib/gcc/nios2-elf/4.1.2/../../../../nios2-elf/lib\libstdc++.a(fundamental_type_info.o)
 .group         0x00000000        0x8 c:/logicielge1/altera/13.0sp1/nios2eds/bin/gnu/h-i686-mingw32/bin/../lib/gcc/nios2-elf/4.1.2/../../../../nios2-elf/lib\libstdc++.a(fundamental_type_info.o)
 .group         0x00000000        0x8 c:/logicielge1/altera/13.0sp1/nios2eds/bin/gnu/h-i686-mingw32/bin/../lib/gcc/nios2-elf/4.1.2/../../../../nios2-elf/lib\libstdc++.a(fundamental_type_info.o)
 .group         0x00000000        0x8 c:/logicielge1/altera/13.0sp1/nios2eds/bin/gnu/h-i686-mingw32/bin/../lib/gcc/nios2-elf/4.1.2/../../../../nios2-elf/lib\libstdc++.a(fundamental_type_info.o)
 .group         0x00000000        0x8 c:/logicielge1/altera/13.0sp1/nios2eds/bin/gnu/h-i686-mingw32/bin/../lib/gcc/nios2-elf/4.1.2/../../../../nios2-elf/lib\libstdc++.a(fundamental_type_info.o)
 .group         0x00000000        0x8 c:/logicielge1/altera/13.0sp1/nios2eds/bin/gnu/h-i686-mingw32/bin/../lib/gcc/nios2-elf/4.1.2/../../../../nios2-elf/lib\libstdc++.a(fundamental_type_info.o)
 .group         0x00000000        0x8 c:/logicielge1/altera/13.0sp1/nios2eds/bin/gnu/h-i686-mingw32/bin/../lib/gcc/nios2-elf/4.1.2/../../../../nios2-elf/lib\libstdc++.a(fundamental_type_info.o)
 .group         0x00000000        0x8 c:/logicielge1/altera/13.0sp1/nios2eds/bin/gnu/h-i686-mingw32/bin/../lib/gcc/nios2-elf/4.1.2/../../../../nios2-elf/lib\libstdc++.a(fundamental_type_info.o)
 .group         0x00000000        0x8 c:/logicielge1/altera/13.0sp1/nios2eds/bin/gnu/h-i686-mingw32/bin/../lib/gcc/nios2-elf/4.1.2/../../../../nios2-elf/lib\libstdc++.a(fundamental_type_info.o)
 .group         0x00000000        0x8 c:/logicielge1/altera/13.0sp1/nios2eds/bin/gnu/h-i686-mingw32/bin/../lib/gcc/nios2-elf/4.1.2/../../../../nios2-elf/lib\libstdc++.a(fundamental_type_info.o)
 .group         0x00000000        0x8 c:/logicielge1/altera/13.0sp1/nios2eds/bin/gnu/h-i686-mingw32/bin/../lib/gcc/nios2-elf/4.1.2/../../../../nios2-elf/lib\libstdc++.a(fundamental_type_info.o)
 .group         0x00000000        0x8 c:/logicielge1/altera/13.0sp1/nios2eds/bin/gnu/h-i686-mingw32/bin/../lib/gcc/nios2-elf/4.1.2/../../../../nios2-elf/lib\libstdc++.a(fundamental_type_info.o)
 .group         0x00000000        0x8 c:/logicielge1/altera/13.0sp1/nios2eds/bin/gnu/h-i686-mingw32/bin/../lib/gcc/nios2-elf/4.1.2/../../../../nios2-elf/lib\libstdc++.a(fundamental_type_info.o)
 .group         0x00000000        0x8 c:/logicielge1/altera/13.0sp1/nios2eds/bin/gnu/h-i686-mingw32/bin/../lib/gcc/nios2-elf/4.1.2/../../../../nios2-elf/lib\libstdc++.a(fundamental_type_info.o)
 .group         0x00000000        0x8 c:/logicielge1/altera/13.0sp1/nios2eds/bin/gnu/h-i686-mingw32/bin/../lib/gcc/nios2-elf/4.1.2/../../../../nios2-elf/lib\libstdc++.a(fundamental_type_info.o)
 .group         0x00000000        0x8 c:/logicielge1/altera/13.0sp1/nios2eds/bin/gnu/h-i686-mingw32/bin/../lib/gcc/nios2-elf/4.1.2/../../../../nios2-elf/lib\libstdc++.a(fundamental_type_info.o)
 .group         0x00000000        0x8 c:/logicielge1/altera/13.0sp1/nios2eds/bin/gnu/h-i686-mingw32/bin/../lib/gcc/nios2-elf/4.1.2/../../../../nios2-elf/lib\libstdc++.a(fundamental_type_info.o)
 .group         0x00000000        0x8 c:/logicielge1/altera/13.0sp1/nios2eds/bin/gnu/h-i686-mingw32/bin/../lib/gcc/nios2-elf/4.1.2/../../../../nios2-elf/lib\libstdc++.a(fundamental_type_info.o)
 .group         0x00000000        0x8 c:/logicielge1/altera/13.0sp1/nios2eds/bin/gnu/h-i686-mingw32/bin/../lib/gcc/nios2-elf/4.1.2/../../../../nios2-elf/lib\libstdc++.a(fundamental_type_info.o)
 .group         0x00000000        0x8 c:/logicielge1/altera/13.0sp1/nios2eds/bin/gnu/h-i686-mingw32/bin/../lib/gcc/nios2-elf/4.1.2/../../../../nios2-elf/lib\libstdc++.a(fundamental_type_info.o)
 .group         0x00000000        0x8 c:/logicielge1/altera/13.0sp1/nios2eds/bin/gnu/h-i686-mingw32/bin/../lib/gcc/nios2-elf/4.1.2/../../../../nios2-elf/lib\libstdc++.a(fundamental_type_info.o)
 .group         0x00000000        0x8 c:/logicielge1/altera/13.0sp1/nios2eds/bin/gnu/h-i686-mingw32/bin/../lib/gcc/nios2-elf/4.1.2/../../../../nios2-elf/lib\libstdc++.a(fundamental_type_info.o)
 .group         0x00000000        0x8 c:/logicielge1/altera/13.0sp1/nios2eds/bin/gnu/h-i686-mingw32/bin/../lib/gcc/nios2-elf/4.1.2/../../../../nios2-elf/lib\libstdc++.a(fundamental_type_info.o)
 .group         0x00000000        0x8 c:/logicielge1/altera/13.0sp1/nios2eds/bin/gnu/h-i686-mingw32/bin/../lib/gcc/nios2-elf/4.1.2/../../../../nios2-elf/lib\libstdc++.a(fundamental_type_info.o)
 .group         0x00000000        0x8 c:/logicielge1/altera/13.0sp1/nios2eds/bin/gnu/h-i686-mingw32/bin/../lib/gcc/nios2-elf/4.1.2/../../../../nios2-elf/lib\libstdc++.a(fundamental_type_info.o)
 .group         0x00000000        0x8 c:/logicielge1/altera/13.0sp1/nios2eds/bin/gnu/h-i686-mingw32/bin/../lib/gcc/nios2-elf/4.1.2/../../../../nios2-elf/lib\libstdc++.a(fundamental_type_info.o)
 .group         0x00000000        0x8 c:/logicielge1/altera/13.0sp1/nios2eds/bin/gnu/h-i686-mingw32/bin/../lib/gcc/nios2-elf/4.1.2/../../../../nios2-elf/lib\libstdc++.a(fundamental_type_info.o)
 .group         0x00000000        0x8 c:/logicielge1/altera/13.0sp1/nios2eds/bin/gnu/h-i686-mingw32/bin/../lib/gcc/nios2-elf/4.1.2/../../../../nios2-elf/lib\libstdc++.a(fundamental_type_info.o)
 .group         0x00000000        0x8 c:/logicielge1/altera/13.0sp1/nios2eds/bin/gnu/h-i686-mingw32/bin/../lib/gcc/nios2-elf/4.1.2/../../../../nios2-elf/lib\libstdc++.a(fundamental_type_info.o)
 .group         0x00000000        0x8 c:/logicielge1/altera/13.0sp1/nios2eds/bin/gnu/h-i686-mingw32/bin/../lib/gcc/nios2-elf/4.1.2/../../../../nios2-elf/lib\libstdc++.a(fundamental_type_info.o)
 .group         0x00000000        0x8 c:/logicielge1/altera/13.0sp1/nios2eds/bin/gnu/h-i686-mingw32/bin/../lib/gcc/nios2-elf/4.1.2/../../../../nios2-elf/lib\libstdc++.a(fundamental_type_info.o)
 .group         0x00000000        0x8 c:/logicielge1/altera/13.0sp1/nios2eds/bin/gnu/h-i686-mingw32/bin/../lib/gcc/nios2-elf/4.1.2/../../../../nios2-elf/lib\libstdc++.a(fundamental_type_info.o)
 .group         0x00000000        0x8 c:/logicielge1/altera/13.0sp1/nios2eds/bin/gnu/h-i686-mingw32/bin/../lib/gcc/nios2-elf/4.1.2/../../../../nios2-elf/lib\libstdc++.a(fundamental_type_info.o)
 .group         0x00000000        0x8 c:/logicielge1/altera/13.0sp1/nios2eds/bin/gnu/h-i686-mingw32/bin/../lib/gcc/nios2-elf/4.1.2/../../../../nios2-elf/lib\libstdc++.a(fundamental_type_info.o)
 .group         0x00000000        0x8 c:/logicielge1/altera/13.0sp1/nios2eds/bin/gnu/h-i686-mingw32/bin/../lib/gcc/nios2-elf/4.1.2/../../../../nios2-elf/lib\libstdc++.a(fundamental_type_info.o)
 .group         0x00000000        0x8 c:/logicielge1/altera/13.0sp1/nios2eds/bin/gnu/h-i686-mingw32/bin/../lib/gcc/nios2-elf/4.1.2/../../../../nios2-elf/lib\libstdc++.a(fundamental_type_info.o)
 .group         0x00000000        0x8 c:/logicielge1/altera/13.0sp1/nios2eds/bin/gnu/h-i686-mingw32/bin/../lib/gcc/nios2-elf/4.1.2/../../../../nios2-elf/lib\libstdc++.a(fundamental_type_info.o)
 .group         0x00000000        0x8 c:/logicielge1/altera/13.0sp1/nios2eds/bin/gnu/h-i686-mingw32/bin/../lib/gcc/nios2-elf/4.1.2/../../../../nios2-elf/lib\libstdc++.a(fundamental_type_info.o)
 .group         0x00000000        0x8 c:/logicielge1/altera/13.0sp1/nios2eds/bin/gnu/h-i686-mingw32/bin/../lib/gcc/nios2-elf/4.1.2/../../../../nios2-elf/lib\libstdc++.a(fundamental_type_info.o)
 .group         0x00000000        0x8 c:/logicielge1/altera/13.0sp1/nios2eds/bin/gnu/h-i686-mingw32/bin/../lib/gcc/nios2-elf/4.1.2/../../../../nios2-elf/lib\libstdc++.a(fundamental_type_info.o)
 .group         0x00000000        0x8 c:/logicielge1/altera/13.0sp1/nios2eds/bin/gnu/h-i686-mingw32/bin/../lib/gcc/nios2-elf/4.1.2/../../../../nios2-elf/lib\libstdc++.a(fundamental_type_info.o)
 .group         0x00000000        0x8 c:/logicielge1/altera/13.0sp1/nios2eds/bin/gnu/h-i686-mingw32/bin/../lib/gcc/nios2-elf/4.1.2/../../../../nios2-elf/lib\libstdc++.a(fundamental_type_info.o)
 .group         0x00000000        0x8 c:/logicielge1/altera/13.0sp1/nios2eds/bin/gnu/h-i686-mingw32/bin/../lib/gcc/nios2-elf/4.1.2/../../../../nios2-elf/lib\libstdc++.a(fundamental_type_info.o)
 .group         0x00000000        0x8 c:/logicielge1/altera/13.0sp1/nios2eds/bin/gnu/h-i686-mingw32/bin/../lib/gcc/nios2-elf/4.1.2/../../../../nios2-elf/lib\libstdc++.a(fundamental_type_info.o)
 .group         0x00000000        0x8 c:/logicielge1/altera/13.0sp1/nios2eds/bin/gnu/h-i686-mingw32/bin/../lib/gcc/nios2-elf/4.1.2/../../../../nios2-elf/lib\libstdc++.a(fundamental_type_info.o)
 .group         0x00000000        0x8 c:/logicielge1/altera/13.0sp1/nios2eds/bin/gnu/h-i686-mingw32/bin/../lib/gcc/nios2-elf/4.1.2/../../../../nios2-elf/lib\libstdc++.a(fundamental_type_info.o)
 .group         0x00000000        0x8 c:/logicielge1/altera/13.0sp1/nios2eds/bin/gnu/h-i686-mingw32/bin/../lib/gcc/nios2-elf/4.1.2/../../../../nios2-elf/lib\libstdc++.a(fundamental_type_info.o)
 .group         0x00000000        0x8 c:/logicielge1/altera/13.0sp1/nios2eds/bin/gnu/h-i686-mingw32/bin/../lib/gcc/nios2-elf/4.1.2/../../../../nios2-elf/lib\libstdc++.a(fundamental_type_info.o)
 .group         0x00000000        0x8 c:/logicielge1/altera/13.0sp1/nios2eds/bin/gnu/h-i686-mingw32/bin/../lib/gcc/nios2-elf/4.1.2/../../../../nios2-elf/lib\libstdc++.a(fundamental_type_info.o)
 .group         0x00000000        0x8 c:/logicielge1/altera/13.0sp1/nios2eds/bin/gnu/h-i686-mingw32/bin/../lib/gcc/nios2-elf/4.1.2/../../../../nios2-elf/lib\libstdc++.a(fundamental_type_info.o)
 .group         0x00000000        0x8 c:/logicielge1/altera/13.0sp1/nios2eds/bin/gnu/h-i686-mingw32/bin/../lib/gcc/nios2-elf/4.1.2/../../../../nios2-elf/lib\libstdc++.a(fundamental_type_info.o)
 .group         0x00000000        0x8 c:/logicielge1/altera/13.0sp1/nios2eds/bin/gnu/h-i686-mingw32/bin/../lib/gcc/nios2-elf/4.1.2/../../../../nios2-elf/lib\libstdc++.a(fundamental_type_info.o)
 .group         0x00000000        0x8 c:/logicielge1/altera/13.0sp1/nios2eds/bin/gnu/h-i686-mingw32/bin/../lib/gcc/nios2-elf/4.1.2/../../../../nios2-elf/lib\libstdc++.a(fundamental_type_info.o)
 .group         0x00000000        0x8 c:/logicielge1/altera/13.0sp1/nios2eds/bin/gnu/h-i686-mingw32/bin/../lib/gcc/nios2-elf/4.1.2/../../../../nios2-elf/lib\libstdc++.a(new_handler.o)
 .group         0x00000000        0x8 c:/logicielge1/altera/13.0sp1/nios2eds/bin/gnu/h-i686-mingw32/bin/../lib/gcc/nios2-elf/4.1.2/../../../../nios2-elf/lib\libstdc++.a(new_handler.o)
 .group         0x00000000        0x8 c:/logicielge1/altera/13.0sp1/nios2eds/bin/gnu/h-i686-mingw32/bin/../lib/gcc/nios2-elf/4.1.2/../../../../nios2-elf/lib\libstdc++.a(new_handler.o)
 .group         0x00000000        0x8 c:/logicielge1/altera/13.0sp1/nios2eds/bin/gnu/h-i686-mingw32/bin/../lib/gcc/nios2-elf/4.1.2/../../../../nios2-elf/lib\libstdc++.a(tinfo.o)
 .group         0x00000000        0x8 c:/logicielge1/altera/13.0sp1/nios2eds/bin/gnu/h-i686-mingw32/bin/../lib/gcc/nios2-elf/4.1.2/../../../../nios2-elf/lib\libstdc++.a(tinfo.o)
 .group         0x00000000        0x8 c:/logicielge1/altera/13.0sp1/nios2eds/bin/gnu/h-i686-mingw32/bin/../lib/gcc/nios2-elf/4.1.2/../../../../nios2-elf/lib\libstdc++.a(tinfo.o)
 .group         0x00000000        0x8 c:/logicielge1/altera/13.0sp1/nios2eds/bin/gnu/h-i686-mingw32/bin/../lib/gcc/nios2-elf/4.1.2/../../../../nios2-elf/lib\libstdc++.a(pointer_type_info.o)
 .group         0x00000000        0x8 c:/logicielge1/altera/13.0sp1/nios2eds/bin/gnu/h-i686-mingw32/bin/../lib/gcc/nios2-elf/4.1.2/../../../../nios2-elf/lib\libstdc++.a(pointer_type_info.o)
 .group         0x00000000        0x8 c:/logicielge1/altera/13.0sp1/nios2eds/bin/gnu/h-i686-mingw32/bin/../lib/gcc/nios2-elf/4.1.2/../../../../nios2-elf/lib\libstdc++.a(pointer_type_info.o)
 .group         0x00000000        0x8 c:/logicielge1/altera/13.0sp1/nios2eds/bin/gnu/h-i686-mingw32/bin/../lib/gcc/nios2-elf/4.1.2/../../../../nios2-elf/lib\libstdc++.a(pbase_type_info.o)
 .group         0x00000000        0x8 c:/logicielge1/altera/13.0sp1/nios2eds/bin/gnu/h-i686-mingw32/bin/../lib/gcc/nios2-elf/4.1.2/../../../../nios2-elf/lib\libstdc++.a(pbase_type_info.o)
 .group         0x00000000        0x8 c:/logicielge1/altera/13.0sp1/nios2eds/bin/gnu/h-i686-mingw32/bin/../lib/gcc/nios2-elf/4.1.2/../../../../nios2-elf/lib\libstdc++.a(pbase_type_info.o)
 .group         0x00000000        0x8 c:/logicielge1/altera/13.0sp1/nios2eds/bin/gnu/h-i686-mingw32/bin/../lib/gcc/nios2-elf/4.1.2/../../../../nios2-elf/lib\libstdc++.a(pbase_type_info.o)

Memory Configuration

Name             Origin             Length             Attributes
sdram_controller 0x00800000         0x00800000
reset            0x01004000         0x00000020
onchip_memory    0x01004020         0x000027e0
*default*        0x00000000         0xffffffff

Linker script and memory map

LOAD ../cmv_controller_bsp//obj/HAL/src/crt0.o
LOAD obj/default/FSM.o
LOAD obj/default/controller/PIO.o
LOAD obj/default/controller/PIO_Bus.o
LOAD obj/default/controller/PIO_Pin.o
LOAD obj/default/controller/SPI.o
LOAD obj/default/controller/UART.o
LOAD obj/default/main.o
LOAD c:/logicielge1/altera/13.0sp1/nios2eds/bin/gnu/h-i686-mingw32/bin/../lib/gcc/nios2-elf/4.1.2/../../../../nios2-elf/lib\libstdc++.a
LOAD c:/logicielge1/altera/13.0sp1/nios2eds/bin/gnu/h-i686-mingw32/bin/../lib/gcc/nios2-elf/4.1.2/../../../../nios2-elf/lib\libm.a
LOAD c:/logicielge1/altera/13.0sp1/nios2eds/bin/gnu/h-i686-mingw32/bin/../lib/gcc/nios2-elf/4.1.2\libgcc.a
START GROUP
LOAD c:/logicielge1/altera/13.0sp1/nios2eds/bin/gnu/h-i686-mingw32/bin/../lib/gcc/nios2-elf/4.1.2/../../../../nios2-elf/lib\libc.a
LOAD c:/logicielge1/altera/13.0sp1/nios2eds/bin/gnu/h-i686-mingw32/bin/../lib/gcc/nios2-elf/4.1.2\libgcc.a
LOAD ../cmv_controller_bsp/\libhal_bsp.a
END GROUP
LOAD c:/logicielge1/altera/13.0sp1/nios2eds/bin/gnu/h-i686-mingw32/bin/../lib/gcc/nios2-elf/4.1.2\libgcc.a
                0x00800000                __alt_mem_sdram_controller = 0x800000
                0x01004000                __alt_mem_onchip_memory = 0x1004000

.entry          0x01004000       0x20
 *(.entry)
 .entry         0x01004000       0x20 ../cmv_controller_bsp//obj/HAL/src/crt0.o
                0x01004000                __reset

.exceptions     0x01004020      0x194 load address 0x00800000
                0x01004020                PROVIDE (__ram_exceptions_start, ABSOLUTE (.))
                0x01004020                . = ALIGN (0x20)
 *(.irq)
 *(.exceptions.entry.label)
 .exceptions.entry.label
                0x01004020        0x0 ../cmv_controller_bsp/\libhal_bsp.a(alt_irq_entry.o)
                0x01004020                alt_irq_entry
 .exceptions.entry.label
                0x01004020        0x0 ../cmv_controller_bsp/\libhal_bsp.a(alt_exception_entry.o)
                0x01004020                alt_exception
 *(.exceptions.entry.user)
 *(.exceptions.entry)
 .exceptions.entry
                0x01004020       0x54 ../cmv_controller_bsp/\libhal_bsp.a(alt_exception_entry.o)
 *(.exceptions.irqtest.user)
 *(.exceptions.irqtest)
 .exceptions.irqtest
                0x01004074       0x10 ../cmv_controller_bsp/\libhal_bsp.a(alt_irq_entry.o)
 *(.exceptions.irqhandler.user)
 *(.exceptions.irqhandler)
 .exceptions.irqhandler
                0x01004084        0x4 ../cmv_controller_bsp/\libhal_bsp.a(alt_irq_entry.o)
 *(.exceptions.irqreturn.user)
 *(.exceptions.irqreturn)
 .exceptions.irqreturn
                0x01004088        0x4 ../cmv_controller_bsp/\libhal_bsp.a(alt_irq_entry.o)
 *(.exceptions.notirq.label)
 .exceptions.notirq.label
                0x0100408c        0x0 ../cmv_controller_bsp/\libhal_bsp.a(alt_irq_entry.o)
 *(.exceptions.notirq.user)
 *(.exceptions.notirq)
 .exceptions.notirq
                0x0100408c        0x8 ../cmv_controller_bsp/\libhal_bsp.a(alt_exception_entry.o)
 *(.exceptions.soft.user)
 *(.exceptions.soft)
 *(.exceptions.unknown.user)
 *(.exceptions.unknown)
 .exceptions.unknown
                0x01004094        0x4 ../cmv_controller_bsp/\libhal_bsp.a(alt_exception_entry.o)
 *(.exceptions.exit.label)
 .exceptions.exit.label
                0x01004098        0x0 ../cmv_controller_bsp/\libhal_bsp.a(alt_irq_entry.o)
 .exceptions.exit.label
                0x01004098        0x0 ../cmv_controller_bsp/\libhal_bsp.a(alt_exception_entry.o)
 *(.exceptions.exit.user)
 *(.exceptions.exit)
 .exceptions.exit
                0x01004098       0x54 ../cmv_controller_bsp/\libhal_bsp.a(alt_exception_entry.o)
 *(.exceptions)
 .exceptions    0x010040ec       0xc8 ../cmv_controller_bsp/\libhal_bsp.a(alt_irq_handler.o)
                0x010040ec                alt_irq_handler
                0x010041b4                PROVIDE (__ram_exceptions_end, ABSOLUTE (.))
                0x00800000                PROVIDE (__flash_exceptions_start, LOADADDR (.exceptions))

.text           0x00800194    0x11ea4
                0x00800194                PROVIDE (stext, ABSOLUTE (.))
 *(.interp)
 *(.hash)
 *(.dynsym)
 *(.dynstr)
 *(.gnu.version)
 *(.gnu.version_d)
 *(.gnu.version_r)
 *(.rel.init)
 *(.rela.init)
 *(.rel.text .rel.text.* .rel.gnu.linkonce.t.*)
 *(.rela.text .rela.text.* .rela.gnu.linkonce.t.*)
 *(.rel.fini)
 *(.rela.fini)
 *(.rel.rodata .rel.rodata.* .rel.gnu.linkonce.r.*)
 *(.rela.rodata .rela.rodata.* .rela.gnu.linkonce.r.*)
 *(.rel.data .rel.data.* .rel.gnu.linkonce.d.*)
 *(.rela.data .rela.data.* .rela.gnu.linkonce.d.*)
 *(.rel.tdata .rel.tdata.* .rel.gnu.linkonce.td.*)
 *(.rela.tdata .rela.tdata.* .rela.gnu.linkonce.td.*)
 *(.rel.tbss .rel.tbss.* .rel.gnu.linkonce.tb.*)
 *(.rela.tbss .rela.tbss.* .rela.gnu.linkonce.tb.*)
 *(.rel.ctors)
 *(.rela.ctors)
 *(.rel.dtors)
 *(.rela.dtors)
 *(.rel.got)
 *(.rela.got)
 *(.rel.sdata .rel.sdata.* .rel.gnu.linkonce.s.*)
 *(.rela.sdata .rela.sdata.* .rela.gnu.linkonce.s.*)
 *(.rel.sbss .rel.sbss.* .rel.gnu.linkonce.sb.*)
 *(.rela.sbss .rela.sbss.* .rela.gnu.linkonce.sb.*)
 *(.rel.sdata2 .rel.sdata2.* .rel.gnu.linkonce.s2.*)
 *(.rela.sdata2 .rela.sdata2.* .rela.gnu.linkonce.s2.*)
 *(.rel.sbss2 .rel.sbss2.* .rel.gnu.linkonce.sb2.*)
 *(.rela.sbss2 .rela.sbss2.* .rela.gnu.linkonce.sb2.*)
 *(.rel.bss .rel.bss.* .rel.gnu.linkonce.b.*)
 *(.rela.bss .rela.bss.* .rela.gnu.linkonce.b.*)
 *(.rel.plt)
 *(.rela.plt)
 *(.rel.dyn)
 *(.init)
 *(.plt)
 *(.text .stub .text.* .gnu.linkonce.t.*)
 .text          0x00800194       0x4c ../cmv_controller_bsp//obj/HAL/src/crt0.o
                0x00800194                _start
 .text          0x008001e0      0xb9c obj/default/FSM.o
                0x008001e0                FSM::FSM()
                0x00800218                FSM::FSM()
                0x00800250                FSM::transition()
                0x008002e4                FSM::_unset()
                0x0080036c                FSM::_select_mode()
                0x0080038c                FSM::_wait_request()
                0x008003ac                FSM::_spi_menu()
                0x008003cc                FSM::_spi_read()
                0x008003ec                FSM::_spi_write()
                0x0080040c                FSM::~FSM()
                0x00800464                FSM::~FSM()
                0x008004bc                FSM::~FSM()
                0x00800514                FSM::_init()
                0x00800ce4                FSM::action()
 .text          0x00800d7c      0x2d0 obj/default/controller/PIO.o
                0x00800d7c                PIO::_init_irq()
                0x00800d9c                PIO::getValue()
                0x00800dc8                PIO::setValue(unsigned int)
                0x00800e54                PIO::PIO(unsigned long, unsigned char, PIO::Mode)
                0x00800ed8                PIO::PIO(unsigned long, unsigned char, PIO::Mode)
                0x00800f5c                PIO::~PIO()
                0x00800fac                PIO::~PIO()
                0x00800ffc                PIO::~PIO()
 .text          0x0080104c      0x388 obj/default/controller/PIO_Bus.o
                0x0080104c                PIO_Bus::PIO_Bus(PIO&, unsigned char, unsigned char, unsigned char)
                0x008010d8                PIO_Bus::PIO_Bus(PIO&, unsigned char, unsigned char, unsigned char)
                0x00801164                PIO_Bus::getValue()
                0x008011b8                PIO_Bus::setValue(unsigned int)
                0x00801240                PIO_Bus::allPinTogle()
                0x0080127c                PIO_Bus::allPinOff()
                0x008012b0                PIO_Bus::allPinOn()
                0x008012e4                PIO_Bus::~PIO_Bus()
                0x00801334                PIO_Bus::~PIO_Bus()
                0x00801384                PIO_Bus::~PIO_Bus()
 .text          0x008013d4      0x310 obj/default/controller/PIO_Pin.o
                0x008013d4                PIO_Pin::PIO_Pin(PIO&, unsigned char, unsigned int)
                0x00801434                PIO_Pin::PIO_Pin(PIO&, unsigned char, unsigned int)
                0x00801494                PIO_Pin::~PIO_Pin()
                0x008014e4                PIO_Pin::~PIO_Pin()
                0x00801534                PIO_Pin::~PIO_Pin()
                0x00801584                PIO_Pin::getValue()
                0x008015cc                PIO_Pin::toggle()
                0x00801628                PIO_Pin::off()
                0x00801688                PIO_Pin::on()
 .text          0x008016e4      0x260 obj/default/controller/SPI.o
                0x008016e4                SPI::SPI(unsigned long)
                0x00801724                SPI::SPI(unsigned long)
                0x00801764                SPI::readCMVRegister(unsigned char)
                0x008017d0                SPI::writeCMVRegister(unsigned char, unsigned char)
                0x00801854                SPI::~SPI()
                0x008018a4                SPI::~SPI()
                0x008018f4                SPI::~SPI()
 .text          0x00801944      0xb04 obj/default/controller/UART.o
                0x00801944                UART::outBuffer_isEmpty()
                0x0080197c                UART::inBuffer_isEmpty()
                0x008019b4                UART::buffer_putstr(char const*)
                0x00801a38                UART::buffer_putchar(char)
                0x00801a74                UART::buffer_getchar()
                0x00801ab4                UART::buffer_printf(char const*, ...)
                0x00801c74                UART::send()
                0x00801d28                UART::sendAll()
                0x00801dd4                UART::~UART()
                0x00801e90                UART::~UART()
                0x00801f4c                UART::~UART()
                0x00802008                UART::UART(unsigned long, unsigned long, unsigned int, unsigned int)
                0x00802228                UART::UART(unsigned long, unsigned long, unsigned int, unsigned int)
 .text._ZN4FIFOIcE7isEmptyEv
                0x00802448       0x34 obj/default/controller/UART.o
                0x00802448                FIFO<char>::isEmpty()
 .text._ZN4FIFOIcE6isFullEv
                0x0080247c       0x74 obj/default/controller/UART.o
                0x0080247c                FIFO<char>::isFull()
 .text._ZN4FIFOIcE4lockEv
                0x008024f0       0x20 obj/default/controller/UART.o
                0x008024f0                FIFO<char>::lock()
 .text._ZN4FIFOIcE6unlockEv
                0x00802510       0x20 obj/default/controller/UART.o
                0x00802510                FIFO<char>::unlock()
 .text._ZN4FIFOIcE21_triggerFullConditionEv
                0x00802530       0x40 obj/default/controller/UART.o
                0x00802530                FIFO<char>::_triggerFullCondition()
 .text._ZN4FIFOIcE4pushEc
                0x00802570       0x88 obj/default/controller/UART.o
                0x00802570                FIFO<char>::push(char)
 .text._ZN4FIFOIcE22_triggerEmptyConditionEv
                0x008025f8       0x40 obj/default/controller/UART.o
                0x008025f8                FIFO<char>::_triggerEmptyCondition()
 .text._ZN4FIFOIcE4pullEv
                0x00802638       0x84 obj/default/controller/UART.o
                0x00802638                FIFO<char>::pull()
 .text._ZN4FIFOIcEC1Ej
                0x008026bc       0xc0 obj/default/controller/UART.o
                0x008026bc                FIFO<char>::FIFO(unsigned int)
 .text._ZN4FIFOIcED0Ev
                0x0080277c       0x6c obj/default/controller/UART.o
                0x0080277c                FIFO<char>::~FIFO()
 .text._ZN4FIFOIcED1Ev
                0x008027e8       0x6c obj/default/controller/UART.o
                0x008027e8                FIFO<char>::~FIFO()
 .text          0x00802854      0x180 obj/default/main.o
                0x00802854                main
 .text          0x008029d4      0x148 c:/logicielge1/altera/13.0sp1/nios2eds/bin/gnu/h-i686-mingw32/bin/../lib/gcc/nios2-elf/4.1.2/../../../../nios2-elf/lib\libstdc++.a(eh_throw.o)
                0x008029d4                __cxa_rethrow
                0x00802a48                __cxa_throw
 .text          0x00802b1c        0x0 c:/logicielge1/altera/13.0sp1/nios2eds/bin/gnu/h-i686-mingw32/bin/../lib/gcc/nios2-elf/4.1.2/../../../../nios2-elf/lib\libstdc++.a(eh_term_handler.o)
 .text          0x00802b1c       0xa0 c:/logicielge1/altera/13.0sp1/nios2eds/bin/gnu/h-i686-mingw32/bin/../lib/gcc/nios2-elf/4.1.2/../../../../nios2-elf/lib\libstdc++.a(new_opv.o)
                0x00802b1c                operator new[](unsigned long)
 .text          0x00802bbc      0x1e4 c:/logicielge1/altera/13.0sp1/nios2eds/bin/gnu/h-i686-mingw32/bin/../lib/gcc/nios2-elf/4.1.2/../../../../nios2-elf/lib\libstdc++.a(eh_catch.o)
                0x00802bbc                __cxa_get_exception_ptr
                0x00802bc4                std::uncaught_exception()
                0x00802be4                __cxa_end_catch
                0x00802c88                __cxa_begin_catch
 .text          0x00802da0        0xc c:/logicielge1/altera/13.0sp1/nios2eds/bin/gnu/h-i686-mingw32/bin/../lib/gcc/nios2-elf/4.1.2/../../../../nios2-elf/lib\libstdc++.a(del_op.o)
                0x00802da0                operator delete(void*)
 .text          0x00802dac        0x4 c:/logicielge1/altera/13.0sp1/nios2eds/bin/gnu/h-i686-mingw32/bin/../lib/gcc/nios2-elf/4.1.2/../../../../nios2-elf/lib\libstdc++.a(del_opv.o)
                0x00802dac                operator delete[](void*)
 .text          0x00802db0        0x0 c:/logicielge1/altera/13.0sp1/nios2eds/bin/gnu/h-i686-mingw32/bin/../lib/gcc/nios2-elf/4.1.2/../../../../nios2-elf/lib\libstdc++.a(eh_unex_handler.o)
 .text          0x00802db0      0xbec c:/logicielge1/altera/13.0sp1/nios2eds/bin/gnu/h-i686-mingw32/bin/../lib/gcc/nios2-elf/4.1.2/../../../../nios2-elf/lib\libstdc++.a(eh_personality.o)
                0x0080333c                __cxa_call_unexpected
                0x008034bc                __gxx_personality_sj0
 .text          0x0080399c      0x1bc c:/logicielge1/altera/13.0sp1/nios2eds/bin/gnu/h-i686-mingw32/bin/../lib/gcc/nios2-elf/4.1.2/../../../../nios2-elf/lib\libstdc++.a(class_type_info.o)
                0x0080399c                __cxxabiv1::__class_type_info::__do_upcast(__cxxabiv1::__class_type_info const*, void**) const
                0x00803a08                __cxxabiv1::__class_type_info::__do_find_public_src(long, void const*, __cxxabiv1::__class_type_info const*, void const*) const
                0x00803a28                __cxxabiv1::__class_type_info::~__class_type_info()
                0x00803a5c                __cxxabiv1::__class_type_info::~__class_type_info()
                0x00803a6c                __cxxabiv1::__class_type_info::~__class_type_info()
                0x00803a7c                __cxxabiv1::__class_type_info::__do_catch(std::type_info const*, void**, unsigned int) const
                0x00803adc                __cxxabiv1::__class_type_info::__do_upcast(__cxxabiv1::__class_type_info const*, void const*, __cxxabiv1::__class_type_info::__upcast_result&) const
                0x00803b0c                __cxxabiv1::__class_type_info::__do_dyncast(long, __cxxabiv1::__class_type_info::__sub_kind, __cxxabiv1::__class_type_info const*, void const*, __cxxabiv1::__class_type_info const*, void const*, __cxxabiv1::__class_type_info::__dyncast_result&) const
 .text          0x00803b58      0x1c8 c:/logicielge1/altera/13.0sp1/nios2eds/bin/gnu/h-i686-mingw32/bin/../lib/gcc/nios2-elf/4.1.2/../../../../nios2-elf/lib\libstdc++.a(si_class_type_info.o)
                0x00803b58                __cxxabiv1::__si_class_type_info::__do_upcast(__cxxabiv1::__class_type_info const*, void const*, __cxxabiv1::__class_type_info::__upcast_result&) const
                0x00803bd0                __cxxabiv1::__si_class_type_info::~__si_class_type_info()
                0x00803c04                __cxxabiv1::__si_class_type_info::~__si_class_type_info()
                0x00803c14                __cxxabiv1::__si_class_type_info::~__si_class_type_info()
                0x00803c24                __cxxabiv1::__si_class_type_info::__do_find_public_src(long, void const*, __cxxabiv1::__class_type_info const*, void const*) const
                0x00803c58                __cxxabiv1::__si_class_type_info::__do_dyncast(long, __cxxabiv1::__class_type_info::__sub_kind, __cxxabiv1::__class_type_info const*, void const*, __cxxabiv1::__class_type_info const*, void const*, __cxxabiv1::__class_type_info::__dyncast_result&) const
 .text          0x00803d20       0x10 c:/logicielge1/altera/13.0sp1/nios2eds/bin/gnu/h-i686-mingw32/bin/../lib/gcc/nios2-elf/4.1.2/../../../../nios2-elf/lib\libstdc++.a(eh_globals.o)
                0x00803d20                __cxa_get_globals_fast
                0x00803d28                __cxa_get_globals
 .text          0x00803d30      0x10c c:/logicielge1/altera/13.0sp1/nios2eds/bin/gnu/h-i686-mingw32/bin/../lib/gcc/nios2-elf/4.1.2/../../../../nios2-elf/lib\libstdc++.a(eh_terminate.o)
                0x00803d30                std::set_terminate(void (*)())
                0x00803d44                std::set_unexpected(void (*)())
                0x00803d58                __cxxabiv1::__terminate(void (*)())
                0x00803dfc                std::terminate()
                0x00803e14                __cxxabiv1::__unexpected(void (*)())
                0x00803e24                std::unexpected()
 .text          0x00803e3c      0x100 c:/logicielge1/altera/13.0sp1/nios2eds/bin/gnu/h-i686-mingw32/bin/../lib/gcc/nios2-elf/4.1.2/../../../../nios2-elf/lib\libstdc++.a(new_op.o)
                0x00803e3c                operator new(unsigned long)
 .text          0x00803f3c       0x44 c:/logicielge1/altera/13.0sp1/nios2eds/bin/gnu/h-i686-mingw32/bin/../lib/gcc/nios2-elf/4.1.2/../../../../nios2-elf/lib\libstdc++.a(eh_call.o)
                0x00803f3c                __cxa_call_terminate
 .text          0x00803f80       0x94 c:/logicielge1/altera/13.0sp1/nios2eds/bin/gnu/h-i686-mingw32/bin/../lib/gcc/nios2-elf/4.1.2/../../../../nios2-elf/lib\libstdc++.a(eh_exception.o)
                0x00803f80                std::exception::what() const
                0x00803f90                std::exception::~exception()
                0x00803fa0                std::exception::~exception()
                0x00803fb0                std::exception::~exception()
                0x00803fc0                std::bad_exception::~bad_exception()
                0x00803ff4                std::bad_exception::~bad_exception()
                0x00804004                std::bad_exception::~bad_exception()
 .text          0x00804014       0x54 c:/logicielge1/altera/13.0sp1/nios2eds/bin/gnu/h-i686-mingw32/bin/../lib/gcc/nios2-elf/4.1.2/../../../../nios2-elf/lib\libstdc++.a(fundamental_type_info.o)
                0x00804014                __cxxabiv1::__fundamental_type_info::~__fundamental_type_info()
                0x00804048                __cxxabiv1::__fundamental_type_info::~__fundamental_type_info()
                0x00804058                __cxxabiv1::__fundamental_type_info::~__fundamental_type_info()
 .text          0x00804068       0x60 c:/logicielge1/altera/13.0sp1/nios2eds/bin/gnu/h-i686-mingw32/bin/../lib/gcc/nios2-elf/4.1.2/../../../../nios2-elf/lib\libstdc++.a(new_handler.o)
                0x00804068                std::set_new_handler(void (*)())
                0x00804074                std::bad_alloc::~bad_alloc()
                0x008040a8                std::bad_alloc::~bad_alloc()
                0x008040b8                std::bad_alloc::~bad_alloc()
 .text          0x008040c8      0x174 c:/logicielge1/altera/13.0sp1/nios2eds/bin/gnu/h-i686-mingw32/bin/../lib/gcc/nios2-elf/4.1.2/../../../../nios2-elf/lib\libstdc++.a(eh_alloc.o)
                0x008040c8                __cxa_free_exception
                0x00804108                __cxa_allocate_exception
 .text          0x0080423c       0x58 c:/logicielge1/altera/13.0sp1/nios2eds/bin/gnu/h-i686-mingw32/bin/../lib/gcc/nios2-elf/4.1.2/../../../../nios2-elf/lib\libstdc++.a(tinfo.o)
                0x0080423c                std::type_info::__is_pointer_p() const
                0x00804244                std::type_info::__is_function_p() const
                0x0080424c                std::type_info::__do_catch(std::type_info const*, void**, unsigned int) const
                0x0080425c                std::type_info::__do_upcast(__cxxabiv1::__class_type_info const*, void**) const
                0x00804264                std::type_info::~type_info()
                0x00804274                std::type_info::~type_info()
                0x00804284                std::type_info::~type_info()
 .text          0x00804294       0xdc c:/logicielge1/altera/13.0sp1/nios2eds/bin/gnu/h-i686-mingw32/bin/../lib/gcc/nios2-elf/4.1.2/../../../../nios2-elf/lib\libstdc++.a(pointer_type_info.o)
                0x00804294                __cxxabiv1::__pointer_type_info::__is_pointer_p() const
                0x0080429c                __cxxabiv1::__pointer_type_info::__pointer_catch(__cxxabiv1::__pbase_type_info const*, void**, unsigned int) const
                0x0080431c                __cxxabiv1::__pointer_type_info::~__pointer_type_info()
                0x00804350                __cxxabiv1::__pointer_type_info::~__pointer_type_info()
                0x00804360                __cxxabiv1::__pointer_type_info::~__pointer_type_info()
 .text          0x00804370      0x104 c:/logicielge1/altera/13.0sp1/nios2eds/bin/gnu/h-i686-mingw32/bin/../lib/gcc/nios2-elf/4.1.2/../../../../nios2-elf/lib\libstdc++.a(pbase_type_info.o)
                0x00804370                __cxxabiv1::__pbase_type_info::__do_catch(std::type_info const*, void**, unsigned int) const
                0x00804420                __cxxabiv1::__pbase_type_info::~__pbase_type_info()
                0x00804454                __cxxabiv1::__pbase_type_info::~__pbase_type_info()
                0x00804464                __cxxabiv1::__pbase_type_info::~__pbase_type_info()
 .text._ZNK10__cxxabiv117__pbase_type_info15__pointer_catchEPKS0_PPvj
                0x00804474       0x30 c:/logicielge1/altera/13.0sp1/nios2eds/bin/gnu/h-i686-mingw32/bin/../lib/gcc/nios2-elf/4.1.2/../../../../nios2-elf/lib\libstdc++.a(pbase_type_info.o)
                0x00804474                __cxxabiv1::__pbase_type_info::__pointer_catch(__cxxabiv1::__pbase_type_info const*, void**, unsigned int) const
 .text          0x008044a4      0x548 c:/logicielge1/altera/13.0sp1/nios2eds/bin/gnu/h-i686-mingw32/bin/../lib/gcc/nios2-elf/4.1.2\libgcc.a(unwind-sjlj.o)
                0x008044a4                _Unwind_SjLj_Register
                0x008044b4                _Unwind_SjLj_Unregister
                0x008044c0                _Unwind_GetGR
                0x008044d8                _Unwind_GetCFA
                0x008044ec                _Unwind_SetGR
                0x00804504                _Unwind_GetIP
                0x00804514                _Unwind_GetIPInfo
                0x00804528                _Unwind_SetIP
                0x00804538                _Unwind_GetLanguageSpecificData
                0x00804544                _Unwind_GetRegionStart
                0x0080454c                _Unwind_FindEnclosingFunction
                0x00804554                _Unwind_GetDataRelBase
                0x0080455c                _Unwind_GetTextRelBase
                0x00804664                _Unwind_DeleteException
                0x00804770                _Unwind_SjLj_Resume
                0x008047cc                _Unwind_SjLj_RaiseException
                0x008048c4                _Unwind_SjLj_ForcedUnwind
                0x00804914                _Unwind_Backtrace
                0x00804994                _Unwind_SjLj_Resume_or_Rethrow
 .text          0x008049ec       0x18 c:/logicielge1/altera/13.0sp1/nios2eds/bin/gnu/h-i686-mingw32/bin/../lib/gcc/nios2-elf/4.1.2/../../../../nios2-elf/lib\libc.a(lib_a-abort.o)
                0x008049ec                abort
 .text          0x00804a04       0x28 c:/logicielge1/altera/13.0sp1/nios2eds/bin/gnu/h-i686-mingw32/bin/../lib/gcc/nios2-elf/4.1.2/../../../../nios2-elf/lib\libc.a(lib_a-malloc.o)
                0x00804a04                free
                0x00804a18                malloc
 .text          0x00804a2c      0x740 c:/logicielge1/altera/13.0sp1/nios2eds/bin/gnu/h-i686-mingw32/bin/../lib/gcc/nios2-elf/4.1.2/../../../../nios2-elf/lib\libc.a(lib_a-mallocr.o)
                0x00804a2c                _malloc_r
 .text          0x0080516c       0x98 c:/logicielge1/altera/13.0sp1/nios2eds/bin/gnu/h-i686-mingw32/bin/../lib/gcc/nios2-elf/4.1.2/../../../../nios2-elf/lib\libc.a(lib_a-memset.o)
                0x0080516c                memset
 .text          0x00805204       0x78 c:/logicielge1/altera/13.0sp1/nios2eds/bin/gnu/h-i686-mingw32/bin/../lib/gcc/nios2-elf/4.1.2/../../../../nios2-elf/lib\libc.a(lib_a-printf.o)
                0x00805204                printf
                0x00805248                _printf_r
 .text          0x0080527c       0x70 c:/logicielge1/altera/13.0sp1/nios2eds/bin/gnu/h-i686-mingw32/bin/../lib/gcc/nios2-elf/4.1.2/../../../../nios2-elf/lib\libc.a(lib_a-sbrkr.o)
                0x0080527c                _sbrk_r
 .text          0x008052ec      0x2d8 c:/logicielge1/altera/13.0sp1/nios2eds/bin/gnu/h-i686-mingw32/bin/../lib/gcc/nios2-elf/4.1.2/../../../../nios2-elf/lib\libc.a(lib_a-signal.o)
                0x008052ec                _raise_r
                0x008053b8                raise
                0x008053cc                _init_signal_r
                0x00805430                _init_signal
                0x00805440                __sigtramp_r
                0x008054f4                __sigtramp
                0x00805508                _signal_r
                0x008055a8                signal
 .text          0x008055c4       0x78 c:/logicielge1/altera/13.0sp1/nios2eds/bin/gnu/h-i686-mingw32/bin/../lib/gcc/nios2-elf/4.1.2/../../../../nios2-elf/lib\libc.a(lib_a-signalr.o)
                0x008055c4                _getpid_r
                0x008055c8                _kill_r
 .text          0x0080563c       0x74 c:/logicielge1/altera/13.0sp1/nios2eds/bin/gnu/h-i686-mingw32/bin/../lib/gcc/nios2-elf/4.1.2/../../../../nios2-elf/lib\libc.a(lib_a-strlen.o)
                0x0080563c                strlen
 .text          0x008056b0     0x1f28 c:/logicielge1/altera/13.0sp1/nios2eds/bin/gnu/h-i686-mingw32/bin/../lib/gcc/nios2-elf/4.1.2/../../../../nios2-elf/lib\libc.a(lib_a-vfprintf.o)
                0x00805708                ___vfprintf_internal_r
                0x008075b4                __vfprintf_internal
 .text          0x008075d8       0xf4 c:/logicielge1/altera/13.0sp1/nios2eds/bin/gnu/h-i686-mingw32/bin/../lib/gcc/nios2-elf/4.1.2/../../../../nios2-elf/lib\libc.a(lib_a-vsnprintf.o)
                0x008075d8                _vsnprintf_r
                0x0080768c                vsnprintf
 .text          0x008076cc      0x13c c:/logicielge1/altera/13.0sp1/nios2eds/bin/gnu/h-i686-mingw32/bin/../lib/gcc/nios2-elf/4.1.2/../../../../nios2-elf/lib\libc.a(lib_a-wsetup.o)
                0x008076cc                __swsetup_r
 .text          0x00807808     0x17cc c:/logicielge1/altera/13.0sp1/nios2eds/bin/gnu/h-i686-mingw32/bin/../lib/gcc/nios2-elf/4.1.2/../../../../nios2-elf/lib\libc.a(lib_a-dtoa.o)
                0x00807a20                _dtoa_r
 .text          0x00808fd4      0x230 c:/logicielge1/altera/13.0sp1/nios2eds/bin/gnu/h-i686-mingw32/bin/../lib/gcc/nios2-elf/4.1.2/../../../../nios2-elf/lib\libc.a(lib_a-fflush.o)
                0x00808fd4                _fflush_r
                0x008091d0                fflush
 .text          0x00809204      0x2c0 c:/logicielge1/altera/13.0sp1/nios2eds/bin/gnu/h-i686-mingw32/bin/../lib/gcc/nios2-elf/4.1.2/../../../../nios2-elf/lib\libc.a(lib_a-findfp.o)
                0x0080925c                __sfp_lock_acquire
                0x00809260                __sfp_lock_release
                0x00809264                __sinit_lock_acquire
                0x00809268                __sinit_lock_release
                0x0080926c                __sinit
                0x00809320                __fp_unlock_all
                0x00809338                __fp_lock_all
                0x00809350                _cleanup_r
                0x0080935c                _cleanup
                0x0080936c                __sfmoreglue
                0x008093d4                __sfp
 .text          0x008094c4      0x440 c:/logicielge1/altera/13.0sp1/nios2eds/bin/gnu/h-i686-mingw32/bin/../lib/gcc/nios2-elf/4.1.2/../../../../nios2-elf/lib\libc.a(lib_a-freer.o)
                0x008094c4                _malloc_trim_r
                0x008095f0                _free_r
 .text          0x00809904      0x49c c:/logicielge1/altera/13.0sp1/nios2eds/bin/gnu/h-i686-mingw32/bin/../lib/gcc/nios2-elf/4.1.2/../../../../nios2-elf/lib\libc.a(lib_a-fvwrite.o)
                0x00809904                __sfvwrite_r
 .text          0x00809da0      0x180 c:/logicielge1/altera/13.0sp1/nios2eds/bin/gnu/h-i686-mingw32/bin/../lib/gcc/nios2-elf/4.1.2/../../../../nios2-elf/lib\libc.a(lib_a-fwalk.o)
                0x00809da0                _fwalk_reent
                0x00809e68                _fwalk
 .text          0x00809f20        0x0 c:/logicielge1/altera/13.0sp1/nios2eds/bin/gnu/h-i686-mingw32/bin/../lib/gcc/nios2-elf/4.1.2/../../../../nios2-elf/lib\libc.a(lib_a-impure.o)
 .text          0x00809f20        0x0 c:/logicielge1/altera/13.0sp1/nios2eds/bin/gnu/h-i686-mingw32/bin/../lib/gcc/nios2-elf/4.1.2/../../../../nios2-elf/lib\libc.a(lib_a-int_errno.o)
 .text          0x00809f20       0xc4 c:/logicielge1/altera/13.0sp1/nios2eds/bin/gnu/h-i686-mingw32/bin/../lib/gcc/nios2-elf/4.1.2/../../../../nios2-elf/lib\libc.a(lib_a-locale.o)
                0x00809f20                __locale_charset
                0x00809f28                _localeconv_r
                0x00809f34                localeconv
                0x00809f44                _setlocale_r
                0x00809fc8                setlocale
 .text          0x00809fe4      0x194 c:/logicielge1/altera/13.0sp1/nios2eds/bin/gnu/h-i686-mingw32/bin/../lib/gcc/nios2-elf/4.1.2/../../../../nios2-elf/lib\libc.a(lib_a-makebuf.o)
                0x00809fe4                __smakebuf_r
 .text          0x0080a178       0xe4 c:/logicielge1/altera/13.0sp1/nios2eds/bin/gnu/h-i686-mingw32/bin/../lib/gcc/nios2-elf/4.1.2/../../../../nios2-elf/lib\libc.a(lib_a-memchr.o)
                0x0080a178                memchr
 .text          0x0080a25c       0xa0 c:/logicielge1/altera/13.0sp1/nios2eds/bin/gnu/h-i686-mingw32/bin/../lib/gcc/nios2-elf/4.1.2/../../../../nios2-elf/lib\libc.a(lib_a-memcpy.o)
                0x0080a25c                memcpy
 .text          0x0080a2fc       0xe0 c:/logicielge1/altera/13.0sp1/nios2eds/bin/gnu/h-i686-mingw32/bin/../lib/gcc/nios2-elf/4.1.2/../../../../nios2-elf/lib\libc.a(lib_a-memmove.o)
                0x0080a2fc                memmove
 .text          0x0080a3dc      0xff4 c:/logicielge1/altera/13.0sp1/nios2eds/bin/gnu/h-i686-mingw32/bin/../lib/gcc/nios2-elf/4.1.2/../../../../nios2-elf/lib\libc.a(lib_a-mprec.o)
                0x0080a3dc                _Bfree
                0x0080a404                __hi0bits
                0x0080a474                __lo0bits
                0x0080a538                __mcmp
                0x0080a598                __ulp
                0x0080a618                __b2d
                0x0080a738                __ratio
                0x0080a7e8                _mprec_log10
                0x0080a87c                __copybits
                0x0080a8d4                __any_on
                0x0080a95c                _Balloc
                0x0080aa18                __d2b
                0x0080ab94                __mdiff
                0x0080ad20                __lshift
                0x0080ae6c                __multiply
                0x0080b054                __i2b
                0x0080b090                __multadd
                0x0080b190                __pow5mult
                0x0080b2b0                __s2b
 .text          0x0080b3d0      0x5f4 c:/logicielge1/altera/13.0sp1/nios2eds/bin/gnu/h-i686-mingw32/bin/../lib/gcc/nios2-elf/4.1.2/../../../../nios2-elf/lib\libc.a(lib_a-reallocr.o)
                0x0080b3d0                _realloc_r
 .text          0x0080b9c4       0x40 c:/logicielge1/altera/13.0sp1/nios2eds/bin/gnu/h-i686-mingw32/bin/../lib/gcc/nios2-elf/4.1.2/../../../../nios2-elf/lib\libc.a(lib_a-s_isinfd.o)
                0x0080b9c4                __isinfd
 .text          0x0080ba04       0x30 c:/logicielge1/altera/13.0sp1/nios2eds/bin/gnu/h-i686-mingw32/bin/../lib/gcc/nios2-elf/4.1.2/../../../../nios2-elf/lib\libc.a(lib_a-s_isnand.o)
                0x0080ba04                __isnand
 .text          0x0080ba34      0x14c c:/logicielge1/altera/13.0sp1/nios2eds/bin/gnu/h-i686-mingw32/bin/../lib/gcc/nios2-elf/4.1.2/../../../../nios2-elf/lib\libc.a(lib_a-stdio.o)
                0x0080ba34                __sclose
                0x0080ba3c                __sseek
                0x0080baa4                __swrite
                0x0080bb20                __sread
 .text          0x0080bb80       0xbc c:/logicielge1/altera/13.0sp1/nios2eds/bin/gnu/h-i686-mingw32/bin/../lib/gcc/nios2-elf/4.1.2/../../../../nios2-elf/lib\libc.a(lib_a-strcmp.o)
                0x0080bb80                strcmp
 .text          0x0080bc3c       0x78 c:/logicielge1/altera/13.0sp1/nios2eds/bin/gnu/h-i686-mingw32/bin/../lib/gcc/nios2-elf/4.1.2/../../../../nios2-elf/lib\libc.a(lib_a-writer.o)
                0x0080bc3c                _write_r
 .text          0x0080bcb4       0xb4 c:/logicielge1/altera/13.0sp1/nios2eds/bin/gnu/h-i686-mingw32/bin/../lib/gcc/nios2-elf/4.1.2/../../../../nios2-elf/lib\libc.a(lib_a-callocr.o)
                0x0080bcb4                _calloc_r
 .text          0x0080bd68       0x70 c:/logicielge1/altera/13.0sp1/nios2eds/bin/gnu/h-i686-mingw32/bin/../lib/gcc/nios2-elf/4.1.2/../../../../nios2-elf/lib\libc.a(lib_a-closer.o)
                0x0080bd68                _close_r
 .text          0x0080bdd8      0x124 c:/logicielge1/altera/13.0sp1/nios2eds/bin/gnu/h-i686-mingw32/bin/../lib/gcc/nios2-elf/4.1.2/../../../../nios2-elf/lib\libc.a(lib_a-fclose.o)
                0x0080bdd8                _fclose_r
                0x0080bee8                fclose
 .text          0x0080befc       0x74 c:/logicielge1/altera/13.0sp1/nios2eds/bin/gnu/h-i686-mingw32/bin/../lib/gcc/nios2-elf/4.1.2/../../../../nios2-elf/lib\libc.a(lib_a-fstatr.o)
                0x0080befc                _fstat_r
 .text          0x0080bf70       0x70 c:/logicielge1/altera/13.0sp1/nios2eds/bin/gnu/h-i686-mingw32/bin/../lib/gcc/nios2-elf/4.1.2/../../../../nios2-elf/lib\libc.a(lib_a-isattyr.o)
                0x0080bf70                _isatty_r
 .text          0x0080bfe0       0x78 c:/logicielge1/altera/13.0sp1/nios2eds/bin/gnu/h-i686-mingw32/bin/../lib/gcc/nios2-elf/4.1.2/../../../../nios2-elf/lib\libc.a(lib_a-lseekr.o)
                0x0080bfe0                _lseek_r
 .text          0x0080c058       0x78 c:/logicielge1/altera/13.0sp1/nios2eds/bin/gnu/h-i686-mingw32/bin/../lib/gcc/nios2-elf/4.1.2/../../../../nios2-elf/lib\libc.a(lib_a-readr.o)
                0x0080c058                _read_r
 .text          0x0080c0d0      0x5dc c:/logicielge1/altera/13.0sp1/nios2eds/bin/gnu/h-i686-mingw32/bin/../lib/gcc/nios2-elf/4.1.2\libgcc.a(_udivdi3.o)
                0x0080c0d0                __udivdi3
 .text          0x0080c6ac      0x5b0 c:/logicielge1/altera/13.0sp1/nios2eds/bin/gnu/h-i686-mingw32/bin/../lib/gcc/nios2-elf/4.1.2\libgcc.a(_umoddi3.o)
                0x0080c6ac                __umoddi3
 .text          0x0080cc5c      0x504 c:/logicielge1/altera/13.0sp1/nios2eds/bin/gnu/h-i686-mingw32/bin/../lib/gcc/nios2-elf/4.1.2\libgcc.a(_addsub_df.o)
                0x0080d06c                __subdf3
                0x0080d0ec                __adddf3
 .text          0x0080d160      0x3c4 c:/logicielge1/altera/13.0sp1/nios2eds/bin/gnu/h-i686-mingw32/bin/../lib/gcc/nios2-elf/4.1.2\libgcc.a(_mul_df.o)
                0x0080d160                __muldf3
 .text          0x0080d524      0x258 c:/logicielge1/altera/13.0sp1/nios2eds/bin/gnu/h-i686-mingw32/bin/../lib/gcc/nios2-elf/4.1.2\libgcc.a(_div_df.o)
                0x0080d524                __divdf3
 .text          0x0080d77c       0x88 c:/logicielge1/altera/13.0sp1/nios2eds/bin/gnu/h-i686-mingw32/bin/../lib/gcc/nios2-elf/4.1.2\libgcc.a(_eq_df.o)
                0x0080d77c                __eqdf2
 .text          0x0080d804       0x88 c:/logicielge1/altera/13.0sp1/nios2eds/bin/gnu/h-i686-mingw32/bin/../lib/gcc/nios2-elf/4.1.2\libgcc.a(_ne_df.o)
                0x0080d804                __nedf2
 .text          0x0080d88c       0x88 c:/logicielge1/altera/13.0sp1/nios2eds/bin/gnu/h-i686-mingw32/bin/../lib/gcc/nios2-elf/4.1.2\libgcc.a(_gt_df.o)
                0x0080d88c                __gtdf2
 .text          0x0080d914       0x88 c:/logicielge1/altera/13.0sp1/nios2eds/bin/gnu/h-i686-mingw32/bin/../lib/gcc/nios2-elf/4.1.2\libgcc.a(_ge_df.o)
                0x0080d914                __gedf2
 .text          0x0080d99c       0x88 c:/logicielge1/altera/13.0sp1/nios2eds/bin/gnu/h-i686-mingw32/bin/../lib/gcc/nios2-elf/4.1.2\libgcc.a(_lt_df.o)
                0x0080d99c                __ltdf2
 .text          0x0080da24       0xf8 c:/logicielge1/altera/13.0sp1/nios2eds/bin/gnu/h-i686-mingw32/bin/../lib/gcc/nios2-elf/4.1.2\libgcc.a(_si_to_df.o)
                0x0080da24                __floatsidf
 .text          0x0080db1c       0xd8 c:/logicielge1/altera/13.0sp1/nios2eds/bin/gnu/h-i686-mingw32/bin/../lib/gcc/nios2-elf/4.1.2\libgcc.a(_df_to_si.o)
                0x0080db1c                __fixdfsi
 .text          0x0080dbf4        0x0 c:/logicielge1/altera/13.0sp1/nios2eds/bin/gnu/h-i686-mingw32/bin/../lib/gcc/nios2-elf/4.1.2\libgcc.a(_thenan_df.o)
 .text          0x0080dbf4      0x194 c:/logicielge1/altera/13.0sp1/nios2eds/bin/gnu/h-i686-mingw32/bin/../lib/gcc/nios2-elf/4.1.2\libgcc.a(_usi_to_df.o)
                0x0080dbf4                __floatunsidf
 .text          0x0080dd88      0x14c c:/logicielge1/altera/13.0sp1/nios2eds/bin/gnu/h-i686-mingw32/bin/../lib/gcc/nios2-elf/4.1.2\libgcc.a(lib2-divmod.o)
                0x0080de04                __divsi3
                0x0080de64                __modsi3
                0x0080dec4                __udivsi3
                0x0080decc                __umodsi3
 .text          0x0080ded4       0x98 c:/logicielge1/altera/13.0sp1/nios2eds/bin/gnu/h-i686-mingw32/bin/../lib/gcc/nios2-elf/4.1.2\libgcc.a(_muldi3.o)
                0x0080ded4                __muldi3
 .text          0x0080df6c        0x0 c:/logicielge1/altera/13.0sp1/nios2eds/bin/gnu/h-i686-mingw32/bin/../lib/gcc/nios2-elf/4.1.2\libgcc.a(_clz.o)
 .text          0x0080df6c       0x80 c:/logicielge1/altera/13.0sp1/nios2eds/bin/gnu/h-i686-mingw32/bin/../lib/gcc/nios2-elf/4.1.2\libgcc.a(_clzsi2.o)
                0x0080df6c                __clzsi2
 .text          0x0080dfec      0x314 c:/logicielge1/altera/13.0sp1/nios2eds/bin/gnu/h-i686-mingw32/bin/../lib/gcc/nios2-elf/4.1.2\libgcc.a(_pack_df.o)
                0x0080dfec                __pack_d
 .text          0x0080e300      0x138 c:/logicielge1/altera/13.0sp1/nios2eds/bin/gnu/h-i686-mingw32/bin/../lib/gcc/nios2-elf/4.1.2\libgcc.a(_unpack_df.o)
                0x0080e300                __unpack_d
 .text          0x0080e438       0xc8 c:/logicielge1/altera/13.0sp1/nios2eds/bin/gnu/h-i686-mingw32/bin/../lib/gcc/nios2-elf/4.1.2\libgcc.a(_fpcmp_parts_df.o)
                0x0080e438                __fpcmp_parts_d
 .text          0x0080e500      0x15c ../cmv_controller_bsp/\libhal_bsp.a(alt_close.o)
                0x0080e500                close
 .text          0x0080e65c       0x2c ../cmv_controller_bsp/\libhal_bsp.a(alt_dev.o)
 .text          0x0080e688        0x0 ../cmv_controller_bsp/\libhal_bsp.a(alt_errno.o)
 .text          0x0080e688       0x60 ../cmv_controller_bsp/\libhal_bsp.a(alt_exit.o)
                0x0080e6c8                _exit
 .text          0x0080e6e8      0x134 ../cmv_controller_bsp/\libhal_bsp.a(alt_fstat.o)
                0x0080e6e8                fstat
 .text          0x0080e81c       0x20 ../cmv_controller_bsp/\libhal_bsp.a(alt_getpid.o)
                0x0080e81c                getpid
 .text          0x0080e83c      0x1c0 ../cmv_controller_bsp/\libhal_bsp.a(alt_irq_register.o)
                0x0080e83c                alt_irq_register
 .text          0x0080e9fc        0x0 ../cmv_controller_bsp/\libhal_bsp.a(alt_irq_vars.o)
 .text          0x0080e9fc      0x120 ../cmv_controller_bsp/\libhal_bsp.a(alt_isatty.o)
                0x0080e9fc                isatty
 .text          0x0080eb1c      0x1a0 ../cmv_controller_bsp/\libhal_bsp.a(alt_kill.o)
                0x0080eb1c                kill
 .text          0x0080ecbc       0xec ../cmv_controller_bsp/\libhal_bsp.a(alt_load.o)
                0x0080ecbc                alt_load
 .text          0x0080eda8      0x150 ../cmv_controller_bsp/\libhal_bsp.a(alt_lseek.o)
                0x0080eda8                lseek
 .text          0x0080eef8       0x6c ../cmv_controller_bsp/\libhal_bsp.a(alt_main.o)
                0x0080eef8                alt_main
 .text          0x0080ef64       0x40 ../cmv_controller_bsp/\libhal_bsp.a(alt_malloc_lock.o)
                0x0080ef64                __malloc_lock
                0x0080ef84                __malloc_unlock
 .text          0x0080efa4      0x180 ../cmv_controller_bsp/\libhal_bsp.a(alt_read.o)
                0x0080efa4                read
 .text          0x0080f124       0x60 ../cmv_controller_bsp/\libhal_bsp.a(alt_release_fd.o)
                0x0080f124                alt_release_fd
 .text          0x0080f184       0xbc ../cmv_controller_bsp/\libhal_bsp.a(alt_sbrk.o)
                0x0080f184                sbrk
 .text          0x0080f240       0x30 ../cmv_controller_bsp/\libhal_bsp.a(alt_usleep.o)
                0x0080f240                usleep
 .text          0x0080f270      0x180 ../cmv_controller_bsp/\libhal_bsp.a(alt_write.o)
                0x0080f270                write
 .text          0x0080f3f0       0xd0 ../cmv_controller_bsp/\libhal_bsp.a(alt_sys_init.o)
                0x0080f3f0                alt_irq_init
                0x0080f424                alt_sys_init
 .text          0x0080f4c0      0x148 ../cmv_controller_bsp/\libhal_bsp.a(altera_avalon_jtag_uart_fd.o)
                0x0080f4c0                altera_avalon_jtag_uart_read_fd
                0x0080f518                altera_avalon_jtag_uart_write_fd
                0x0080f570                altera_avalon_jtag_uart_close_fd
                0x0080f5b8                altera_avalon_jtag_uart_ioctl_fd
 .text          0x0080f608      0x40c ../cmv_controller_bsp/\libhal_bsp.a(altera_avalon_jtag_uart_init.o)
                0x0080f608                altera_avalon_jtag_uart_init
                0x0080f9a0                altera_avalon_jtag_uart_close
 .text          0x0080fa14       0xf4 ../cmv_controller_bsp/\libhal_bsp.a(altera_avalon_jtag_uart_ioctl.o)
                0x0080fa14                altera_avalon_jtag_uart_ioctl
 .text          0x0080fb08      0x224 ../cmv_controller_bsp/\libhal_bsp.a(altera_avalon_jtag_uart_read.o)
                0x0080fb08                altera_avalon_jtag_uart_read
 .text          0x0080fd2c      0x240 ../cmv_controller_bsp/\libhal_bsp.a(altera_avalon_jtag_uart_write.o)
                0x0080fd2c                altera_avalon_jtag_uart_write
 .text          0x0080ff6c      0x238 ../cmv_controller_bsp/\libhal_bsp.a(altera_avalon_spi.o)
                0x0080ff6c                alt_avalon_spi_command
 .text          0x008101a4       0xf8 ../cmv_controller_bsp/\libhal_bsp.a(altera_avalon_uart_fd.o)
                0x008101a4                altera_avalon_uart_read_fd
                0x008101fc                altera_avalon_uart_write_fd
                0x00810254                altera_avalon_uart_close_fd
 .text          0x0081029c      0x400 ../cmv_controller_bsp/\libhal_bsp.a(altera_avalon_uart_init.o)
                0x0081029c                altera_avalon_uart_init
                0x0081063c                altera_avalon_uart_close
 .text          0x0081069c      0x290 ../cmv_controller_bsp/\libhal_bsp.a(altera_avalon_uart_read.o)
                0x0081069c                altera_avalon_uart_read
 .text          0x0081092c      0x228 ../cmv_controller_bsp/\libhal_bsp.a(altera_avalon_uart_write.o)
                0x0081092c                altera_avalon_uart_write
 .text          0x00810b54      0x154 ../cmv_controller_bsp/\libhal_bsp.a(alt_alarm_start.o)
                0x00810b54                alt_alarm_start
 .text          0x00810ca8      0x14c ../cmv_controller_bsp/\libhal_bsp.a(alt_busy_sleep.o)
                0x00810ca8                alt_busy_sleep
 .text          0x00810df4       0x44 ../cmv_controller_bsp/\libhal_bsp.a(alt_dcache_flush_all.o)
                0x00810df4                alt_dcache_flush_all
 .text          0x00810e38      0x114 ../cmv_controller_bsp/\libhal_bsp.a(alt_dev_llist_insert.o)
                0x00810e38                alt_dev_llist_insert
 .text          0x00810f4c       0x64 ../cmv_controller_bsp/\libhal_bsp.a(alt_do_ctors.o)
                0x00810f4c                _do_ctors
 .text          0x00810fb0       0x64 ../cmv_controller_bsp/\libhal_bsp.a(alt_do_dtors.o)
                0x00810fb0                _do_dtors
 .text          0x00811014       0x30 ../cmv_controller_bsp/\libhal_bsp.a(alt_icache_flush_all.o)
                0x00811014                alt_icache_flush_all
 .text          0x00811044      0x1d4 ../cmv_controller_bsp/\libhal_bsp.a(alt_iic.o)
                0x00811044                alt_ic_isr_register
                0x00811094                alt_ic_irq_enable
                0x00811130                alt_ic_irq_disable
                0x008111d0                alt_ic_irq_enabled
 .text          0x00811218       0xf8 ../cmv_controller_bsp/\libhal_bsp.a(alt_iic_isr_register.o)
                0x00811218                alt_iic_isr_register
 .text          0x00811310      0x13c ../cmv_controller_bsp/\libhal_bsp.a(alt_io_redirect.o)
                0x008113d4                alt_io_redirect
 .text          0x0081144c        0x0 ../cmv_controller_bsp/\libhal_bsp.a(alt_irq_entry.o)
 .text          0x0081144c        0x0 ../cmv_controller_bsp/\libhal_bsp.a(alt_irq_handler.o)
 .text          0x0081144c      0x2c4 ../cmv_controller_bsp/\libhal_bsp.a(alt_open.o)
                0x00811528                open
 .text          0x00811710      0x1a4 ../cmv_controller_bsp/\libhal_bsp.a(alt_tick.o)
                0x00811710                alt_alarm_stop
                0x008117a8                alt_tick
 .text          0x008118b4       0x20 ../cmv_controller_bsp/\libhal_bsp.a(altera_nios2_qsys_irq.o)
                0x008118b4                altera_nios2_qsys_irq_init
 .text          0x008118d4        0x0 ../cmv_controller_bsp/\libhal_bsp.a(alt_exception_entry.o)
 .text          0x008118d4       0x94 ../cmv_controller_bsp/\libhal_bsp.a(alt_find_dev.o)
                0x008118d4                alt_find_dev
 .text          0x00811968      0x120 ../cmv_controller_bsp/\libhal_bsp.a(alt_find_file.o)
                0x00811968                alt_find_file
 .text          0x00811a88       0xb8 ../cmv_controller_bsp/\libhal_bsp.a(alt_get_fd.o)
                0x00811a88                alt_get_fd
 .text          0x00811b40       0x90 ../cmv_controller_bsp/\libhal_bsp.a(alt_icache_flush.o)
                0x00811b40                alt_icache_flush
 .text          0x00811bd0       0x14 c:/logicielge1/altera/13.0sp1/nios2eds/bin/gnu/h-i686-mingw32/bin/../lib/gcc/nios2-elf/4.1.2/../../../../nios2-elf/lib\libc.a(lib_a-atexit.o)
                0x00811bd0                atexit
 .text          0x00811be4       0x38 c:/logicielge1/altera/13.0sp1/nios2eds/bin/gnu/h-i686-mingw32/bin/../lib/gcc/nios2-elf/4.1.2/../../../../nios2-elf/lib\libc.a(lib_a-exit.o)
                0x00811be4                exit
 .text          0x00811c1c       0x74 c:/logicielge1/altera/13.0sp1/nios2eds/bin/gnu/h-i686-mingw32/bin/../lib/gcc/nios2-elf/4.1.2/../../../../nios2-elf/lib\libc.a(lib_a-memcmp.o)
                0x00811c1c                memcmp
 .text          0x00811c90      0x134 c:/logicielge1/altera/13.0sp1/nios2eds/bin/gnu/h-i686-mingw32/bin/../lib/gcc/nios2-elf/4.1.2/../../../../nios2-elf/lib\libc.a(lib_a-__atexit.o)
                0x00811c90                __register_exitproc
 .text          0x00811dc4      0x1b4 c:/logicielge1/altera/13.0sp1/nios2eds/bin/gnu/h-i686-mingw32/bin/../lib/gcc/nios2-elf/4.1.2/../../../../nios2-elf/lib\libc.a(lib_a-__call_atexit.o)
                0x00811dc8                __call_exitprocs
 *(.gnu.warning.*)
 *(.fini)
                0x00811f78                PROVIDE (__etext, ABSOLUTE (.))
                0x00811f78                PROVIDE (_etext, ABSOLUTE (.))
                0x00811f78                PROVIDE (etext, ABSOLUTE (.))
 *(.eh_frame_hdr)
                0x00811f78                . = ALIGN (0x4)
                0x00811f78                PROVIDE (__preinit_array_start, ABSOLUTE (.))
 *(.preinit_array)
                0x00811f78                PROVIDE (__preinit_array_end, ABSOLUTE (.))
                0x00811f78                PROVIDE (__init_array_start, ABSOLUTE (.))
 *(.init_array)
                0x00811f78                PROVIDE (__init_array_end, ABSOLUTE (.))
                0x00811f78                PROVIDE (__fini_array_start, ABSOLUTE (.))
 *(.fini_array)
                0x00811f78                PROVIDE (__fini_array_end, ABSOLUTE (.))
 *(.eh_frame)
 *(.gcc_except_table)
 .gcc_except_table
                0x00811f78       0x1a obj/default/FSM.o
 .gcc_except_table
                0x00811f92       0x16 obj/default/controller/UART.o
 .gcc_except_table
                0x00811fa8       0x14 obj/default/main.o
 .gcc_except_table
                0x00811fbc       0x14 c:/logicielge1/altera/13.0sp1/nios2eds/bin/gnu/h-i686-mingw32/bin/../lib/gcc/nios2-elf/4.1.2/../../../../nios2-elf/lib\libstdc++.a(new_opv.o)
 .gcc_except_table
                0x00811fd0       0x10 c:/logicielge1/altera/13.0sp1/nios2eds/bin/gnu/h-i686-mingw32/bin/../lib/gcc/nios2-elf/4.1.2/../../../../nios2-elf/lib\libstdc++.a(eh_catch.o)
 .gcc_except_table
                0x00811fe0       0x20 c:/logicielge1/altera/13.0sp1/nios2eds/bin/gnu/h-i686-mingw32/bin/../lib/gcc/nios2-elf/4.1.2/../../../../nios2-elf/lib\libstdc++.a(eh_personality.o)
 .gcc_except_table
                0x00812000       0x10 c:/logicielge1/altera/13.0sp1/nios2eds/bin/gnu/h-i686-mingw32/bin/../lib/gcc/nios2-elf/4.1.2/../../../../nios2-elf/lib\libstdc++.a(eh_terminate.o)
 .gcc_except_table
                0x00812010       0x14 c:/logicielge1/altera/13.0sp1/nios2eds/bin/gnu/h-i686-mingw32/bin/../lib/gcc/nios2-elf/4.1.2/../../../../nios2-elf/lib\libstdc++.a(new_op.o)
 .gcc_except_table
                0x00812024       0x10 c:/logicielge1/altera/13.0sp1/nios2eds/bin/gnu/h-i686-mingw32/bin/../lib/gcc/nios2-elf/4.1.2/../../../../nios2-elf/lib\libstdc++.a(eh_alloc.o)
 *(.dynamic)
                0x00812034                PROVIDE (__CTOR_LIST__, ABSOLUTE (.))
 *(.ctors)
 *(SORT(.ctors.*))
 .ctors.65535   0x00812034        0x4 c:/logicielge1/altera/13.0sp1/nios2eds/bin/gnu/h-i686-mingw32/bin/../lib/gcc/nios2-elf/4.1.2/../../../../nios2-elf/lib\libc.a(lib_a-__call_atexit.o)
                0x00812038                PROVIDE (__CTOR_END__, ABSOLUTE (.))
                0x00812038                PROVIDE (__DTOR_LIST__, ABSOLUTE (.))
 *(.dtors)
 *(SORT(.dtors.*))
                0x00812038                PROVIDE (__DTOR_END__, ABSOLUTE (.))
 *(.jcr)
                0x00812038                . = ALIGN (0x4)

.rodata         0x00812038      0x9a8
                0x00812038                PROVIDE (__ram_rodata_start, ABSOLUTE (.))
                0x00812038                . = ALIGN (0x4)
 *(.rodata .rodata.* .gnu.linkonce.r.*)
 .rodata        0x00812038       0xcc obj/default/FSM.o
 .rodata._ZTV3FSM
                0x00812104       0x10 obj/default/FSM.o
                0x00812104                vtable for FSM
 .rodata        0x00812114       0x24 obj/default/controller/PIO.o
 .rodata._ZTV3PIO
                0x00812138       0x14 obj/default/controller/PIO.o
                0x00812138                vtable for PIO
 .rodata._ZTV7PIO_Bus
                0x0081214c       0x10 obj/default/controller/PIO_Bus.o
                0x0081214c                vtable for PIO_Bus
 .rodata._ZTS7PIO_Bus
                0x0081215c        0xc obj/default/controller/PIO_Bus.o
                0x0081215c                typeinfo name for PIO_Bus
 .rodata._ZTV7PIO_Pin
                0x00812168       0x10 obj/default/controller/PIO_Pin.o
                0x00812168                vtable for PIO_Pin
 .rodata._ZTS7PIO_Pin
                0x00812178        0xc obj/default/controller/PIO_Pin.o
                0x00812178                typeinfo name for PIO_Pin
 .rodata._ZTV3SPI
                0x00812184       0x10 obj/default/controller/SPI.o
                0x00812184                vtable for SPI
 .rodata        0x00812194       0x3c obj/default/controller/UART.o
 .rodata._ZTV4UART
                0x008121d0       0x10 obj/default/controller/UART.o
                0x008121d0                vtable for UART
 .rodata._ZTV4FIFOIcE
                0x008121e0       0x18 obj/default/controller/UART.o
                0x008121e0                vtable for FIFO<char>
 .rodata._ZTS4FIFOIcE
                0x008121f8        0xc obj/default/controller/UART.o
                0x008121f8                typeinfo name for FIFO<char>
 .rodata        0x00812204        0x8 obj/default/main.o
 .rodata._ZTVN10__cxxabiv117__class_type_infoE
                0x0081220c       0x2c c:/logicielge1/altera/13.0sp1/nios2eds/bin/gnu/h-i686-mingw32/bin/../lib/gcc/nios2-elf/4.1.2/../../../../nios2-elf/lib\libstdc++.a(class_type_info.o)
                0x0081220c                vtable for __cxxabiv1::__class_type_info
 .rodata._ZTSN10__cxxabiv117__class_type_infoE
                0x00812238       0x24 c:/logicielge1/altera/13.0sp1/nios2eds/bin/gnu/h-i686-mingw32/bin/../lib/gcc/nios2-elf/4.1.2/../../../../nios2-elf/lib\libstdc++.a(class_type_info.o)
                0x00812238                typeinfo name for __cxxabiv1::__class_type_info
 .rodata._ZTIN10__cxxabiv117__class_type_infoE
                0x0081225c        0xc c:/logicielge1/altera/13.0sp1/nios2eds/bin/gnu/h-i686-mingw32/bin/../lib/gcc/nios2-elf/4.1.2/../../../../nios2-elf/lib\libstdc++.a(class_type_info.o)
                0x0081225c                typeinfo for __cxxabiv1::__class_type_info
 .rodata._ZTVN10__cxxabiv120__si_class_type_infoE
                0x00812268       0x2c c:/logicielge1/altera/13.0sp1/nios2eds/bin/gnu/h-i686-mingw32/bin/../lib/gcc/nios2-elf/4.1.2/../../../../nios2-elf/lib\libstdc++.a(si_class_type_info.o)
                0x00812268                vtable for __cxxabiv1::__si_class_type_info
 .rodata._ZTSN10__cxxabiv120__si_class_type_infoE
                0x00812294       0x28 c:/logicielge1/altera/13.0sp1/nios2eds/bin/gnu/h-i686-mingw32/bin/../lib/gcc/nios2-elf/4.1.2/../../../../nios2-elf/lib\libstdc++.a(si_class_type_info.o)
                0x00812294                typeinfo name for __cxxabiv1::__si_class_type_info
 .rodata._ZTIN10__cxxabiv120__si_class_type_infoE
                0x008122bc        0xc c:/logicielge1/altera/13.0sp1/nios2eds/bin/gnu/h-i686-mingw32/bin/../lib/gcc/nios2-elf/4.1.2/../../../../nios2-elf/lib\libstdc++.a(si_class_type_info.o)
                0x008122bc                typeinfo for __cxxabiv1::__si_class_type_info
 .rodata._ZTVSt13bad_exception
                0x008122c8       0x14 c:/logicielge1/altera/13.0sp1/nios2eds/bin/gnu/h-i686-mingw32/bin/../lib/gcc/nios2-elf/4.1.2/../../../../nios2-elf/lib\libstdc++.a(eh_exception.o)
                0x008122c8                vtable for std::bad_exception
 .rodata._ZTVSt9exception
                0x008122dc       0x14 c:/logicielge1/altera/13.0sp1/nios2eds/bin/gnu/h-i686-mingw32/bin/../lib/gcc/nios2-elf/4.1.2/../../../../nios2-elf/lib\libstdc++.a(eh_exception.o)
                0x008122dc                vtable for std::exception
 .rodata._ZTSSt13bad_exception
                0x008122f0       0x14 c:/logicielge1/altera/13.0sp1/nios2eds/bin/gnu/h-i686-mingw32/bin/../lib/gcc/nios2-elf/4.1.2/../../../../nios2-elf/lib\libstdc++.a(eh_exception.o)
                0x008122f0                typeinfo name for std::bad_exception
 .rodata._ZTISt13bad_exception
                0x00812304        0xc c:/logicielge1/altera/13.0sp1/nios2eds/bin/gnu/h-i686-mingw32/bin/../lib/gcc/nios2-elf/4.1.2/../../../../nios2-elf/lib\libstdc++.a(eh_exception.o)
                0x00812304                typeinfo for std::bad_exception
 .rodata._ZTSSt9exception
                0x00812310       0x10 c:/logicielge1/altera/13.0sp1/nios2eds/bin/gnu/h-i686-mingw32/bin/../lib/gcc/nios2-elf/4.1.2/../../../../nios2-elf/lib\libstdc++.a(eh_exception.o)
                0x00812310                typeinfo name for std::exception
 .rodata._ZTVN10__cxxabiv123__fundamental_type_infoE
                0x00812320       0x20 c:/logicielge1/altera/13.0sp1/nios2eds/bin/gnu/h-i686-mingw32/bin/../lib/gcc/nios2-elf/4.1.2/../../../../nios2-elf/lib\libstdc++.a(fundamental_type_info.o)
                0x00812320                vtable for __cxxabiv1::__fundamental_type_info
 .rodata._ZTIPKe
                0x00812340       0x10 c:/logicielge1/altera/13.0sp1/nios2eds/bin/gnu/h-i686-mingw32/bin/../lib/gcc/nios2-elf/4.1.2/../../../../nios2-elf/lib\libstdc++.a(fundamental_type_info.o)
                0x00812340                typeinfo for long double const*
 .rodata._ZTIPe
                0x00812350       0x10 c:/logicielge1/altera/13.0sp1/nios2eds/bin/gnu/h-i686-mingw32/bin/../lib/gcc/nios2-elf/4.1.2/../../../../nios2-elf/lib\libstdc++.a(fundamental_type_info.o)
                0x00812350                typeinfo for long double*
 .rodata._ZTIPKd
                0x00812360       0x10 c:/logicielge1/altera/13.0sp1/nios2eds/bin/gnu/h-i686-mingw32/bin/../lib/gcc/nios2-elf/4.1.2/../../../../nios2-elf/lib\libstdc++.a(fundamental_type_info.o)
                0x00812360                typeinfo for double const*
 .rodata._ZTIPd
                0x00812370       0x10 c:/logicielge1/altera/13.0sp1/nios2eds/bin/gnu/h-i686-mingw32/bin/../lib/gcc/nios2-elf/4.1.2/../../../../nios2-elf/lib\libstdc++.a(fundamental_type_info.o)
                0x00812370                typeinfo for double*
 .rodata._ZTIPKf
                0x00812380       0x10 c:/logicielge1/altera/13.0sp1/nios2eds/bin/gnu/h-i686-mingw32/bin/../lib/gcc/nios2-elf/4.1.2/../../../../nios2-elf/lib\libstdc++.a(fundamental_type_info.o)
                0x00812380                typeinfo for float const*
 .rodata._ZTIPf
                0x00812390       0x10 c:/logicielge1/altera/13.0sp1/nios2eds/bin/gnu/h-i686-mingw32/bin/../lib/gcc/nios2-elf/4.1.2/../../../../nios2-elf/lib\libstdc++.a(fundamental_type_info.o)
                0x00812390                typeinfo for float*
 .rodata._ZTIPKy
                0x008123a0       0x10 c:/logicielge1/altera/13.0sp1/nios2eds/bin/gnu/h-i686-mingw32/bin/../lib/gcc/nios2-elf/4.1.2/../../../../nios2-elf/lib\libstdc++.a(fundamental_type_info.o)
                0x008123a0                typeinfo for unsigned long long const*
 .rodata._ZTIPy
                0x008123b0       0x10 c:/logicielge1/altera/13.0sp1/nios2eds/bin/gnu/h-i686-mingw32/bin/../lib/gcc/nios2-elf/4.1.2/../../../../nios2-elf/lib\libstdc++.a(fundamental_type_info.o)
                0x008123b0                typeinfo for unsigned long long*
 .rodata._ZTIPKx
                0x008123c0       0x10 c:/logicielge1/altera/13.0sp1/nios2eds/bin/gnu/h-i686-mingw32/bin/../lib/gcc/nios2-elf/4.1.2/../../../../nios2-elf/lib\libstdc++.a(fundamental_type_info.o)
                0x008123c0                typeinfo for long long const*
 .rodata._ZTIPx
                0x008123d0       0x10 c:/logicielge1/altera/13.0sp1/nios2eds/bin/gnu/h-i686-mingw32/bin/../lib/gcc/nios2-elf/4.1.2/../../../../nios2-elf/lib\libstdc++.a(fundamental_type_info.o)
                0x008123d0                typeinfo for long long*
 .rodata._ZTIPKm
                0x008123e0       0x10 c:/logicielge1/altera/13.0sp1/nios2eds/bin/gnu/h-i686-mingw32/bin/../lib/gcc/nios2-elf/4.1.2/../../../../nios2-elf/lib\libstdc++.a(fundamental_type_info.o)
                0x008123e0                typeinfo for unsigned long const*
 .rodata._ZTIPm
                0x008123f0       0x10 c:/logicielge1/altera/13.0sp1/nios2eds/bin/gnu/h-i686-mingw32/bin/../lib/gcc/nios2-elf/4.1.2/../../../../nios2-elf/lib\libstdc++.a(fundamental_type_info.o)
                0x008123f0                typeinfo for unsigned long*
 .rodata._ZTIPKl
                0x00812400       0x10 c:/logicielge1/altera/13.0sp1/nios2eds/bin/gnu/h-i686-mingw32/bin/../lib/gcc/nios2-elf/4.1.2/../../../../nios2-elf/lib\libstdc++.a(fundamental_type_info.o)
                0x00812400                typeinfo for long const*
 .rodata._ZTIPl
                0x00812410       0x10 c:/logicielge1/altera/13.0sp1/nios2eds/bin/gnu/h-i686-mingw32/bin/../lib/gcc/nios2-elf/4.1.2/../../../../nios2-elf/lib\libstdc++.a(fundamental_type_info.o)
                0x00812410                typeinfo for long*
 .rodata._ZTIPKj
                0x00812420       0x10 c:/logicielge1/altera/13.0sp1/nios2eds/bin/gnu/h-i686-mingw32/bin/../lib/gcc/nios2-elf/4.1.2/../../../../nios2-elf/lib\libstdc++.a(fundamental_type_info.o)
                0x00812420                typeinfo for unsigned int const*
 .rodata._ZTIPj
                0x00812430       0x10 c:/logicielge1/altera/13.0sp1/nios2eds/bin/gnu/h-i686-mingw32/bin/../lib/gcc/nios2-elf/4.1.2/../../../../nios2-elf/lib\libstdc++.a(fundamental_type_info.o)
                0x00812430                typeinfo for unsigned int*
 .rodata._ZTIPKi
                0x00812440       0x10 c:/logicielge1/altera/13.0sp1/nios2eds/bin/gnu/h-i686-mingw32/bin/../lib/gcc/nios2-elf/4.1.2/../../../../nios2-elf/lib\libstdc++.a(fundamental_type_info.o)
                0x00812440                typeinfo for int const*
 .rodata._ZTIPi
                0x00812450       0x10 c:/logicielge1/altera/13.0sp1/nios2eds/bin/gnu/h-i686-mingw32/bin/../lib/gcc/nios2-elf/4.1.2/../../../../nios2-elf/lib\libstdc++.a(fundamental_type_info.o)
                0x00812450                typeinfo for int*
 .rodata._ZTIPKt
                0x00812460       0x10 c:/logicielge1/altera/13.0sp1/nios2eds/bin/gnu/h-i686-mingw32/bin/../lib/gcc/nios2-elf/4.1.2/../../../../nios2-elf/lib\libstdc++.a(fundamental_type_info.o)
                0x00812460                typeinfo for unsigned short const*
 .rodata._ZTIPt
                0x00812470       0x10 c:/logicielge1/altera/13.0sp1/nios2eds/bin/gnu/h-i686-mingw32/bin/../lib/gcc/nios2-elf/4.1.2/../../../../nios2-elf/lib\libstdc++.a(fundamental_type_info.o)
                0x00812470                typeinfo for unsigned short*
 .rodata._ZTIPKs
                0x00812480       0x10 c:/logicielge1/altera/13.0sp1/nios2eds/bin/gnu/h-i686-mingw32/bin/../lib/gcc/nios2-elf/4.1.2/../../../../nios2-elf/lib\libstdc++.a(fundamental_type_info.o)
                0x00812480                typeinfo for short const*
 .rodata._ZTIPs
                0x00812490       0x10 c:/logicielge1/altera/13.0sp1/nios2eds/bin/gnu/h-i686-mingw32/bin/../lib/gcc/nios2-elf/4.1.2/../../../../nios2-elf/lib\libstdc++.a(fundamental_type_info.o)
                0x00812490                typeinfo for short*
 .rodata._ZTIPKh
                0x008124a0       0x10 c:/logicielge1/altera/13.0sp1/nios2eds/bin/gnu/h-i686-mingw32/bin/../lib/gcc/nios2-elf/4.1.2/../../../../nios2-elf/lib\libstdc++.a(fundamental_type_info.o)
                0x008124a0                typeinfo for unsigned char const*
 .rodata._ZTIPh
                0x008124b0       0x10 c:/logicielge1/altera/13.0sp1/nios2eds/bin/gnu/h-i686-mingw32/bin/../lib/gcc/nios2-elf/4.1.2/../../../../nios2-elf/lib\libstdc++.a(fundamental_type_info.o)
                0x008124b0                typeinfo for unsigned char*
 .rodata._ZTIPKa
                0x008124c0       0x10 c:/logicielge1/altera/13.0sp1/nios2eds/bin/gnu/h-i686-mingw32/bin/../lib/gcc/nios2-elf/4.1.2/../../../../nios2-elf/lib\libstdc++.a(fundamental_type_info.o)
                0x008124c0                typeinfo for signed char const*
 .rodata._ZTIPa
                0x008124d0       0x10 c:/logicielge1/altera/13.0sp1/nios2eds/bin/gnu/h-i686-mingw32/bin/../lib/gcc/nios2-elf/4.1.2/../../../../nios2-elf/lib\libstdc++.a(fundamental_type_info.o)
                0x008124d0                typeinfo for signed char*
 .rodata._ZTIPKc
                0x008124e0       0x10 c:/logicielge1/altera/13.0sp1/nios2eds/bin/gnu/h-i686-mingw32/bin/../lib/gcc/nios2-elf/4.1.2/../../../../nios2-elf/lib\libstdc++.a(fundamental_type_info.o)
                0x008124e0                typeinfo for char const*
 .rodata._ZTIPc
                0x008124f0       0x10 c:/logicielge1/altera/13.0sp1/nios2eds/bin/gnu/h-i686-mingw32/bin/../lib/gcc/nios2-elf/4.1.2/../../../../nios2-elf/lib\libstdc++.a(fundamental_type_info.o)
                0x008124f0                typeinfo for char*
 .rodata._ZTIPKw
                0x00812500       0x10 c:/logicielge1/altera/13.0sp1/nios2eds/bin/gnu/h-i686-mingw32/bin/../lib/gcc/nios2-elf/4.1.2/../../../../nios2-elf/lib\libstdc++.a(fundamental_type_info.o)
                0x00812500                typeinfo for wchar_t const*
 .rodata._ZTIPw
                0x00812510       0x10 c:/logicielge1/altera/13.0sp1/nios2eds/bin/gnu/h-i686-mingw32/bin/../lib/gcc/nios2-elf/4.1.2/../../../../nios2-elf/lib\libstdc++.a(fundamental_type_info.o)
                0x00812510                typeinfo for wchar_t*
 .rodata._ZTIPKb
                0x00812520       0x10 c:/logicielge1/altera/13.0sp1/nios2eds/bin/gnu/h-i686-mingw32/bin/../lib/gcc/nios2-elf/4.1.2/../../../../nios2-elf/lib\libstdc++.a(fundamental_type_info.o)
                0x00812520                typeinfo for bool const*
 .rodata._ZTIPb
                0x00812530       0x10 c:/logicielge1/altera/13.0sp1/nios2eds/bin/gnu/h-i686-mingw32/bin/../lib/gcc/nios2-elf/4.1.2/../../../../nios2-elf/lib\libstdc++.a(fundamental_type_info.o)
                0x00812530                typeinfo for bool*
 .rodata._ZTIPKv
                0x00812540       0x10 c:/logicielge1/altera/13.0sp1/nios2eds/bin/gnu/h-i686-mingw32/bin/../lib/gcc/nios2-elf/4.1.2/../../../../nios2-elf/lib\libstdc++.a(fundamental_type_info.o)
                0x00812540                typeinfo for void const*
 .rodata._ZTIPv
                0x00812550       0x10 c:/logicielge1/altera/13.0sp1/nios2eds/bin/gnu/h-i686-mingw32/bin/../lib/gcc/nios2-elf/4.1.2/../../../../nios2-elf/lib\libstdc++.a(fundamental_type_info.o)
                0x00812550                typeinfo for void*
 .rodata._ZTSN10__cxxabiv123__fundamental_type_infoE
                0x00812560       0x28 c:/logicielge1/altera/13.0sp1/nios2eds/bin/gnu/h-i686-mingw32/bin/../lib/gcc/nios2-elf/4.1.2/../../../../nios2-elf/lib\libstdc++.a(fundamental_type_info.o)
                0x00812560                typeinfo name for __cxxabiv1::__fundamental_type_info
 .rodata._ZTIN10__cxxabiv123__fundamental_type_infoE
                0x00812588        0xc c:/logicielge1/altera/13.0sp1/nios2eds/bin/gnu/h-i686-mingw32/bin/../lib/gcc/nios2-elf/4.1.2/../../../../nios2-elf/lib\libstdc++.a(fundamental_type_info.o)
                0x00812588                typeinfo for __cxxabiv1::__fundamental_type_info
 .rodata._ZTVSt9bad_alloc
                0x00812594       0x14 c:/logicielge1/altera/13.0sp1/nios2eds/bin/gnu/h-i686-mingw32/bin/../lib/gcc/nios2-elf/4.1.2/../../../../nios2-elf/lib\libstdc++.a(new_handler.o)
                0x00812594                vtable for std::bad_alloc
 .rodata._ZTSSt9bad_alloc
                0x008125a8       0x10 c:/logicielge1/altera/13.0sp1/nios2eds/bin/gnu/h-i686-mingw32/bin/../lib/gcc/nios2-elf/4.1.2/../../../../nios2-elf/lib\libstdc++.a(new_handler.o)
                0x008125a8                typeinfo name for std::bad_alloc
 .rodata._ZTISt9bad_alloc
                0x008125b8        0xc c:/logicielge1/altera/13.0sp1/nios2eds/bin/gnu/h-i686-mingw32/bin/../lib/gcc/nios2-elf/4.1.2/../../../../nios2-elf/lib\libstdc++.a(new_handler.o)
                0x008125b8                typeinfo for std::bad_alloc
 .rodata._ZTVSt9type_info
                0x008125c4       0x20 c:/logicielge1/altera/13.0sp1/nios2eds/bin/gnu/h-i686-mingw32/bin/../lib/gcc/nios2-elf/4.1.2/../../../../nios2-elf/lib\libstdc++.a(tinfo.o)
                0x008125c4                vtable for std::type_info
 .rodata._ZTSSt9type_info
                0x008125e4       0x10 c:/logicielge1/altera/13.0sp1/nios2eds/bin/gnu/h-i686-mingw32/bin/../lib/gcc/nios2-elf/4.1.2/../../../../nios2-elf/lib\libstdc++.a(tinfo.o)
                0x008125e4                typeinfo name for std::type_info
 .rodata._ZTVN10__cxxabiv119__pointer_type_infoE
                0x008125f4       0x24 c:/logicielge1/altera/13.0sp1/nios2eds/bin/gnu/h-i686-mingw32/bin/../lib/gcc/nios2-elf/4.1.2/../../../../nios2-elf/lib\libstdc++.a(pointer_type_info.o)
                0x008125f4                vtable for __cxxabiv1::__pointer_type_info
 .rodata._ZTSN10__cxxabiv119__pointer_type_infoE
                0x00812618       0x24 c:/logicielge1/altera/13.0sp1/nios2eds/bin/gnu/h-i686-mingw32/bin/../lib/gcc/nios2-elf/4.1.2/../../../../nios2-elf/lib\libstdc++.a(pointer_type_info.o)
                0x00812618                typeinfo name for __cxxabiv1::__pointer_type_info
 .rodata._ZTIN10__cxxabiv119__pointer_type_infoE
                0x0081263c        0xc c:/logicielge1/altera/13.0sp1/nios2eds/bin/gnu/h-i686-mingw32/bin/../lib/gcc/nios2-elf/4.1.2/../../../../nios2-elf/lib\libstdc++.a(pointer_type_info.o)
                0x0081263c                typeinfo for __cxxabiv1::__pointer_type_info
 .rodata._ZTVN10__cxxabiv117__pbase_type_infoE
                0x00812648       0x24 c:/logicielge1/altera/13.0sp1/nios2eds/bin/gnu/h-i686-mingw32/bin/../lib/gcc/nios2-elf/4.1.2/../../../../nios2-elf/lib\libstdc++.a(pbase_type_info.o)
                0x00812648                vtable for __cxxabiv1::__pbase_type_info
 .rodata._ZTSN10__cxxabiv117__pbase_type_infoE
                0x0081266c       0x24 c:/logicielge1/altera/13.0sp1/nios2eds/bin/gnu/h-i686-mingw32/bin/../lib/gcc/nios2-elf/4.1.2/../../../../nios2-elf/lib\libstdc++.a(pbase_type_info.o)
                0x0081266c                typeinfo name for __cxxabiv1::__pbase_type_info
 .rodata._ZTIN10__cxxabiv117__pbase_type_infoE
                0x00812690        0xc c:/logicielge1/altera/13.0sp1/nios2eds/bin/gnu/h-i686-mingw32/bin/../lib/gcc/nios2-elf/4.1.2/../../../../nios2-elf/lib\libstdc++.a(pbase_type_info.o)
                0x00812690                typeinfo for __cxxabiv1::__pbase_type_info
 .rodata.str1.4
                0x0081269c       0x5e c:/logicielge1/altera/13.0sp1/nios2eds/bin/gnu/h-i686-mingw32/bin/../lib/gcc/nios2-elf/4.1.2/../../../../nios2-elf/lib\libc.a(lib_a-vfprintf.o)
                                 0x60 (size before relaxing)
 .rodata        0x008126fa       0x20 c:/logicielge1/altera/13.0sp1/nios2eds/bin/gnu/h-i686-mingw32/bin/../lib/gcc/nios2-elf/4.1.2/../../../../nios2-elf/lib\libc.a(lib_a-vfprintf.o)
 *fill*         0x0081271a        0x2 00
 .rodata.str1.4
                0x0081271c       0x10 c:/logicielge1/altera/13.0sp1/nios2eds/bin/gnu/h-i686-mingw32/bin/../lib/gcc/nios2-elf/4.1.2/../../../../nios2-elf/lib\libc.a(lib_a-dtoa.o)
                                 0x14 (size before relaxing)
 .rodata.str1.4
                0x0081272c        0x2 c:/logicielge1/altera/13.0sp1/nios2eds/bin/gnu/h-i686-mingw32/bin/../lib/gcc/nios2-elf/4.1.2/../../../../nios2-elf/lib\libc.a(lib_a-impure.o)
                                  0x4 (size before relaxing)
 *fill*         0x0081272e        0x2 00
 .rodata.str1.4
                0x00812730       0x10 c:/logicielge1/altera/13.0sp1/nios2eds/bin/gnu/h-i686-mingw32/bin/../lib/gcc/nios2-elf/4.1.2/../../../../nios2-elf/lib\libc.a(lib_a-locale.o)
                                 0x18 (size before relaxing)
 .rodata        0x00812740       0x30 c:/logicielge1/altera/13.0sp1/nios2eds/bin/gnu/h-i686-mingw32/bin/../lib/gcc/nios2-elf/4.1.2/../../../../nios2-elf/lib\libc.a(lib_a-locale.o)
 .rodata        0x00812770      0x124 c:/logicielge1/altera/13.0sp1/nios2eds/bin/gnu/h-i686-mingw32/bin/../lib/gcc/nios2-elf/4.1.2/../../../../nios2-elf/lib\libc.a(lib_a-mprec.o)
                0x00812770                __mprec_tens
                0x00812838                __mprec_bigtens
                0x00812860                __mprec_tinytens
 .rodata        0x00812894       0x14 c:/logicielge1/altera/13.0sp1/nios2eds/bin/gnu/h-i686-mingw32/bin/../lib/gcc/nios2-elf/4.1.2\libgcc.a(_thenan_df.o)
                0x00812894                __thenan_df
 .rodata        0x008128a8      0x100 c:/logicielge1/altera/13.0sp1/nios2eds/bin/gnu/h-i686-mingw32/bin/../lib/gcc/nios2-elf/4.1.2\libgcc.a(_clz.o)
                0x008128a8                __clz_tab
 .rodata        0x008129a8        0xc ../cmv_controller_bsp/\libhal_bsp.a(alt_dev.o)
 .rodata        0x008129b4       0x10 ../cmv_controller_bsp/\libhal_bsp.a(alt_main.o)
 .rodata        0x008129c4       0x1c ../cmv_controller_bsp/\libhal_bsp.a(alt_sys_init.o)
 *(.rodata1)
                0x008129e0                . = ALIGN (0x4)
                0x008129e0                PROVIDE (__ram_rodata_end, ABSOLUTE (.))
                0x00812038                PROVIDE (__flash_rodata_start, LOADADDR (.rodata))

.rwdata         0x008129e0     0x1ce8 load address 0x008146c8
                0x008129e0                PROVIDE (__ram_rwdata_start, ABSOLUTE (.))
                0x008129e0                . = ALIGN (0x4)
 *(.got.plt)
 *(.got)
 *(.data1)
 *(.data .data.* .gnu.linkonce.d.*)
 .data          0x008129e0        0x0 ../cmv_controller_bsp//obj/HAL/src/crt0.o
 .data          0x008129e0        0x0 obj/default/FSM.o
 .data          0x008129e0        0x0 obj/default/controller/PIO.o
 .data          0x008129e0        0x0 obj/default/controller/PIO_Bus.o
 .data          0x008129e0        0x0 obj/default/controller/PIO_Pin.o
 .data          0x008129e0        0x0 obj/default/controller/SPI.o
 .data          0x008129e0        0x0 obj/default/controller/UART.o
 .data          0x008129e0        0x0 obj/default/main.o
 .data          0x008129e0        0x0 c:/logicielge1/altera/13.0sp1/nios2eds/bin/gnu/h-i686-mingw32/bin/../lib/gcc/nios2-elf/4.1.2/../../../../nios2-elf/lib\libstdc++.a(eh_throw.o)
 .data          0x008129e0        0x0 c:/logicielge1/altera/13.0sp1/nios2eds/bin/gnu/h-i686-mingw32/bin/../lib/gcc/nios2-elf/4.1.2/../../../../nios2-elf/lib\libstdc++.a(eh_term_handler.o)
 .data          0x008129e0        0x0 c:/logicielge1/altera/13.0sp1/nios2eds/bin/gnu/h-i686-mingw32/bin/../lib/gcc/nios2-elf/4.1.2/../../../../nios2-elf/lib\libstdc++.a(new_opv.o)
 .data          0x008129e0        0x0 c:/logicielge1/altera/13.0sp1/nios2eds/bin/gnu/h-i686-mingw32/bin/../lib/gcc/nios2-elf/4.1.2/../../../../nios2-elf/lib\libstdc++.a(eh_catch.o)
 .data          0x008129e0        0x0 c:/logicielge1/altera/13.0sp1/nios2eds/bin/gnu/h-i686-mingw32/bin/../lib/gcc/nios2-elf/4.1.2/../../../../nios2-elf/lib\libstdc++.a(del_op.o)
 .data          0x008129e0        0x0 c:/logicielge1/altera/13.0sp1/nios2eds/bin/gnu/h-i686-mingw32/bin/../lib/gcc/nios2-elf/4.1.2/../../../../nios2-elf/lib\libstdc++.a(del_opv.o)
 .data          0x008129e0        0x0 c:/logicielge1/altera/13.0sp1/nios2eds/bin/gnu/h-i686-mingw32/bin/../lib/gcc/nios2-elf/4.1.2/../../../../nios2-elf/lib\libstdc++.a(eh_unex_handler.o)
 .data          0x008129e0        0x0 c:/logicielge1/altera/13.0sp1/nios2eds/bin/gnu/h-i686-mingw32/bin/../lib/gcc/nios2-elf/4.1.2/../../../../nios2-elf/lib\libstdc++.a(eh_personality.o)
 .data          0x008129e0        0x0 c:/logicielge1/altera/13.0sp1/nios2eds/bin/gnu/h-i686-mingw32/bin/../lib/gcc/nios2-elf/4.1.2/../../../../nios2-elf/lib\libstdc++.a(class_type_info.o)
 .data          0x008129e0        0x0 c:/logicielge1/altera/13.0sp1/nios2eds/bin/gnu/h-i686-mingw32/bin/../lib/gcc/nios2-elf/4.1.2/../../../../nios2-elf/lib\libstdc++.a(si_class_type_info.o)
 .data          0x008129e0        0x0 c:/logicielge1/altera/13.0sp1/nios2eds/bin/gnu/h-i686-mingw32/bin/../lib/gcc/nios2-elf/4.1.2/../../../../nios2-elf/lib\libstdc++.a(eh_globals.o)
 .data          0x008129e0        0x0 c:/logicielge1/altera/13.0sp1/nios2eds/bin/gnu/h-i686-mingw32/bin/../lib/gcc/nios2-elf/4.1.2/../../../../nios2-elf/lib\libstdc++.a(eh_terminate.o)
 .data          0x008129e0        0x0 c:/logicielge1/altera/13.0sp1/nios2eds/bin/gnu/h-i686-mingw32/bin/../lib/gcc/nios2-elf/4.1.2/../../../../nios2-elf/lib\libstdc++.a(new_op.o)
 .data          0x008129e0        0x0 c:/logicielge1/altera/13.0sp1/nios2eds/bin/gnu/h-i686-mingw32/bin/../lib/gcc/nios2-elf/4.1.2/../../../../nios2-elf/lib\libstdc++.a(eh_call.o)
 .data          0x008129e0        0x0 c:/logicielge1/altera/13.0sp1/nios2eds/bin/gnu/h-i686-mingw32/bin/../lib/gcc/nios2-elf/4.1.2/../../../../nios2-elf/lib\libstdc++.a(eh_exception.o)
 .data          0x008129e0        0x0 c:/logicielge1/altera/13.0sp1/nios2eds/bin/gnu/h-i686-mingw32/bin/../lib/gcc/nios2-elf/4.1.2/../../../../nios2-elf/lib\libstdc++.a(fundamental_type_info.o)
 .data          0x008129e0        0x0 c:/logicielge1/altera/13.0sp1/nios2eds/bin/gnu/h-i686-mingw32/bin/../lib/gcc/nios2-elf/4.1.2/../../../../nios2-elf/lib\libstdc++.a(new_handler.o)
 .data          0x008129e0        0x0 c:/logicielge1/altera/13.0sp1/nios2eds/bin/gnu/h-i686-mingw32/bin/../lib/gcc/nios2-elf/4.1.2/../../../../nios2-elf/lib\libstdc++.a(eh_alloc.o)
 .data          0x008129e0        0x0 c:/logicielge1/altera/13.0sp1/nios2eds/bin/gnu/h-i686-mingw32/bin/../lib/gcc/nios2-elf/4.1.2/../../../../nios2-elf/lib\libstdc++.a(tinfo.o)
 .data          0x008129e0        0x0 c:/logicielge1/altera/13.0sp1/nios2eds/bin/gnu/h-i686-mingw32/bin/../lib/gcc/nios2-elf/4.1.2/../../../../nios2-elf/lib\libstdc++.a(pointer_type_info.o)
 .data          0x008129e0        0x0 c:/logicielge1/altera/13.0sp1/nios2eds/bin/gnu/h-i686-mingw32/bin/../lib/gcc/nios2-elf/4.1.2/../../../../nios2-elf/lib\libstdc++.a(pbase_type_info.o)
 .data          0x008129e0        0x0 c:/logicielge1/altera/13.0sp1/nios2eds/bin/gnu/h-i686-mingw32/bin/../lib/gcc/nios2-elf/4.1.2\libgcc.a(unwind-sjlj.o)
 .data          0x008129e0        0x0 c:/logicielge1/altera/13.0sp1/nios2eds/bin/gnu/h-i686-mingw32/bin/../lib/gcc/nios2-elf/4.1.2/../../../../nios2-elf/lib\libc.a(lib_a-abort.o)
 .data          0x008129e0        0x0 c:/logicielge1/altera/13.0sp1/nios2eds/bin/gnu/h-i686-mingw32/bin/../lib/gcc/nios2-elf/4.1.2/../../../../nios2-elf/lib\libc.a(lib_a-malloc.o)
 .data          0x008129e0      0x408 c:/logicielge1/altera/13.0sp1/nios2eds/bin/gnu/h-i686-mingw32/bin/../lib/gcc/nios2-elf/4.1.2/../../../../nios2-elf/lib\libc.a(lib_a-mallocr.o)
                0x008129e0                __malloc_av_
 .data          0x00812de8        0x0 c:/logicielge1/altera/13.0sp1/nios2eds/bin/gnu/h-i686-mingw32/bin/../lib/gcc/nios2-elf/4.1.2/../../../../nios2-elf/lib\libc.a(lib_a-memset.o)
 .data          0x00812de8        0x0 c:/logicielge1/altera/13.0sp1/nios2eds/bin/gnu/h-i686-mingw32/bin/../lib/gcc/nios2-elf/4.1.2/../../../../nios2-elf/lib\libc.a(lib_a-printf.o)
 .data          0x00812de8        0x0 c:/logicielge1/altera/13.0sp1/nios2eds/bin/gnu/h-i686-mingw32/bin/../lib/gcc/nios2-elf/4.1.2/../../../../nios2-elf/lib\libc.a(lib_a-sbrkr.o)
 .data          0x00812de8        0x0 c:/logicielge1/altera/13.0sp1/nios2eds/bin/gnu/h-i686-mingw32/bin/../lib/gcc/nios2-elf/4.1.2/../../../../nios2-elf/lib\libc.a(lib_a-signal.o)
 .data          0x00812de8        0x0 c:/logicielge1/altera/13.0sp1/nios2eds/bin/gnu/h-i686-mingw32/bin/../lib/gcc/nios2-elf/4.1.2/../../../../nios2-elf/lib\libc.a(lib_a-signalr.o)
 .data          0x00812de8        0x0 c:/logicielge1/altera/13.0sp1/nios2eds/bin/gnu/h-i686-mingw32/bin/../lib/gcc/nios2-elf/4.1.2/../../../../nios2-elf/lib\libc.a(lib_a-strlen.o)
 .data          0x00812de8        0x0 c:/logicielge1/altera/13.0sp1/nios2eds/bin/gnu/h-i686-mingw32/bin/../lib/gcc/nios2-elf/4.1.2/../../../../nios2-elf/lib\libc.a(lib_a-vfprintf.o)
 .data          0x00812de8        0x0 c:/logicielge1/altera/13.0sp1/nios2eds/bin/gnu/h-i686-mingw32/bin/../lib/gcc/nios2-elf/4.1.2/../../../../nios2-elf/lib\libc.a(lib_a-vsnprintf.o)
 .data          0x00812de8        0x0 c:/logicielge1/altera/13.0sp1/nios2eds/bin/gnu/h-i686-mingw32/bin/../lib/gcc/nios2-elf/4.1.2/../../../../nios2-elf/lib\libc.a(lib_a-wsetup.o)
 .data          0x00812de8        0x0 c:/logicielge1/altera/13.0sp1/nios2eds/bin/gnu/h-i686-mingw32/bin/../lib/gcc/nios2-elf/4.1.2/../../../../nios2-elf/lib\libc.a(lib_a-dtoa.o)
 .data          0x00812de8        0x0 c:/logicielge1/altera/13.0sp1/nios2eds/bin/gnu/h-i686-mingw32/bin/../lib/gcc/nios2-elf/4.1.2/../../../../nios2-elf/lib\libc.a(lib_a-fflush.o)
 .data          0x00812de8        0x0 c:/logicielge1/altera/13.0sp1/nios2eds/bin/gnu/h-i686-mingw32/bin/../lib/gcc/nios2-elf/4.1.2/../../../../nios2-elf/lib\libc.a(lib_a-findfp.o)
 .data          0x00812de8        0x0 c:/logicielge1/altera/13.0sp1/nios2eds/bin/gnu/h-i686-mingw32/bin/../lib/gcc/nios2-elf/4.1.2/../../../../nios2-elf/lib\libc.a(lib_a-freer.o)
 .data          0x00812de8        0x0 c:/logicielge1/altera/13.0sp1/nios2eds/bin/gnu/h-i686-mingw32/bin/../lib/gcc/nios2-elf/4.1.2/../../../../nios2-elf/lib\libc.a(lib_a-fvwrite.o)
 .data          0x00812de8        0x0 c:/logicielge1/altera/13.0sp1/nios2eds/bin/gnu/h-i686-mingw32/bin/../lib/gcc/nios2-elf/4.1.2/../../../../nios2-elf/lib\libc.a(lib_a-fwalk.o)
 .data          0x00812de8      0x400 c:/logicielge1/altera/13.0sp1/nios2eds/bin/gnu/h-i686-mingw32/bin/../lib/gcc/nios2-elf/4.1.2/../../../../nios2-elf/lib\libc.a(lib_a-impure.o)
 .data          0x008131e8        0x0 c:/logicielge1/altera/13.0sp1/nios2eds/bin/gnu/h-i686-mingw32/bin/../lib/gcc/nios2-elf/4.1.2/../../../../nios2-elf/lib\libc.a(lib_a-int_errno.o)
 .data          0x008131e8        0xc c:/logicielge1/altera/13.0sp1/nios2eds/bin/gnu/h-i686-mingw32/bin/../lib/gcc/nios2-elf/4.1.2/../../../../nios2-elf/lib\libc.a(lib_a-locale.o)
                0x008131e8                __lc_ctype
 .data          0x008131f4        0x0 c:/logicielge1/altera/13.0sp1/nios2eds/bin/gnu/h-i686-mingw32/bin/../lib/gcc/nios2-elf/4.1.2/../../../../nios2-elf/lib\libc.a(lib_a-makebuf.o)
 .data          0x008131f4        0x0 c:/logicielge1/altera/13.0sp1/nios2eds/bin/gnu/h-i686-mingw32/bin/../lib/gcc/nios2-elf/4.1.2/../../../../nios2-elf/lib\libc.a(lib_a-memchr.o)
 .data          0x008131f4        0x0 c:/logicielge1/altera/13.0sp1/nios2eds/bin/gnu/h-i686-mingw32/bin/../lib/gcc/nios2-elf/4.1.2/../../../../nios2-elf/lib\libc.a(lib_a-memcpy.o)
 .data          0x008131f4        0x0 c:/logicielge1/altera/13.0sp1/nios2eds/bin/gnu/h-i686-mingw32/bin/../lib/gcc/nios2-elf/4.1.2/../../../../nios2-elf/lib\libc.a(lib_a-memmove.o)
 .data          0x008131f4        0x0 c:/logicielge1/altera/13.0sp1/nios2eds/bin/gnu/h-i686-mingw32/bin/../lib/gcc/nios2-elf/4.1.2/../../../../nios2-elf/lib\libc.a(lib_a-mprec.o)
 .data          0x008131f4        0x0 c:/logicielge1/altera/13.0sp1/nios2eds/bin/gnu/h-i686-mingw32/bin/../lib/gcc/nios2-elf/4.1.2/../../../../nios2-elf/lib\libc.a(lib_a-reallocr.o)
 .data          0x008131f4        0x0 c:/logicielge1/altera/13.0sp1/nios2eds/bin/gnu/h-i686-mingw32/bin/../lib/gcc/nios2-elf/4.1.2/../../../../nios2-elf/lib\libc.a(lib_a-s_isinfd.o)
 .data          0x008131f4        0x0 c:/logicielge1/altera/13.0sp1/nios2eds/bin/gnu/h-i686-mingw32/bin/../lib/gcc/nios2-elf/4.1.2/../../../../nios2-elf/lib\libc.a(lib_a-s_isnand.o)
 .data          0x008131f4        0x0 c:/logicielge1/altera/13.0sp1/nios2eds/bin/gnu/h-i686-mingw32/bin/../lib/gcc/nios2-elf/4.1.2/../../../../nios2-elf/lib\libc.a(lib_a-stdio.o)
 .data          0x008131f4        0x0 c:/logicielge1/altera/13.0sp1/nios2eds/bin/gnu/h-i686-mingw32/bin/../lib/gcc/nios2-elf/4.1.2/../../../../nios2-elf/lib\libc.a(lib_a-strcmp.o)
 .data          0x008131f4        0x0 c:/logicielge1/altera/13.0sp1/nios2eds/bin/gnu/h-i686-mingw32/bin/../lib/gcc/nios2-elf/4.1.2/../../../../nios2-elf/lib\libc.a(lib_a-writer.o)
 .data          0x008131f4        0x0 c:/logicielge1/altera/13.0sp1/nios2eds/bin/gnu/h-i686-mingw32/bin/../lib/gcc/nios2-elf/4.1.2/../../../../nios2-elf/lib\libc.a(lib_a-callocr.o)
 .data          0x008131f4        0x0 c:/logicielge1/altera/13.0sp1/nios2eds/bin/gnu/h-i686-mingw32/bin/../lib/gcc/nios2-elf/4.1.2/../../../../nios2-elf/lib\libc.a(lib_a-closer.o)
 .data          0x008131f4        0x0 c:/logicielge1/altera/13.0sp1/nios2eds/bin/gnu/h-i686-mingw32/bin/../lib/gcc/nios2-elf/4.1.2/../../../../nios2-elf/lib\libc.a(lib_a-fclose.o)
 .data          0x008131f4        0x0 c:/logicielge1/altera/13.0sp1/nios2eds/bin/gnu/h-i686-mingw32/bin/../lib/gcc/nios2-elf/4.1.2/../../../../nios2-elf/lib\libc.a(lib_a-fstatr.o)
 .data          0x008131f4        0x0 c:/logicielge1/altera/13.0sp1/nios2eds/bin/gnu/h-i686-mingw32/bin/../lib/gcc/nios2-elf/4.1.2/../../../../nios2-elf/lib\libc.a(lib_a-isattyr.o)
 .data          0x008131f4        0x0 c:/logicielge1/altera/13.0sp1/nios2eds/bin/gnu/h-i686-mingw32/bin/../lib/gcc/nios2-elf/4.1.2/../../../../nios2-elf/lib\libc.a(lib_a-lseekr.o)
 .data          0x008131f4        0x0 c:/logicielge1/altera/13.0sp1/nios2eds/bin/gnu/h-i686-mingw32/bin/../lib/gcc/nios2-elf/4.1.2/../../../../nios2-elf/lib\libc.a(lib_a-readr.o)
 .data          0x008131f4        0x0 c:/logicielge1/altera/13.0sp1/nios2eds/bin/gnu/h-i686-mingw32/bin/../lib/gcc/nios2-elf/4.1.2\libgcc.a(_udivdi3.o)
 .data          0x008131f4        0x0 c:/logicielge1/altera/13.0sp1/nios2eds/bin/gnu/h-i686-mingw32/bin/../lib/gcc/nios2-elf/4.1.2\libgcc.a(_umoddi3.o)
 .data          0x008131f4        0x0 c:/logicielge1/altera/13.0sp1/nios2eds/bin/gnu/h-i686-mingw32/bin/../lib/gcc/nios2-elf/4.1.2\libgcc.a(_addsub_df.o)
 .data          0x008131f4        0x0 c:/logicielge1/altera/13.0sp1/nios2eds/bin/gnu/h-i686-mingw32/bin/../lib/gcc/nios2-elf/4.1.2\libgcc.a(_mul_df.o)
 .data          0x008131f4        0x0 c:/logicielge1/altera/13.0sp1/nios2eds/bin/gnu/h-i686-mingw32/bin/../lib/gcc/nios2-elf/4.1.2\libgcc.a(_div_df.o)
 .data          0x008131f4        0x0 c:/logicielge1/altera/13.0sp1/nios2eds/bin/gnu/h-i686-mingw32/bin/../lib/gcc/nios2-elf/4.1.2\libgcc.a(_eq_df.o)
 .data          0x008131f4        0x0 c:/logicielge1/altera/13.0sp1/nios2eds/bin/gnu/h-i686-mingw32/bin/../lib/gcc/nios2-elf/4.1.2\libgcc.a(_ne_df.o)
 .data          0x008131f4        0x0 c:/logicielge1/altera/13.0sp1/nios2eds/bin/gnu/h-i686-mingw32/bin/../lib/gcc/nios2-elf/4.1.2\libgcc.a(_gt_df.o)
 .data          0x008131f4        0x0 c:/logicielge1/altera/13.0sp1/nios2eds/bin/gnu/h-i686-mingw32/bin/../lib/gcc/nios2-elf/4.1.2\libgcc.a(_ge_df.o)
 .data          0x008131f4        0x0 c:/logicielge1/altera/13.0sp1/nios2eds/bin/gnu/h-i686-mingw32/bin/../lib/gcc/nios2-elf/4.1.2\libgcc.a(_lt_df.o)
 .data          0x008131f4        0x0 c:/logicielge1/altera/13.0sp1/nios2eds/bin/gnu/h-i686-mingw32/bin/../lib/gcc/nios2-elf/4.1.2\libgcc.a(_si_to_df.o)
 .data          0x008131f4        0x0 c:/logicielge1/altera/13.0sp1/nios2eds/bin/gnu/h-i686-mingw32/bin/../lib/gcc/nios2-elf/4.1.2\libgcc.a(_df_to_si.o)
 .data          0x008131f4        0x0 c:/logicielge1/altera/13.0sp1/nios2eds/bin/gnu/h-i686-mingw32/bin/../lib/gcc/nios2-elf/4.1.2\libgcc.a(_thenan_df.o)
 .data          0x008131f4        0x0 c:/logicielge1/altera/13.0sp1/nios2eds/bin/gnu/h-i686-mingw32/bin/../lib/gcc/nios2-elf/4.1.2\libgcc.a(_usi_to_df.o)
 .data          0x008131f4        0x0 c:/logicielge1/altera/13.0sp1/nios2eds/bin/gnu/h-i686-mingw32/bin/../lib/gcc/nios2-elf/4.1.2\libgcc.a(lib2-divmod.o)
 .data          0x008131f4        0x0 c:/logicielge1/altera/13.0sp1/nios2eds/bin/gnu/h-i686-mingw32/bin/../lib/gcc/nios2-elf/4.1.2\libgcc.a(_muldi3.o)
 .data          0x008131f4        0x0 c:/logicielge1/altera/13.0sp1/nios2eds/bin/gnu/h-i686-mingw32/bin/../lib/gcc/nios2-elf/4.1.2\libgcc.a(_clz.o)
 .data          0x008131f4        0x0 c:/logicielge1/altera/13.0sp1/nios2eds/bin/gnu/h-i686-mingw32/bin/../lib/gcc/nios2-elf/4.1.2\libgcc.a(_clzsi2.o)
 .data          0x008131f4        0x0 c:/logicielge1/altera/13.0sp1/nios2eds/bin/gnu/h-i686-mingw32/bin/../lib/gcc/nios2-elf/4.1.2\libgcc.a(_pack_df.o)
 .data          0x008131f4        0x0 c:/logicielge1/altera/13.0sp1/nios2eds/bin/gnu/h-i686-mingw32/bin/../lib/gcc/nios2-elf/4.1.2\libgcc.a(_unpack_df.o)
 .data          0x008131f4        0x0 c:/logicielge1/altera/13.0sp1/nios2eds/bin/gnu/h-i686-mingw32/bin/../lib/gcc/nios2-elf/4.1.2\libgcc.a(_fpcmp_parts_df.o)
 .data          0x008131f4        0x0 ../cmv_controller_bsp/\libhal_bsp.a(alt_close.o)
 .data          0x008131f4      0x1a8 ../cmv_controller_bsp/\libhal_bsp.a(alt_dev.o)
                0x008131f4                alt_dev_null
                0x0081321c                alt_fd_list
 .data          0x0081339c        0x0 ../cmv_controller_bsp/\libhal_bsp.a(alt_errno.o)
 .data          0x0081339c        0x0 ../cmv_controller_bsp/\libhal_bsp.a(alt_exit.o)
 .data          0x0081339c        0x0 ../cmv_controller_bsp/\libhal_bsp.a(alt_fstat.o)
 .data          0x0081339c        0x0 ../cmv_controller_bsp/\libhal_bsp.a(alt_getpid.o)
 .data          0x0081339c        0x0 ../cmv_controller_bsp/\libhal_bsp.a(alt_irq_register.o)
 .data          0x0081339c        0x0 ../cmv_controller_bsp/\libhal_bsp.a(alt_irq_vars.o)
 .data          0x0081339c        0x0 ../cmv_controller_bsp/\libhal_bsp.a(alt_isatty.o)
 .data          0x0081339c        0x0 ../cmv_controller_bsp/\libhal_bsp.a(alt_kill.o)
 .data          0x0081339c        0x0 ../cmv_controller_bsp/\libhal_bsp.a(alt_load.o)
 .data          0x0081339c        0x0 ../cmv_controller_bsp/\libhal_bsp.a(alt_lseek.o)
 .data          0x0081339c        0x0 ../cmv_controller_bsp/\libhal_bsp.a(alt_main.o)
 .data          0x0081339c        0x0 ../cmv_controller_bsp/\libhal_bsp.a(alt_malloc_lock.o)
 .data          0x0081339c        0x0 ../cmv_controller_bsp/\libhal_bsp.a(alt_read.o)
 .data          0x0081339c        0x0 ../cmv_controller_bsp/\libhal_bsp.a(alt_release_fd.o)
 .data          0x0081339c        0x0 ../cmv_controller_bsp/\libhal_bsp.a(alt_sbrk.o)
 .data          0x0081339c        0x0 ../cmv_controller_bsp/\libhal_bsp.a(alt_usleep.o)
 .data          0x0081339c        0x0 ../cmv_controller_bsp/\libhal_bsp.a(alt_write.o)
 .data          0x0081339c     0x1124 ../cmv_controller_bsp/\libhal_bsp.a(alt_sys_init.o)
 .data          0x008144c0        0x0 ../cmv_controller_bsp/\libhal_bsp.a(altera_avalon_jtag_uart_fd.o)
 .data          0x008144c0        0x0 ../cmv_controller_bsp/\libhal_bsp.a(altera_avalon_jtag_uart_init.o)
 .data          0x008144c0        0x0 ../cmv_controller_bsp/\libhal_bsp.a(altera_avalon_jtag_uart_ioctl.o)
 .data          0x008144c0        0x0 ../cmv_controller_bsp/\libhal_bsp.a(altera_avalon_jtag_uart_read.o)
 .data          0x008144c0        0x0 ../cmv_controller_bsp/\libhal_bsp.a(altera_avalon_jtag_uart_write.o)
 .data          0x008144c0        0x0 ../cmv_controller_bsp/\libhal_bsp.a(altera_avalon_spi.o)
 .data          0x008144c0        0x0 ../cmv_controller_bsp/\libhal_bsp.a(altera_avalon_uart_fd.o)
 .data          0x008144c0        0x0 ../cmv_controller_bsp/\libhal_bsp.a(altera_avalon_uart_init.o)
 .data          0x008144c0        0x0 ../cmv_controller_bsp/\libhal_bsp.a(altera_avalon_uart_read.o)
 .data          0x008144c0        0x0 ../cmv_controller_bsp/\libhal_bsp.a(altera_avalon_uart_write.o)
 .data          0x008144c0        0x0 ../cmv_controller_bsp/\libhal_bsp.a(alt_alarm_start.o)
 .data          0x008144c0        0x0 ../cmv_controller_bsp/\libhal_bsp.a(alt_busy_sleep.o)
 .data          0x008144c0        0x0 ../cmv_controller_bsp/\libhal_bsp.a(alt_dcache_flush_all.o)
 .data          0x008144c0        0x0 ../cmv_controller_bsp/\libhal_bsp.a(alt_dev_llist_insert.o)
 .data          0x008144c0        0x0 ../cmv_controller_bsp/\libhal_bsp.a(alt_do_ctors.o)
 .data          0x008144c0        0x0 ../cmv_controller_bsp/\libhal_bsp.a(alt_do_dtors.o)
 .data          0x008144c0        0x0 ../cmv_controller_bsp/\libhal_bsp.a(alt_icache_flush_all.o)
 .data          0x008144c0        0x0 ../cmv_controller_bsp/\libhal_bsp.a(alt_iic.o)
 .data          0x008144c0        0x0 ../cmv_controller_bsp/\libhal_bsp.a(alt_iic_isr_register.o)
 .data          0x008144c0        0x0 ../cmv_controller_bsp/\libhal_bsp.a(alt_io_redirect.o)
 .data          0x008144c0        0x0 ../cmv_controller_bsp/\libhal_bsp.a(alt_irq_entry.o)
 .data          0x008144c0        0x0 ../cmv_controller_bsp/\libhal_bsp.a(alt_irq_handler.o)
 .data          0x008144c0        0x0 ../cmv_controller_bsp/\libhal_bsp.a(alt_open.o)
 .data          0x008144c0        0x0 ../cmv_controller_bsp/\libhal_bsp.a(alt_tick.o)
 .data          0x008144c0        0x0 ../cmv_controller_bsp/\libhal_bsp.a(altera_nios2_qsys_irq.o)
 .data          0x008144c0        0x0 ../cmv_controller_bsp/\libhal_bsp.a(alt_exception_entry.o)
 .data          0x008144c0        0x0 ../cmv_controller_bsp/\libhal_bsp.a(alt_find_dev.o)
 .data          0x008144c0        0x0 ../cmv_controller_bsp/\libhal_bsp.a(alt_find_file.o)
 .data          0x008144c0        0x0 ../cmv_controller_bsp/\libhal_bsp.a(alt_get_fd.o)
 .data          0x008144c0        0x0 ../cmv_controller_bsp/\libhal_bsp.a(alt_icache_flush.o)
 .data          0x008144c0        0x0 c:/logicielge1/altera/13.0sp1/nios2eds/bin/gnu/h-i686-mingw32/bin/../lib/gcc/nios2-elf/4.1.2/../../../../nios2-elf/lib\libc.a(lib_a-atexit.o)
 .data          0x008144c0        0x0 c:/logicielge1/altera/13.0sp1/nios2eds/bin/gnu/h-i686-mingw32/bin/../lib/gcc/nios2-elf/4.1.2/../../../../nios2-elf/lib\libc.a(lib_a-exit.o)
 .data          0x008144c0        0x0 c:/logicielge1/altera/13.0sp1/nios2eds/bin/gnu/h-i686-mingw32/bin/../lib/gcc/nios2-elf/4.1.2/../../../../nios2-elf/lib\libc.a(lib_a-memcmp.o)
 .data          0x008144c0        0x0 c:/logicielge1/altera/13.0sp1/nios2eds/bin/gnu/h-i686-mingw32/bin/../lib/gcc/nios2-elf/4.1.2/../../../../nios2-elf/lib\libc.a(lib_a-__atexit.o)
 .data          0x008144c0        0x0 c:/logicielge1/altera/13.0sp1/nios2eds/bin/gnu/h-i686-mingw32/bin/../lib/gcc/nios2-elf/4.1.2/../../../../nios2-elf/lib\libc.a(lib_a-__call_atexit.o)
                0x0081c4c0                _gp = ABSOLUTE ((. + 0x8000))
                0x0081c4c0                PROVIDE (gp, _gp)
 *(.rwdata .rwdata.*)
 *(.sdata .sdata.* .gnu.linkonce.s.*)
 .sdata._ZTS3FSM
                0x008144c0        0x8 obj/default/FSM.o
                0x008144c0                typeinfo name for FSM
 .sdata._ZTI3FSM
                0x008144c8        0x8 obj/default/FSM.o
                0x008144c8                typeinfo for FSM
 .sdata._ZTS3PIO
                0x008144d0        0x8 obj/default/controller/PIO.o
                0x008144d0                typeinfo name for PIO
 .sdata._ZTI3PIO
                0x008144d8        0x8 obj/default/controller/PIO.o
                0x008144d8                typeinfo for PIO
 .sdata._ZTI7PIO_Bus
                0x008144e0        0x8 obj/default/controller/PIO_Bus.o
                0x008144e0                typeinfo for PIO_Bus
 .sdata._ZTI7PIO_Pin
                0x008144e8        0x8 obj/default/controller/PIO_Pin.o
                0x008144e8                typeinfo for PIO_Pin
 .sdata._ZTS3SPI
                0x008144f0        0x8 obj/default/controller/SPI.o
                0x008144f0                typeinfo name for SPI
 .sdata._ZTI3SPI
                0x008144f8        0x8 obj/default/controller/SPI.o
                0x008144f8                typeinfo for SPI
 .sdata._ZTS4UART
                0x00814500        0x8 obj/default/controller/UART.o
                0x00814500                typeinfo name for UART
 .sdata._ZTI4UART
                0x00814508        0x8 obj/default/controller/UART.o
                0x00814508                typeinfo for UART
 .sdata._ZTI4FIFOIcE
                0x00814510        0x8 obj/default/controller/UART.o
                0x00814510                typeinfo for FIFO<char>
 .sdata         0x00814518        0x4 c:/logicielge1/altera/13.0sp1/nios2eds/bin/gnu/h-i686-mingw32/bin/../lib/gcc/nios2-elf/4.1.2/../../../../nios2-elf/lib\libstdc++.a(eh_term_handler.o)
                0x00814518                __cxxabiv1::__terminate_handler
 .sdata         0x0081451c        0x4 c:/logicielge1/altera/13.0sp1/nios2eds/bin/gnu/h-i686-mingw32/bin/../lib/gcc/nios2-elf/4.1.2/../../../../nios2-elf/lib\libstdc++.a(eh_unex_handler.o)
                0x0081451c                __cxxabiv1::__unexpected_handler
 .sdata._ZTISt9exception
                0x00814520        0x8 c:/logicielge1/altera/13.0sp1/nios2eds/bin/gnu/h-i686-mingw32/bin/../lib/gcc/nios2-elf/4.1.2/../../../../nios2-elf/lib\libstdc++.a(eh_exception.o)
                0x00814520                typeinfo for std::exception
 .sdata._ZTIe   0x00814528        0x8 c:/logicielge1/altera/13.0sp1/nios2eds/bin/gnu/h-i686-mingw32/bin/../lib/gcc/nios2-elf/4.1.2/../../../../nios2-elf/lib\libstdc++.a(fundamental_type_info.o)
                0x00814528                typeinfo for long double
 .sdata._ZTId   0x00814530        0x8 c:/logicielge1/altera/13.0sp1/nios2eds/bin/gnu/h-i686-mingw32/bin/../lib/gcc/nios2-elf/4.1.2/../../../../nios2-elf/lib\libstdc++.a(fundamental_type_info.o)
                0x00814530                typeinfo for double
 .sdata._ZTIf   0x00814538        0x8 c:/logicielge1/altera/13.0sp1/nios2eds/bin/gnu/h-i686-mingw32/bin/../lib/gcc/nios2-elf/4.1.2/../../../../nios2-elf/lib\libstdc++.a(fundamental_type_info.o)
                0x00814538                typeinfo for float
 .sdata._ZTIy   0x00814540        0x8 c:/logicielge1/altera/13.0sp1/nios2eds/bin/gnu/h-i686-mingw32/bin/../lib/gcc/nios2-elf/4.1.2/../../../../nios2-elf/lib\libstdc++.a(fundamental_type_info.o)
                0x00814540                typeinfo for unsigned long long
 .sdata._ZTIx   0x00814548        0x8 c:/logicielge1/altera/13.0sp1/nios2eds/bin/gnu/h-i686-mingw32/bin/../lib/gcc/nios2-elf/4.1.2/../../../../nios2-elf/lib\libstdc++.a(fundamental_type_info.o)
                0x00814548                typeinfo for long long
 .sdata._ZTIm   0x00814550        0x8 c:/logicielge1/altera/13.0sp1/nios2eds/bin/gnu/h-i686-mingw32/bin/../lib/gcc/nios2-elf/4.1.2/../../../../nios2-elf/lib\libstdc++.a(fundamental_type_info.o)
                0x00814550                typeinfo for unsigned long
 .sdata._ZTIl   0x00814558        0x8 c:/logicielge1/altera/13.0sp1/nios2eds/bin/gnu/h-i686-mingw32/bin/../lib/gcc/nios2-elf/4.1.2/../../../../nios2-elf/lib\libstdc++.a(fundamental_type_info.o)
                0x00814558                typeinfo for long
 .sdata._ZTIj   0x00814560        0x8 c:/logicielge1/altera/13.0sp1/nios2eds/bin/gnu/h-i686-mingw32/bin/../lib/gcc/nios2-elf/4.1.2/../../../../nios2-elf/lib\libstdc++.a(fundamental_type_info.o)
                0x00814560                typeinfo for unsigned int
 .sdata._ZTIi   0x00814568        0x8 c:/logicielge1/altera/13.0sp1/nios2eds/bin/gnu/h-i686-mingw32/bin/../lib/gcc/nios2-elf/4.1.2/../../../../nios2-elf/lib\libstdc++.a(fundamental_type_info.o)
                0x00814568                typeinfo for int
 .sdata._ZTIt   0x00814570        0x8 c:/logicielge1/altera/13.0sp1/nios2eds/bin/gnu/h-i686-mingw32/bin/../lib/gcc/nios2-elf/4.1.2/../../../../nios2-elf/lib\libstdc++.a(fundamental_type_info.o)
                0x00814570                typeinfo for unsigned short
 .sdata._ZTIs   0x00814578        0x8 c:/logicielge1/altera/13.0sp1/nios2eds/bin/gnu/h-i686-mingw32/bin/../lib/gcc/nios2-elf/4.1.2/../../../../nios2-elf/lib\libstdc++.a(fundamental_type_info.o)
                0x00814578                typeinfo for short
 .sdata._ZTIh   0x00814580        0x8 c:/logicielge1/altera/13.0sp1/nios2eds/bin/gnu/h-i686-mingw32/bin/../lib/gcc/nios2-elf/4.1.2/../../../../nios2-elf/lib\libstdc++.a(fundamental_type_info.o)
                0x00814580                typeinfo for unsigned char
 .sdata._ZTIa   0x00814588        0x8 c:/logicielge1/altera/13.0sp1/nios2eds/bin/gnu/h-i686-mingw32/bin/../lib/gcc/nios2-elf/4.1.2/../../../../nios2-elf/lib\libstdc++.a(fundamental_type_info.o)
                0x00814588                typeinfo for signed char
 .sdata._ZTIc   0x00814590        0x8 c:/logicielge1/altera/13.0sp1/nios2eds/bin/gnu/h-i686-mingw32/bin/../lib/gcc/nios2-elf/4.1.2/../../../../nios2-elf/lib\libstdc++.a(fundamental_type_info.o)
                0x00814590                typeinfo for char
 .sdata._ZTIw   0x00814598        0x8 c:/logicielge1/altera/13.0sp1/nios2eds/bin/gnu/h-i686-mingw32/bin/../lib/gcc/nios2-elf/4.1.2/../../../../nios2-elf/lib\libstdc++.a(fundamental_type_info.o)
                0x00814598                typeinfo for wchar_t
 .sdata._ZTIb   0x008145a0        0x8 c:/logicielge1/altera/13.0sp1/nios2eds/bin/gnu/h-i686-mingw32/bin/../lib/gcc/nios2-elf/4.1.2/../../../../nios2-elf/lib\libstdc++.a(fundamental_type_info.o)
                0x008145a0                typeinfo for bool
 .sdata._ZTIv   0x008145a8        0x8 c:/logicielge1/altera/13.0sp1/nios2eds/bin/gnu/h-i686-mingw32/bin/../lib/gcc/nios2-elf/4.1.2/../../../../nios2-elf/lib\libstdc++.a(fundamental_type_info.o)
                0x008145a8                typeinfo for void
 .sdata._ZTSPKe
                0x008145b0        0x4 c:/logicielge1/altera/13.0sp1/nios2eds/bin/gnu/h-i686-mingw32/bin/../lib/gcc/nios2-elf/4.1.2/../../../../nios2-elf/lib\libstdc++.a(fundamental_type_info.o)
                0x008145b0                typeinfo name for long double const*
 .sdata._ZTSPe  0x008145b4        0x4 c:/logicielge1/altera/13.0sp1/nios2eds/bin/gnu/h-i686-mingw32/bin/../lib/gcc/nios2-elf/4.1.2/../../../../nios2-elf/lib\libstdc++.a(fundamental_type_info.o)
                0x008145b4                typeinfo name for long double*
 .sdata._ZTSe   0x008145b8        0x4 c:/logicielge1/altera/13.0sp1/nios2eds/bin/gnu/h-i686-mingw32/bin/../lib/gcc/nios2-elf/4.1.2/../../../../nios2-elf/lib\libstdc++.a(fundamental_type_info.o)
                0x008145b8                typeinfo name for long double
 .sdata._ZTSPKd
                0x008145bc        0x4 c:/logicielge1/altera/13.0sp1/nios2eds/bin/gnu/h-i686-mingw32/bin/../lib/gcc/nios2-elf/4.1.2/../../../../nios2-elf/lib\libstdc++.a(fundamental_type_info.o)
                0x008145bc                typeinfo name for double const*
 .sdata._ZTSPd  0x008145c0        0x4 c:/logicielge1/altera/13.0sp1/nios2eds/bin/gnu/h-i686-mingw32/bin/../lib/gcc/nios2-elf/4.1.2/../../../../nios2-elf/lib\libstdc++.a(fundamental_type_info.o)
                0x008145c0                typeinfo name for double*
 .sdata._ZTSd   0x008145c4        0x4 c:/logicielge1/altera/13.0sp1/nios2eds/bin/gnu/h-i686-mingw32/bin/../lib/gcc/nios2-elf/4.1.2/../../../../nios2-elf/lib\libstdc++.a(fundamental_type_info.o)
                0x008145c4                typeinfo name for double
 .sdata._ZTSPKf
                0x008145c8        0x4 c:/logicielge1/altera/13.0sp1/nios2eds/bin/gnu/h-i686-mingw32/bin/../lib/gcc/nios2-elf/4.1.2/../../../../nios2-elf/lib\libstdc++.a(fundamental_type_info.o)
                0x008145c8                typeinfo name for float const*
 .sdata._ZTSPf  0x008145cc        0x4 c:/logicielge1/altera/13.0sp1/nios2eds/bin/gnu/h-i686-mingw32/bin/../lib/gcc/nios2-elf/4.1.2/../../../../nios2-elf/lib\libstdc++.a(fundamental_type_info.o)
                0x008145cc                typeinfo name for float*
 .sdata._ZTSf   0x008145d0        0x4 c:/logicielge1/altera/13.0sp1/nios2eds/bin/gnu/h-i686-mingw32/bin/../lib/gcc/nios2-elf/4.1.2/../../../../nios2-elf/lib\libstdc++.a(fundamental_type_info.o)
                0x008145d0                typeinfo name for float
 .sdata._ZTSPKy
                0x008145d4        0x4 c:/logicielge1/altera/13.0sp1/nios2eds/bin/gnu/h-i686-mingw32/bin/../lib/gcc/nios2-elf/4.1.2/../../../../nios2-elf/lib\libstdc++.a(fundamental_type_info.o)
                0x008145d4                typeinfo name for unsigned long long const*
 .sdata._ZTSPy  0x008145d8        0x4 c:/logicielge1/altera/13.0sp1/nios2eds/bin/gnu/h-i686-mingw32/bin/../lib/gcc/nios2-elf/4.1.2/../../../../nios2-elf/lib\libstdc++.a(fundamental_type_info.o)
                0x008145d8                typeinfo name for unsigned long long*
 .sdata._ZTSy   0x008145dc        0x4 c:/logicielge1/altera/13.0sp1/nios2eds/bin/gnu/h-i686-mingw32/bin/../lib/gcc/nios2-elf/4.1.2/../../../../nios2-elf/lib\libstdc++.a(fundamental_type_info.o)
                0x008145dc                typeinfo name for unsigned long long
 .sdata._ZTSPKx
                0x008145e0        0x4 c:/logicielge1/altera/13.0sp1/nios2eds/bin/gnu/h-i686-mingw32/bin/../lib/gcc/nios2-elf/4.1.2/../../../../nios2-elf/lib\libstdc++.a(fundamental_type_info.o)
                0x008145e0                typeinfo name for long long const*
 .sdata._ZTSPx  0x008145e4        0x4 c:/logicielge1/altera/13.0sp1/nios2eds/bin/gnu/h-i686-mingw32/bin/../lib/gcc/nios2-elf/4.1.2/../../../../nios2-elf/lib\libstdc++.a(fundamental_type_info.o)
                0x008145e4                typeinfo name for long long*
 .sdata._ZTSx   0x008145e8        0x4 c:/logicielge1/altera/13.0sp1/nios2eds/bin/gnu/h-i686-mingw32/bin/../lib/gcc/nios2-elf/4.1.2/../../../../nios2-elf/lib\libstdc++.a(fundamental_type_info.o)
                0x008145e8                typeinfo name for long long
 .sdata._ZTSPKm
                0x008145ec        0x4 c:/logicielge1/altera/13.0sp1/nios2eds/bin/gnu/h-i686-mingw32/bin/../lib/gcc/nios2-elf/4.1.2/../../../../nios2-elf/lib\libstdc++.a(fundamental_type_info.o)
                0x008145ec                typeinfo name for unsigned long const*
 .sdata._ZTSPm  0x008145f0        0x4 c:/logicielge1/altera/13.0sp1/nios2eds/bin/gnu/h-i686-mingw32/bin/../lib/gcc/nios2-elf/4.1.2/../../../../nios2-elf/lib\libstdc++.a(fundamental_type_info.o)
                0x008145f0                typeinfo name for unsigned long*
 .sdata._ZTSm   0x008145f4        0x4 c:/logicielge1/altera/13.0sp1/nios2eds/bin/gnu/h-i686-mingw32/bin/../lib/gcc/nios2-elf/4.1.2/../../../../nios2-elf/lib\libstdc++.a(fundamental_type_info.o)
                0x008145f4                typeinfo name for unsigned long
 .sdata._ZTSPKl
                0x008145f8        0x4 c:/logicielge1/altera/13.0sp1/nios2eds/bin/gnu/h-i686-mingw32/bin/../lib/gcc/nios2-elf/4.1.2/../../../../nios2-elf/lib\libstdc++.a(fundamental_type_info.o)
                0x008145f8                typeinfo name for long const*
 .sdata._ZTSPl  0x008145fc        0x4 c:/logicielge1/altera/13.0sp1/nios2eds/bin/gnu/h-i686-mingw32/bin/../lib/gcc/nios2-elf/4.1.2/../../../../nios2-elf/lib\libstdc++.a(fundamental_type_info.o)
                0x008145fc                typeinfo name for long*
 .sdata._ZTSl   0x00814600        0x4 c:/logicielge1/altera/13.0sp1/nios2eds/bin/gnu/h-i686-mingw32/bin/../lib/gcc/nios2-elf/4.1.2/../../../../nios2-elf/lib\libstdc++.a(fundamental_type_info.o)
                0x00814600                typeinfo name for long
 .sdata._ZTSPKj
                0x00814604        0x4 c:/logicielge1/altera/13.0sp1/nios2eds/bin/gnu/h-i686-mingw32/bin/../lib/gcc/nios2-elf/4.1.2/../../../../nios2-elf/lib\libstdc++.a(fundamental_type_info.o)
                0x00814604                typeinfo name for unsigned int const*
 .sdata._ZTSPj  0x00814608        0x4 c:/logicielge1/altera/13.0sp1/nios2eds/bin/gnu/h-i686-mingw32/bin/../lib/gcc/nios2-elf/4.1.2/../../../../nios2-elf/lib\libstdc++.a(fundamental_type_info.o)
                0x00814608                typeinfo name for unsigned int*
 .sdata._ZTSj   0x0081460c        0x4 c:/logicielge1/altera/13.0sp1/nios2eds/bin/gnu/h-i686-mingw32/bin/../lib/gcc/nios2-elf/4.1.2/../../../../nios2-elf/lib\libstdc++.a(fundamental_type_info.o)
                0x0081460c                typeinfo name for unsigned int
 .sdata._ZTSPKi
                0x00814610        0x4 c:/logicielge1/altera/13.0sp1/nios2eds/bin/gnu/h-i686-mingw32/bin/../lib/gcc/nios2-elf/4.1.2/../../../../nios2-elf/lib\libstdc++.a(fundamental_type_info.o)
                0x00814610                typeinfo name for int const*
 .sdata._ZTSPi  0x00814614        0x4 c:/logicielge1/altera/13.0sp1/nios2eds/bin/gnu/h-i686-mingw32/bin/../lib/gcc/nios2-elf/4.1.2/../../../../nios2-elf/lib\libstdc++.a(fundamental_type_info.o)
                0x00814614                typeinfo name for int*
 .sdata._ZTSi   0x00814618        0x4 c:/logicielge1/altera/13.0sp1/nios2eds/bin/gnu/h-i686-mingw32/bin/../lib/gcc/nios2-elf/4.1.2/../../../../nios2-elf/lib\libstdc++.a(fundamental_type_info.o)
                0x00814618                typeinfo name for int
 .sdata._ZTSPKt
                0x0081461c        0x4 c:/logicielge1/altera/13.0sp1/nios2eds/bin/gnu/h-i686-mingw32/bin/../lib/gcc/nios2-elf/4.1.2/../../../../nios2-elf/lib\libstdc++.a(fundamental_type_info.o)
                0x0081461c                typeinfo name for unsigned short const*
 .sdata._ZTSPt  0x00814620        0x4 c:/logicielge1/altera/13.0sp1/nios2eds/bin/gnu/h-i686-mingw32/bin/../lib/gcc/nios2-elf/4.1.2/../../../../nios2-elf/lib\libstdc++.a(fundamental_type_info.o)
                0x00814620                typeinfo name for unsigned short*
 .sdata._ZTSt   0x00814624        0x4 c:/logicielge1/altera/13.0sp1/nios2eds/bin/gnu/h-i686-mingw32/bin/../lib/gcc/nios2-elf/4.1.2/../../../../nios2-elf/lib\libstdc++.a(fundamental_type_info.o)
                0x00814624                typeinfo name for unsigned short
 .sdata._ZTSPKs
                0x00814628        0x4 c:/logicielge1/altera/13.0sp1/nios2eds/bin/gnu/h-i686-mingw32/bin/../lib/gcc/nios2-elf/4.1.2/../../../../nios2-elf/lib\libstdc++.a(fundamental_type_info.o)
                0x00814628                typeinfo name for short const*
 .sdata._ZTSPs  0x0081462c        0x4 c:/logicielge1/altera/13.0sp1/nios2eds/bin/gnu/h-i686-mingw32/bin/../lib/gcc/nios2-elf/4.1.2/../../../../nios2-elf/lib\libstdc++.a(fundamental_type_info.o)
                0x0081462c                typeinfo name for short*
 .sdata._ZTSs   0x00814630        0x4 c:/logicielge1/altera/13.0sp1/nios2eds/bin/gnu/h-i686-mingw32/bin/../lib/gcc/nios2-elf/4.1.2/../../../../nios2-elf/lib\libstdc++.a(fundamental_type_info.o)
                0x00814630                typeinfo name for short
 .sdata._ZTSPKh
                0x00814634        0x4 c:/logicielge1/altera/13.0sp1/nios2eds/bin/gnu/h-i686-mingw32/bin/../lib/gcc/nios2-elf/4.1.2/../../../../nios2-elf/lib\libstdc++.a(fundamental_type_info.o)
                0x00814634                typeinfo name for unsigned char const*
 .sdata._ZTSPh  0x00814638        0x4 c:/logicielge1/altera/13.0sp1/nios2eds/bin/gnu/h-i686-mingw32/bin/../lib/gcc/nios2-elf/4.1.2/../../../../nios2-elf/lib\libstdc++.a(fundamental_type_info.o)
                0x00814638                typeinfo name for unsigned char*
 .sdata._ZTSh   0x0081463c        0x4 c:/logicielge1/altera/13.0sp1/nios2eds/bin/gnu/h-i686-mingw32/bin/../lib/gcc/nios2-elf/4.1.2/../../../../nios2-elf/lib\libstdc++.a(fundamental_type_info.o)
                0x0081463c                typeinfo name for unsigned char
 .sdata._ZTSPKa
                0x00814640        0x4 c:/logicielge1/altera/13.0sp1/nios2eds/bin/gnu/h-i686-mingw32/bin/../lib/gcc/nios2-elf/4.1.2/../../../../nios2-elf/lib\libstdc++.a(fundamental_type_info.o)
                0x00814640                typeinfo name for signed char const*
 .sdata._ZTSPa  0x00814644        0x4 c:/logicielge1/altera/13.0sp1/nios2eds/bin/gnu/h-i686-mingw32/bin/../lib/gcc/nios2-elf/4.1.2/../../../../nios2-elf/lib\libstdc++.a(fundamental_type_info.o)
                0x00814644                typeinfo name for signed char*
 .sdata._ZTSa   0x00814648        0x4 c:/logicielge1/altera/13.0sp1/nios2eds/bin/gnu/h-i686-mingw32/bin/../lib/gcc/nios2-elf/4.1.2/../../../../nios2-elf/lib\libstdc++.a(fundamental_type_info.o)
                0x00814648                typeinfo name for signed char
 .sdata._ZTSPKc
                0x0081464c        0x4 c:/logicielge1/altera/13.0sp1/nios2eds/bin/gnu/h-i686-mingw32/bin/../lib/gcc/nios2-elf/4.1.2/../../../../nios2-elf/lib\libstdc++.a(fundamental_type_info.o)
                0x0081464c                typeinfo name for char const*
 .sdata._ZTSPc  0x00814650        0x4 c:/logicielge1/altera/13.0sp1/nios2eds/bin/gnu/h-i686-mingw32/bin/../lib/gcc/nios2-elf/4.1.2/../../../../nios2-elf/lib\libstdc++.a(fundamental_type_info.o)
                0x00814650                typeinfo name for char*
 .sdata._ZTSc   0x00814654        0x4 c:/logicielge1/altera/13.0sp1/nios2eds/bin/gnu/h-i686-mingw32/bin/../lib/gcc/nios2-elf/4.1.2/../../../../nios2-elf/lib\libstdc++.a(fundamental_type_info.o)
                0x00814654                typeinfo name for char
 .sdata._ZTSPKw
                0x00814658        0x4 c:/logicielge1/altera/13.0sp1/nios2eds/bin/gnu/h-i686-mingw32/bin/../lib/gcc/nios2-elf/4.1.2/../../../../nios2-elf/lib\libstdc++.a(fundamental_type_info.o)
                0x00814658                typeinfo name for wchar_t const*
 .sdata._ZTSPw  0x0081465c        0x4 c:/logicielge1/altera/13.0sp1/nios2eds/bin/gnu/h-i686-mingw32/bin/../lib/gcc/nios2-elf/4.1.2/../../../../nios2-elf/lib\libstdc++.a(fundamental_type_info.o)
                0x0081465c                typeinfo name for wchar_t*
 .sdata._ZTSw   0x00814660        0x4 c:/logicielge1/altera/13.0sp1/nios2eds/bin/gnu/h-i686-mingw32/bin/../lib/gcc/nios2-elf/4.1.2/../../../../nios2-elf/lib\libstdc++.a(fundamental_type_info.o)
                0x00814660                typeinfo name for wchar_t
 .sdata._ZTSPKb
                0x00814664        0x4 c:/logicielge1/altera/13.0sp1/nios2eds/bin/gnu/h-i686-mingw32/bin/../lib/gcc/nios2-elf/4.1.2/../../../../nios2-elf/lib\libstdc++.a(fundamental_type_info.o)
                0x00814664                typeinfo name for bool const*
 .sdata._ZTSPb  0x00814668        0x4 c:/logicielge1/altera/13.0sp1/nios2eds/bin/gnu/h-i686-mingw32/bin/../lib/gcc/nios2-elf/4.1.2/../../../../nios2-elf/lib\libstdc++.a(fundamental_type_info.o)
                0x00814668                typeinfo name for bool*
 .sdata._ZTSb   0x0081466c        0x4 c:/logicielge1/altera/13.0sp1/nios2eds/bin/gnu/h-i686-mingw32/bin/../lib/gcc/nios2-elf/4.1.2/../../../../nios2-elf/lib\libstdc++.a(fundamental_type_info.o)
                0x0081466c                typeinfo name for bool
 .sdata._ZTSPKv
                0x00814670        0x4 c:/logicielge1/altera/13.0sp1/nios2eds/bin/gnu/h-i686-mingw32/bin/../lib/gcc/nios2-elf/4.1.2/../../../../nios2-elf/lib\libstdc++.a(fundamental_type_info.o)
                0x00814670                typeinfo name for void const*
 .sdata._ZTSPv  0x00814674        0x4 c:/logicielge1/altera/13.0sp1/nios2eds/bin/gnu/h-i686-mingw32/bin/../lib/gcc/nios2-elf/4.1.2/../../../../nios2-elf/lib\libstdc++.a(fundamental_type_info.o)
                0x00814674                typeinfo name for void*
 .sdata._ZTSv   0x00814678        0x4 c:/logicielge1/altera/13.0sp1/nios2eds/bin/gnu/h-i686-mingw32/bin/../lib/gcc/nios2-elf/4.1.2/../../../../nios2-elf/lib\libstdc++.a(fundamental_type_info.o)
                0x00814678                typeinfo name for void
 .sdata         0x0081467c        0x1 c:/logicielge1/altera/13.0sp1/nios2eds/bin/gnu/h-i686-mingw32/bin/../lib/gcc/nios2-elf/4.1.2/../../../../nios2-elf/lib\libstdc++.a(new_handler.o)
                0x0081467c                std::nothrow
 *fill*         0x0081467d        0x3 00
 .sdata._ZTISt9type_info
                0x00814680        0x8 c:/logicielge1/altera/13.0sp1/nios2eds/bin/gnu/h-i686-mingw32/bin/../lib/gcc/nios2-elf/4.1.2/../../../../nios2-elf/lib\libstdc++.a(tinfo.o)
                0x00814680                typeinfo for std::type_info
 .sdata         0x00814688        0x8 c:/logicielge1/altera/13.0sp1/nios2eds/bin/gnu/h-i686-mingw32/bin/../lib/gcc/nios2-elf/4.1.2/../../../../nios2-elf/lib\libc.a(lib_a-mallocr.o)
                0x00814688                __malloc_trim_threshold
                0x0081468c                __malloc_sbrk_base
 .sdata         0x00814690        0x8 c:/logicielge1/altera/13.0sp1/nios2eds/bin/gnu/h-i686-mingw32/bin/../lib/gcc/nios2-elf/4.1.2/../../../../nios2-elf/lib\libc.a(lib_a-impure.o)
                0x00814690                _impure_ptr
                0x00814694                _global_impure_ptr
 .sdata         0x00814698        0x8 c:/logicielge1/altera/13.0sp1/nios2eds/bin/gnu/h-i686-mingw32/bin/../lib/gcc/nios2-elf/4.1.2/../../../../nios2-elf/lib\libc.a(lib_a-locale.o)
                0x00814698                __mb_cur_max
 .sdata         0x008146a0       0x14 ../cmv_controller_bsp/\libhal_bsp.a(alt_dev.o)
                0x008146a0                alt_fs_list
                0x008146a8                alt_dev_list
                0x008146b0                alt_max_fd
 .sdata         0x008146b4        0x4 ../cmv_controller_bsp/\libhal_bsp.a(alt_errno.o)
                0x008146b4                alt_errno
 .sdata         0x008146b8        0x4 ../cmv_controller_bsp/\libhal_bsp.a(alt_irq_vars.o)
                0x008146b8                alt_priority_mask
 .sdata         0x008146bc        0x4 ../cmv_controller_bsp/\libhal_bsp.a(alt_sbrk.o)
 .sdata         0x008146c0        0x8 ../cmv_controller_bsp/\libhal_bsp.a(alt_tick.o)
                0x008146c0                alt_alarm_list
 *(.sdata2 .sdata2.* .gnu.linkonce.s2.*)
                0x008146c8                . = ALIGN (0x4)
                0x008146c8                _edata = ABSOLUTE (.)
                0x008146c8                PROVIDE (edata, ABSOLUTE (.))
                0x008146c8                PROVIDE (__ram_rwdata_end, ABSOLUTE (.))
                0x008146c8                PROVIDE (__flash_rwdata_start, LOADADDR (.rwdata))

.bss            0x008163b0      0xb00
                0x008163b0                __bss_start = ABSOLUTE (.)
                0x008163b0                PROVIDE (__sbss_start, ABSOLUTE (.))
                0x008163b0                PROVIDE (___sbss_start, ABSOLUTE (.))
 *(.dynsbss)
 *(.sbss .sbss.* .gnu.linkonce.sb.*)
 .sbss          0x008163b0        0x8 c:/logicielge1/altera/13.0sp1/nios2eds/bin/gnu/h-i686-mingw32/bin/../lib/gcc/nios2-elf/4.1.2/../../../../nios2-elf/lib\libstdc++.a(eh_globals.o)
 .sbss          0x008163b8        0x4 c:/logicielge1/altera/13.0sp1/nios2eds/bin/gnu/h-i686-mingw32/bin/../lib/gcc/nios2-elf/4.1.2/../../../../nios2-elf/lib\libstdc++.a(new_handler.o)
                0x008163b8                __new_handler
 .sbss          0x008163bc        0x4 c:/logicielge1/altera/13.0sp1/nios2eds/bin/gnu/h-i686-mingw32/bin/../lib/gcc/nios2-elf/4.1.2/../../../../nios2-elf/lib\libstdc++.a(eh_alloc.o)
 .sbss          0x008163c0        0x4 c:/logicielge1/altera/13.0sp1/nios2eds/bin/gnu/h-i686-mingw32/bin/../lib/gcc/nios2-elf/4.1.2\libgcc.a(unwind-sjlj.o)
 .sbss          0x008163c4        0xc c:/logicielge1/altera/13.0sp1/nios2eds/bin/gnu/h-i686-mingw32/bin/../lib/gcc/nios2-elf/4.1.2/../../../../nios2-elf/lib\libc.a(lib_a-mallocr.o)
                0x008163c4                __malloc_top_pad
                0x008163c8                __malloc_max_sbrked_mem
                0x008163cc                __malloc_max_total_mem
 .sbss          0x008163d0        0x4 c:/logicielge1/altera/13.0sp1/nios2eds/bin/gnu/h-i686-mingw32/bin/../lib/gcc/nios2-elf/4.1.2/../../../../nios2-elf/lib\libc.a(lib_a-int_errno.o)
                0x008163d0                errno
 .sbss          0x008163d4        0xc c:/logicielge1/altera/13.0sp1/nios2eds/bin/gnu/h-i686-mingw32/bin/../lib/gcc/nios2-elf/4.1.2/../../../../nios2-elf/lib\libc.a(lib_a-locale.o)
                0x008163d4                __nlocale_changed
                0x008163d8                __mlocale_changed
                0x008163dc                _PathLocale
 .sbss          0x008163e0        0x4 ../cmv_controller_bsp/\libhal_bsp.a(alt_irq_vars.o)
                0x008163e0                alt_irq_active
 .sbss          0x008163e4        0xc ../cmv_controller_bsp/\libhal_bsp.a(alt_main.o)
                0x008163e4                alt_argc
                0x008163e8                alt_argv
                0x008163ec                alt_envp
 .sbss          0x008163f0        0x8 ../cmv_controller_bsp/\libhal_bsp.a(alt_tick.o)
                0x008163f0                _alt_tick_rate
                0x008163f4                _alt_nticks
 *(.sbss2 .sbss2.* .gnu.linkonce.sb2.*)
 *(.scommon)
                0x008163f8                PROVIDE (__sbss_end, ABSOLUTE (.))
                0x008163f8                PROVIDE (___sbss_end, ABSOLUTE (.))
 *(.dynbss)
 *(.bss .bss.* .gnu.linkonce.b.*)
 .bss           0x008163f8        0x0 ../cmv_controller_bsp//obj/HAL/src/crt0.o
 .bss           0x008163f8        0x0 obj/default/FSM.o
 .bss           0x008163f8        0x0 obj/default/controller/PIO.o
 .bss           0x008163f8        0x0 obj/default/controller/PIO_Bus.o
 .bss           0x008163f8        0x0 obj/default/controller/PIO_Pin.o
 .bss           0x008163f8        0x0 obj/default/controller/SPI.o
 .bss           0x008163f8        0x0 obj/default/controller/UART.o
 .bss           0x008163f8        0x0 obj/default/main.o
 .bss           0x008163f8        0x0 c:/logicielge1/altera/13.0sp1/nios2eds/bin/gnu/h-i686-mingw32/bin/../lib/gcc/nios2-elf/4.1.2/../../../../nios2-elf/lib\libstdc++.a(eh_throw.o)
 .bss           0x008163f8        0x0 c:/logicielge1/altera/13.0sp1/nios2eds/bin/gnu/h-i686-mingw32/bin/../lib/gcc/nios2-elf/4.1.2/../../../../nios2-elf/lib\libstdc++.a(eh_term_handler.o)
 .bss           0x008163f8        0x0 c:/logicielge1/altera/13.0sp1/nios2eds/bin/gnu/h-i686-mingw32/bin/../lib/gcc/nios2-elf/4.1.2/../../../../nios2-elf/lib\libstdc++.a(new_opv.o)
 .bss           0x008163f8        0x0 c:/logicielge1/altera/13.0sp1/nios2eds/bin/gnu/h-i686-mingw32/bin/../lib/gcc/nios2-elf/4.1.2/../../../../nios2-elf/lib\libstdc++.a(eh_catch.o)
 .bss           0x008163f8        0x0 c:/logicielge1/altera/13.0sp1/nios2eds/bin/gnu/h-i686-mingw32/bin/../lib/gcc/nios2-elf/4.1.2/../../../../nios2-elf/lib\libstdc++.a(del_op.o)
 .bss           0x008163f8        0x0 c:/logicielge1/altera/13.0sp1/nios2eds/bin/gnu/h-i686-mingw32/bin/../lib/gcc/nios2-elf/4.1.2/../../../../nios2-elf/lib\libstdc++.a(del_opv.o)
 .bss           0x008163f8        0x0 c:/logicielge1/altera/13.0sp1/nios2eds/bin/gnu/h-i686-mingw32/bin/../lib/gcc/nios2-elf/4.1.2/../../../../nios2-elf/lib\libstdc++.a(eh_unex_handler.o)
 .bss           0x008163f8        0x0 c:/logicielge1/altera/13.0sp1/nios2eds/bin/gnu/h-i686-mingw32/bin/../lib/gcc/nios2-elf/4.1.2/../../../../nios2-elf/lib\libstdc++.a(eh_personality.o)
 .bss           0x008163f8        0x0 c:/logicielge1/altera/13.0sp1/nios2eds/bin/gnu/h-i686-mingw32/bin/../lib/gcc/nios2-elf/4.1.2/../../../../nios2-elf/lib\libstdc++.a(class_type_info.o)
 .bss           0x008163f8        0x0 c:/logicielge1/altera/13.0sp1/nios2eds/bin/gnu/h-i686-mingw32/bin/../lib/gcc/nios2-elf/4.1.2/../../../../nios2-elf/lib\libstdc++.a(si_class_type_info.o)
 .bss           0x008163f8        0x0 c:/logicielge1/altera/13.0sp1/nios2eds/bin/gnu/h-i686-mingw32/bin/../lib/gcc/nios2-elf/4.1.2/../../../../nios2-elf/lib\libstdc++.a(eh_globals.o)
 .bss           0x008163f8        0x0 c:/logicielge1/altera/13.0sp1/nios2eds/bin/gnu/h-i686-mingw32/bin/../lib/gcc/nios2-elf/4.1.2/../../../../nios2-elf/lib\libstdc++.a(eh_terminate.o)
 .bss           0x008163f8        0x0 c:/logicielge1/altera/13.0sp1/nios2eds/bin/gnu/h-i686-mingw32/bin/../lib/gcc/nios2-elf/4.1.2/../../../../nios2-elf/lib\libstdc++.a(new_op.o)
 .bss           0x008163f8        0x0 c:/logicielge1/altera/13.0sp1/nios2eds/bin/gnu/h-i686-mingw32/bin/../lib/gcc/nios2-elf/4.1.2/../../../../nios2-elf/lib\libstdc++.a(eh_call.o)
 .bss           0x008163f8        0x0 c:/logicielge1/altera/13.0sp1/nios2eds/bin/gnu/h-i686-mingw32/bin/../lib/gcc/nios2-elf/4.1.2/../../../../nios2-elf/lib\libstdc++.a(eh_exception.o)
 .bss           0x008163f8        0x0 c:/logicielge1/altera/13.0sp1/nios2eds/bin/gnu/h-i686-mingw32/bin/../lib/gcc/nios2-elf/4.1.2/../../../../nios2-elf/lib\libstdc++.a(fundamental_type_info.o)
 .bss           0x008163f8        0x0 c:/logicielge1/altera/13.0sp1/nios2eds/bin/gnu/h-i686-mingw32/bin/../lib/gcc/nios2-elf/4.1.2/../../../../nios2-elf/lib\libstdc++.a(new_handler.o)
 .bss           0x008163f8      0x800 c:/logicielge1/altera/13.0sp1/nios2eds/bin/gnu/h-i686-mingw32/bin/../lib/gcc/nios2-elf/4.1.2/../../../../nios2-elf/lib\libstdc++.a(eh_alloc.o)
 .bss           0x00816bf8        0x0 c:/logicielge1/altera/13.0sp1/nios2eds/bin/gnu/h-i686-mingw32/bin/../lib/gcc/nios2-elf/4.1.2/../../../../nios2-elf/lib\libstdc++.a(tinfo.o)
 .bss           0x00816bf8        0x0 c:/logicielge1/altera/13.0sp1/nios2eds/bin/gnu/h-i686-mingw32/bin/../lib/gcc/nios2-elf/4.1.2/../../../../nios2-elf/lib\libstdc++.a(pointer_type_info.o)
 .bss           0x00816bf8        0x0 c:/logicielge1/altera/13.0sp1/nios2eds/bin/gnu/h-i686-mingw32/bin/../lib/gcc/nios2-elf/4.1.2/../../../../nios2-elf/lib\libstdc++.a(pbase_type_info.o)
 .bss           0x00816bf8        0x0 c:/logicielge1/altera/13.0sp1/nios2eds/bin/gnu/h-i686-mingw32/bin/../lib/gcc/nios2-elf/4.1.2\libgcc.a(unwind-sjlj.o)
 .bss           0x00816bf8        0x0 c:/logicielge1/altera/13.0sp1/nios2eds/bin/gnu/h-i686-mingw32/bin/../lib/gcc/nios2-elf/4.1.2/../../../../nios2-elf/lib\libc.a(lib_a-abort.o)
 .bss           0x00816bf8        0x0 c:/logicielge1/altera/13.0sp1/nios2eds/bin/gnu/h-i686-mingw32/bin/../lib/gcc/nios2-elf/4.1.2/../../../../nios2-elf/lib\libc.a(lib_a-malloc.o)
 .bss           0x00816bf8       0x28 c:/logicielge1/altera/13.0sp1/nios2eds/bin/gnu/h-i686-mingw32/bin/../lib/gcc/nios2-elf/4.1.2/../../../../nios2-elf/lib\libc.a(lib_a-mallocr.o)
                0x00816bf8                __malloc_current_mallinfo
 .bss           0x00816c20        0x0 c:/logicielge1/altera/13.0sp1/nios2eds/bin/gnu/h-i686-mingw32/bin/../lib/gcc/nios2-elf/4.1.2/../../../../nios2-elf/lib\libc.a(lib_a-memset.o)
 .bss           0x00816c20        0x0 c:/logicielge1/altera/13.0sp1/nios2eds/bin/gnu/h-i686-mingw32/bin/../lib/gcc/nios2-elf/4.1.2/../../../../nios2-elf/lib\libc.a(lib_a-printf.o)
 .bss           0x00816c20        0x0 c:/logicielge1/altera/13.0sp1/nios2eds/bin/gnu/h-i686-mingw32/bin/../lib/gcc/nios2-elf/4.1.2/../../../../nios2-elf/lib\libc.a(lib_a-sbrkr.o)
 .bss           0x00816c20        0x0 c:/logicielge1/altera/13.0sp1/nios2eds/bin/gnu/h-i686-mingw32/bin/../lib/gcc/nios2-elf/4.1.2/../../../../nios2-elf/lib\libc.a(lib_a-signal.o)
 .bss           0x00816c20        0x0 c:/logicielge1/altera/13.0sp1/nios2eds/bin/gnu/h-i686-mingw32/bin/../lib/gcc/nios2-elf/4.1.2/../../../../nios2-elf/lib\libc.a(lib_a-signalr.o)
 .bss           0x00816c20        0x0 c:/logicielge1/altera/13.0sp1/nios2eds/bin/gnu/h-i686-mingw32/bin/../lib/gcc/nios2-elf/4.1.2/../../../../nios2-elf/lib\libc.a(lib_a-strlen.o)
 .bss           0x00816c20        0x0 c:/logicielge1/altera/13.0sp1/nios2eds/bin/gnu/h-i686-mingw32/bin/../lib/gcc/nios2-elf/4.1.2/../../../../nios2-elf/lib\libc.a(lib_a-vfprintf.o)
 .bss           0x00816c20        0x0 c:/logicielge1/altera/13.0sp1/nios2eds/bin/gnu/h-i686-mingw32/bin/../lib/gcc/nios2-elf/4.1.2/../../../../nios2-elf/lib\libc.a(lib_a-vsnprintf.o)
 .bss           0x00816c20        0x0 c:/logicielge1/altera/13.0sp1/nios2eds/bin/gnu/h-i686-mingw32/bin/../lib/gcc/nios2-elf/4.1.2/../../../../nios2-elf/lib\libc.a(lib_a-wsetup.o)
 .bss           0x00816c20        0x0 c:/logicielge1/altera/13.0sp1/nios2eds/bin/gnu/h-i686-mingw32/bin/../lib/gcc/nios2-elf/4.1.2/../../../../nios2-elf/lib\libc.a(lib_a-dtoa.o)
 .bss           0x00816c20        0x0 c:/logicielge1/altera/13.0sp1/nios2eds/bin/gnu/h-i686-mingw32/bin/../lib/gcc/nios2-elf/4.1.2/../../../../nios2-elf/lib\libc.a(lib_a-fflush.o)
 .bss           0x00816c20        0x0 c:/logicielge1/altera/13.0sp1/nios2eds/bin/gnu/h-i686-mingw32/bin/../lib/gcc/nios2-elf/4.1.2/../../../../nios2-elf/lib\libc.a(lib_a-findfp.o)
 .bss           0x00816c20        0x0 c:/logicielge1/altera/13.0sp1/nios2eds/bin/gnu/h-i686-mingw32/bin/../lib/gcc/nios2-elf/4.1.2/../../../../nios2-elf/lib\libc.a(lib_a-freer.o)
 .bss           0x00816c20        0x0 c:/logicielge1/altera/13.0sp1/nios2eds/bin/gnu/h-i686-mingw32/bin/../lib/gcc/nios2-elf/4.1.2/../../../../nios2-elf/lib\libc.a(lib_a-fvwrite.o)
 .bss           0x00816c20        0x0 c:/logicielge1/altera/13.0sp1/nios2eds/bin/gnu/h-i686-mingw32/bin/../lib/gcc/nios2-elf/4.1.2/../../../../nios2-elf/lib\libc.a(lib_a-fwalk.o)
 .bss           0x00816c20        0x0 c:/logicielge1/altera/13.0sp1/nios2eds/bin/gnu/h-i686-mingw32/bin/../lib/gcc/nios2-elf/4.1.2/../../../../nios2-elf/lib\libc.a(lib_a-impure.o)
 .bss           0x00816c20        0x0 c:/logicielge1/altera/13.0sp1/nios2eds/bin/gnu/h-i686-mingw32/bin/../lib/gcc/nios2-elf/4.1.2/../../../../nios2-elf/lib\libc.a(lib_a-int_errno.o)
 .bss           0x00816c20        0x0 c:/logicielge1/altera/13.0sp1/nios2eds/bin/gnu/h-i686-mingw32/bin/../lib/gcc/nios2-elf/4.1.2/../../../../nios2-elf/lib\libc.a(lib_a-locale.o)
 .bss           0x00816c20        0x0 c:/logicielge1/altera/13.0sp1/nios2eds/bin/gnu/h-i686-mingw32/bin/../lib/gcc/nios2-elf/4.1.2/../../../../nios2-elf/lib\libc.a(lib_a-makebuf.o)
 .bss           0x00816c20        0x0 c:/logicielge1/altera/13.0sp1/nios2eds/bin/gnu/h-i686-mingw32/bin/../lib/gcc/nios2-elf/4.1.2/../../../../nios2-elf/lib\libc.a(lib_a-memchr.o)
 .bss           0x00816c20        0x0 c:/logicielge1/altera/13.0sp1/nios2eds/bin/gnu/h-i686-mingw32/bin/../lib/gcc/nios2-elf/4.1.2/../../../../nios2-elf/lib\libc.a(lib_a-memcpy.o)
 .bss           0x00816c20        0x0 c:/logicielge1/altera/13.0sp1/nios2eds/bin/gnu/h-i686-mingw32/bin/../lib/gcc/nios2-elf/4.1.2/../../../../nios2-elf/lib\libc.a(lib_a-memmove.o)
 .bss           0x00816c20        0x0 c:/logicielge1/altera/13.0sp1/nios2eds/bin/gnu/h-i686-mingw32/bin/../lib/gcc/nios2-elf/4.1.2/../../../../nios2-elf/lib\libc.a(lib_a-mprec.o)
 .bss           0x00816c20        0x0 c:/logicielge1/altera/13.0sp1/nios2eds/bin/gnu/h-i686-mingw32/bin/../lib/gcc/nios2-elf/4.1.2/../../../../nios2-elf/lib\libc.a(lib_a-reallocr.o)
 .bss           0x00816c20        0x0 c:/logicielge1/altera/13.0sp1/nios2eds/bin/gnu/h-i686-mingw32/bin/../lib/gcc/nios2-elf/4.1.2/../../../../nios2-elf/lib\libc.a(lib_a-s_isinfd.o)
 .bss           0x00816c20        0x0 c:/logicielge1/altera/13.0sp1/nios2eds/bin/gnu/h-i686-mingw32/bin/../lib/gcc/nios2-elf/4.1.2/../../../../nios2-elf/lib\libc.a(lib_a-s_isnand.o)
 .bss           0x00816c20        0x0 c:/logicielge1/altera/13.0sp1/nios2eds/bin/gnu/h-i686-mingw32/bin/../lib/gcc/nios2-elf/4.1.2/../../../../nios2-elf/lib\libc.a(lib_a-stdio.o)
 .bss           0x00816c20        0x0 c:/logicielge1/altera/13.0sp1/nios2eds/bin/gnu/h-i686-mingw32/bin/../lib/gcc/nios2-elf/4.1.2/../../../../nios2-elf/lib\libc.a(lib_a-strcmp.o)
 .bss           0x00816c20        0x0 c:/logicielge1/altera/13.0sp1/nios2eds/bin/gnu/h-i686-mingw32/bin/../lib/gcc/nios2-elf/4.1.2/../../../../nios2-elf/lib\libc.a(lib_a-writer.o)
 .bss           0x00816c20        0x0 c:/logicielge1/altera/13.0sp1/nios2eds/bin/gnu/h-i686-mingw32/bin/../lib/gcc/nios2-elf/4.1.2/../../../../nios2-elf/lib\libc.a(lib_a-callocr.o)
 .bss           0x00816c20        0x0 c:/logicielge1/altera/13.0sp1/nios2eds/bin/gnu/h-i686-mingw32/bin/../lib/gcc/nios2-elf/4.1.2/../../../../nios2-elf/lib\libc.a(lib_a-closer.o)
 .bss           0x00816c20        0x0 c:/logicielge1/altera/13.0sp1/nios2eds/bin/gnu/h-i686-mingw32/bin/../lib/gcc/nios2-elf/4.1.2/../../../../nios2-elf/lib\libc.a(lib_a-fclose.o)
 .bss           0x00816c20        0x0 c:/logicielge1/altera/13.0sp1/nios2eds/bin/gnu/h-i686-mingw32/bin/../lib/gcc/nios2-elf/4.1.2/../../../../nios2-elf/lib\libc.a(lib_a-fstatr.o)
 .bss           0x00816c20        0x0 c:/logicielge1/altera/13.0sp1/nios2eds/bin/gnu/h-i686-mingw32/bin/../lib/gcc/nios2-elf/4.1.2/../../../../nios2-elf/lib\libc.a(lib_a-isattyr.o)
 .bss           0x00816c20        0x0 c:/logicielge1/altera/13.0sp1/nios2eds/bin/gnu/h-i686-mingw32/bin/../lib/gcc/nios2-elf/4.1.2/../../../../nios2-elf/lib\libc.a(lib_a-lseekr.o)
 .bss           0x00816c20        0x0 c:/logicielge1/altera/13.0sp1/nios2eds/bin/gnu/h-i686-mingw32/bin/../lib/gcc/nios2-elf/4.1.2/../../../../nios2-elf/lib\libc.a(lib_a-readr.o)
 .bss           0x00816c20        0x0 c:/logicielge1/altera/13.0sp1/nios2eds/bin/gnu/h-i686-mingw32/bin/../lib/gcc/nios2-elf/4.1.2\libgcc.a(_udivdi3.o)
 .bss           0x00816c20        0x0 c:/logicielge1/altera/13.0sp1/nios2eds/bin/gnu/h-i686-mingw32/bin/../lib/gcc/nios2-elf/4.1.2\libgcc.a(_umoddi3.o)
 .bss           0x00816c20        0x0 c:/logicielge1/altera/13.0sp1/nios2eds/bin/gnu/h-i686-mingw32/bin/../lib/gcc/nios2-elf/4.1.2\libgcc.a(_addsub_df.o)
 .bss           0x00816c20        0x0 c:/logicielge1/altera/13.0sp1/nios2eds/bin/gnu/h-i686-mingw32/bin/../lib/gcc/nios2-elf/4.1.2\libgcc.a(_mul_df.o)
 .bss           0x00816c20        0x0 c:/logicielge1/altera/13.0sp1/nios2eds/bin/gnu/h-i686-mingw32/bin/../lib/gcc/nios2-elf/4.1.2\libgcc.a(_div_df.o)
 .bss           0x00816c20        0x0 c:/logicielge1/altera/13.0sp1/nios2eds/bin/gnu/h-i686-mingw32/bin/../lib/gcc/nios2-elf/4.1.2\libgcc.a(_eq_df.o)
 .bss           0x00816c20        0x0 c:/logicielge1/altera/13.0sp1/nios2eds/bin/gnu/h-i686-mingw32/bin/../lib/gcc/nios2-elf/4.1.2\libgcc.a(_ne_df.o)
 .bss           0x00816c20        0x0 c:/logicielge1/altera/13.0sp1/nios2eds/bin/gnu/h-i686-mingw32/bin/../lib/gcc/nios2-elf/4.1.2\libgcc.a(_gt_df.o)
 .bss           0x00816c20        0x0 c:/logicielge1/altera/13.0sp1/nios2eds/bin/gnu/h-i686-mingw32/bin/../lib/gcc/nios2-elf/4.1.2\libgcc.a(_ge_df.o)
 .bss           0x00816c20        0x0 c:/logicielge1/altera/13.0sp1/nios2eds/bin/gnu/h-i686-mingw32/bin/../lib/gcc/nios2-elf/4.1.2\libgcc.a(_lt_df.o)
 .bss           0x00816c20        0x0 c:/logicielge1/altera/13.0sp1/nios2eds/bin/gnu/h-i686-mingw32/bin/../lib/gcc/nios2-elf/4.1.2\libgcc.a(_si_to_df.o)
 .bss           0x00816c20        0x0 c:/logicielge1/altera/13.0sp1/nios2eds/bin/gnu/h-i686-mingw32/bin/../lib/gcc/nios2-elf/4.1.2\libgcc.a(_df_to_si.o)
 .bss           0x00816c20        0x0 c:/logicielge1/altera/13.0sp1/nios2eds/bin/gnu/h-i686-mingw32/bin/../lib/gcc/nios2-elf/4.1.2\libgcc.a(_thenan_df.o)
 .bss           0x00816c20        0x0 c:/logicielge1/altera/13.0sp1/nios2eds/bin/gnu/h-i686-mingw32/bin/../lib/gcc/nios2-elf/4.1.2\libgcc.a(_usi_to_df.o)
 .bss           0x00816c20        0x0 c:/logicielge1/altera/13.0sp1/nios2eds/bin/gnu/h-i686-mingw32/bin/../lib/gcc/nios2-elf/4.1.2\libgcc.a(lib2-divmod.o)
 .bss           0x00816c20        0x0 c:/logicielge1/altera/13.0sp1/nios2eds/bin/gnu/h-i686-mingw32/bin/../lib/gcc/nios2-elf/4.1.2\libgcc.a(_muldi3.o)
 .bss           0x00816c20        0x0 c:/logicielge1/altera/13.0sp1/nios2eds/bin/gnu/h-i686-mingw32/bin/../lib/gcc/nios2-elf/4.1.2\libgcc.a(_clz.o)
 .bss           0x00816c20        0x0 c:/logicielge1/altera/13.0sp1/nios2eds/bin/gnu/h-i686-mingw32/bin/../lib/gcc/nios2-elf/4.1.2\libgcc.a(_clzsi2.o)
 .bss           0x00816c20        0x0 c:/logicielge1/altera/13.0sp1/nios2eds/bin/gnu/h-i686-mingw32/bin/../lib/gcc/nios2-elf/4.1.2\libgcc.a(_pack_df.o)
 .bss           0x00816c20        0x0 c:/logicielge1/altera/13.0sp1/nios2eds/bin/gnu/h-i686-mingw32/bin/../lib/gcc/nios2-elf/4.1.2\libgcc.a(_unpack_df.o)
 .bss           0x00816c20        0x0 c:/logicielge1/altera/13.0sp1/nios2eds/bin/gnu/h-i686-mingw32/bin/../lib/gcc/nios2-elf/4.1.2\libgcc.a(_fpcmp_parts_df.o)
 .bss           0x00816c20        0x0 ../cmv_controller_bsp/\libhal_bsp.a(alt_close.o)
 .bss           0x00816c20        0x0 ../cmv_controller_bsp/\libhal_bsp.a(alt_dev.o)
 .bss           0x00816c20        0x0 ../cmv_controller_bsp/\libhal_bsp.a(alt_errno.o)
 .bss           0x00816c20        0x0 ../cmv_controller_bsp/\libhal_bsp.a(alt_exit.o)
 .bss           0x00816c20        0x0 ../cmv_controller_bsp/\libhal_bsp.a(alt_fstat.o)
 .bss           0x00816c20        0x0 ../cmv_controller_bsp/\libhal_bsp.a(alt_getpid.o)
 .bss           0x00816c20        0x0 ../cmv_controller_bsp/\libhal_bsp.a(alt_irq_register.o)
 .bss           0x00816c20        0x0 ../cmv_controller_bsp/\libhal_bsp.a(alt_irq_vars.o)
 .bss           0x00816c20        0x0 ../cmv_controller_bsp/\libhal_bsp.a(alt_isatty.o)
 .bss           0x00816c20        0x0 ../cmv_controller_bsp/\libhal_bsp.a(alt_kill.o)
 .bss           0x00816c20        0x0 ../cmv_controller_bsp/\libhal_bsp.a(alt_load.o)
 .bss           0x00816c20        0x0 ../cmv_controller_bsp/\libhal_bsp.a(alt_lseek.o)
 .bss           0x00816c20        0x0 ../cmv_controller_bsp/\libhal_bsp.a(alt_main.o)
 .bss           0x00816c20        0x0 ../cmv_controller_bsp/\libhal_bsp.a(alt_malloc_lock.o)
 .bss           0x00816c20        0x0 ../cmv_controller_bsp/\libhal_bsp.a(alt_read.o)
 .bss           0x00816c20        0x0 ../cmv_controller_bsp/\libhal_bsp.a(alt_release_fd.o)
 .bss           0x00816c20        0x0 ../cmv_controller_bsp/\libhal_bsp.a(alt_sbrk.o)
 .bss           0x00816c20        0x0 ../cmv_controller_bsp/\libhal_bsp.a(alt_usleep.o)
 .bss           0x00816c20        0x0 ../cmv_controller_bsp/\libhal_bsp.a(alt_write.o)
 .bss           0x00816c20        0x0 ../cmv_controller_bsp/\libhal_bsp.a(alt_sys_init.o)
 .bss           0x00816c20        0x0 ../cmv_controller_bsp/\libhal_bsp.a(altera_avalon_jtag_uart_fd.o)
 .bss           0x00816c20        0x0 ../cmv_controller_bsp/\libhal_bsp.a(altera_avalon_jtag_uart_init.o)
 .bss           0x00816c20        0x0 ../cmv_controller_bsp/\libhal_bsp.a(altera_avalon_jtag_uart_ioctl.o)
 .bss           0x00816c20        0x0 ../cmv_controller_bsp/\libhal_bsp.a(altera_avalon_jtag_uart_read.o)
 .bss           0x00816c20        0x0 ../cmv_controller_bsp/\libhal_bsp.a(altera_avalon_jtag_uart_write.o)
 .bss           0x00816c20        0x0 ../cmv_controller_bsp/\libhal_bsp.a(altera_avalon_spi.o)
 .bss           0x00816c20        0x0 ../cmv_controller_bsp/\libhal_bsp.a(altera_avalon_uart_fd.o)
 .bss           0x00816c20        0x0 ../cmv_controller_bsp/\libhal_bsp.a(altera_avalon_uart_init.o)
 .bss           0x00816c20        0x0 ../cmv_controller_bsp/\libhal_bsp.a(altera_avalon_uart_read.o)
 .bss           0x00816c20        0x0 ../cmv_controller_bsp/\libhal_bsp.a(altera_avalon_uart_write.o)
 .bss           0x00816c20        0x0 ../cmv_controller_bsp/\libhal_bsp.a(alt_alarm_start.o)
 .bss           0x00816c20        0x0 ../cmv_controller_bsp/\libhal_bsp.a(alt_busy_sleep.o)
 .bss           0x00816c20        0x0 ../cmv_controller_bsp/\libhal_bsp.a(alt_dcache_flush_all.o)
 .bss           0x00816c20        0x0 ../cmv_controller_bsp/\libhal_bsp.a(alt_dev_llist_insert.o)
 .bss           0x00816c20        0x0 ../cmv_controller_bsp/\libhal_bsp.a(alt_do_ctors.o)
 .bss           0x00816c20        0x0 ../cmv_controller_bsp/\libhal_bsp.a(alt_do_dtors.o)
 .bss           0x00816c20        0x0 ../cmv_controller_bsp/\libhal_bsp.a(alt_icache_flush_all.o)
 .bss           0x00816c20        0x0 ../cmv_controller_bsp/\libhal_bsp.a(alt_iic.o)
 .bss           0x00816c20        0x0 ../cmv_controller_bsp/\libhal_bsp.a(alt_iic_isr_register.o)
 .bss           0x00816c20        0x0 ../cmv_controller_bsp/\libhal_bsp.a(alt_io_redirect.o)
 .bss           0x00816c20        0x0 ../cmv_controller_bsp/\libhal_bsp.a(alt_irq_entry.o)
 .bss           0x00816c20        0x0 ../cmv_controller_bsp/\libhal_bsp.a(alt_irq_handler.o)
 .bss           0x00816c20        0x0 ../cmv_controller_bsp/\libhal_bsp.a(alt_open.o)
 .bss           0x00816c20        0x0 ../cmv_controller_bsp/\libhal_bsp.a(alt_tick.o)
 .bss           0x00816c20        0x0 ../cmv_controller_bsp/\libhal_bsp.a(altera_nios2_qsys_irq.o)
 .bss           0x00816c20        0x0 ../cmv_controller_bsp/\libhal_bsp.a(alt_exception_entry.o)
 .bss           0x00816c20        0x0 ../cmv_controller_bsp/\libhal_bsp.a(alt_find_dev.o)
 .bss           0x00816c20        0x0 ../cmv_controller_bsp/\libhal_bsp.a(alt_find_file.o)
 .bss           0x00816c20        0x0 ../cmv_controller_bsp/\libhal_bsp.a(alt_get_fd.o)
 .bss           0x00816c20        0x0 ../cmv_controller_bsp/\libhal_bsp.a(alt_icache_flush.o)
 .bss           0x00816c20        0x0 c:/logicielge1/altera/13.0sp1/nios2eds/bin/gnu/h-i686-mingw32/bin/../lib/gcc/nios2-elf/4.1.2/../../../../nios2-elf/lib\libc.a(lib_a-atexit.o)
 .bss           0x00816c20        0x0 c:/logicielge1/altera/13.0sp1/nios2eds/bin/gnu/h-i686-mingw32/bin/../lib/gcc/nios2-elf/4.1.2/../../../../nios2-elf/lib\libc.a(lib_a-exit.o)
 .bss           0x00816c20        0x0 c:/logicielge1/altera/13.0sp1/nios2eds/bin/gnu/h-i686-mingw32/bin/../lib/gcc/nios2-elf/4.1.2/../../../../nios2-elf/lib\libc.a(lib_a-memcmp.o)
 .bss           0x00816c20        0x0 c:/logicielge1/altera/13.0sp1/nios2eds/bin/gnu/h-i686-mingw32/bin/../lib/gcc/nios2-elf/4.1.2/../../../../nios2-elf/lib\libc.a(lib_a-__atexit.o)
 .bss           0x00816c20        0x0 c:/logicielge1/altera/13.0sp1/nios2eds/bin/gnu/h-i686-mingw32/bin/../lib/gcc/nios2-elf/4.1.2/../../../../nios2-elf/lib\libc.a(lib_a-__call_atexit.o)
 *(COMMON)
 COMMON         0x00816c20      0x100 ../cmv_controller_bsp/\libhal_bsp.a(alt_irq_handler.o)
                0x00816c20                alt_irq
 COMMON         0x00816d20      0x190 c:/logicielge1/altera/13.0sp1/nios2eds/bin/gnu/h-i686-mingw32/bin/../lib/gcc/nios2-elf/4.1.2/../../../../nios2-elf/lib\libc.a(lib_a-atexit.o)
                0x00816d20                _atexit0
                0x00816eb0                . = ALIGN (0x4)
                0x00816eb0                __bss_end = ABSOLUTE (.)

.sdram_controller
                0x00816eb0        0x0
                0x00816eb0                PROVIDE (_alt_partition_sdram_controller_start, ABSOLUTE (.))
 *(.sdram_controller. sdram_controller.*)
                0x00816eb0                . = ALIGN (0x4)
                0x00816eb0                PROVIDE (_alt_partition_sdram_controller_end, ABSOLUTE (.))
                0x00816eb0                _end = ABSOLUTE (.)
                0x00816eb0                end = ABSOLUTE (.)
                0x00816eb0                __alt_stack_base = ABSOLUTE (.)
                0x00816eb0                PROVIDE (_alt_partition_sdram_controller_load_addr, LOADADDR (.sdram_controller))

.onchip_memory  0x010041b4        0x0 load address 0x00816eb0
                0x010041b4                PROVIDE (_alt_partition_onchip_memory_start, ABSOLUTE (.))
 *(.onchip_memory. onchip_memory.*)
                0x010041b4                . = ALIGN (0x4)
                0x010041b4                PROVIDE (_alt_partition_onchip_memory_end, ABSOLUTE (.))
                0x00816eb0                PROVIDE (_alt_partition_onchip_memory_load_addr, LOADADDR (.onchip_memory))

.stab
 *(.stab)

.stabstr
 *(.stabstr)

.stab.excl
 *(.stab.excl)

.stab.exclstr
 *(.stab.exclstr)

.stab.index
 *(.stab.index)

.stab.indexstr
 *(.stab.indexstr)

.comment        0x00000000       0x26
 *(.comment)
 .comment       0x00000000       0x26 obj/default/FSM.o
                                 0x27 (size before relaxing)
 .comment       0x00000000       0x27 obj/default/controller/PIO.o
 .comment       0x00000000       0x27 obj/default/controller/PIO_Bus.o
 .comment       0x00000000       0x27 obj/default/controller/PIO_Pin.o
 .comment       0x00000000       0x27 obj/default/controller/SPI.o
 .comment       0x00000000       0x27 obj/default/controller/UART.o
 .comment       0x00000000       0x27 obj/default/main.o
 .comment       0x00000000       0x27 c:/logicielge1/altera/13.0sp1/nios2eds/bin/gnu/h-i686-mingw32/bin/../lib/gcc/nios2-elf/4.1.2/../../../../nios2-elf/lib\libstdc++.a(eh_throw.o)
 .comment       0x00000000       0x27 c:/logicielge1/altera/13.0sp1/nios2eds/bin/gnu/h-i686-mingw32/bin/../lib/gcc/nios2-elf/4.1.2/../../../../nios2-elf/lib\libstdc++.a(eh_term_handler.o)
 .comment       0x00000000       0x27 c:/logicielge1/altera/13.0sp1/nios2eds/bin/gnu/h-i686-mingw32/bin/../lib/gcc/nios2-elf/4.1.2/../../../../nios2-elf/lib\libstdc++.a(new_opv.o)
 .comment       0x00000000       0x27 c:/logicielge1/altera/13.0sp1/nios2eds/bin/gnu/h-i686-mingw32/bin/../lib/gcc/nios2-elf/4.1.2/../../../../nios2-elf/lib\libstdc++.a(eh_catch.o)
 .comment       0x00000000       0x27 c:/logicielge1/altera/13.0sp1/nios2eds/bin/gnu/h-i686-mingw32/bin/../lib/gcc/nios2-elf/4.1.2/../../../../nios2-elf/lib\libstdc++.a(del_op.o)
 .comment       0x00000000       0x27 c:/logicielge1/altera/13.0sp1/nios2eds/bin/gnu/h-i686-mingw32/bin/../lib/gcc/nios2-elf/4.1.2/../../../../nios2-elf/lib\libstdc++.a(del_opv.o)
 .comment       0x00000000       0x27 c:/logicielge1/altera/13.0sp1/nios2eds/bin/gnu/h-i686-mingw32/bin/../lib/gcc/nios2-elf/4.1.2/../../../../nios2-elf/lib\libstdc++.a(eh_unex_handler.o)
 .comment       0x00000000       0x27 c:/logicielge1/altera/13.0sp1/nios2eds/bin/gnu/h-i686-mingw32/bin/../lib/gcc/nios2-elf/4.1.2/../../../../nios2-elf/lib\libstdc++.a(eh_personality.o)
 .comment       0x00000000       0x27 c:/logicielge1/altera/13.0sp1/nios2eds/bin/gnu/h-i686-mingw32/bin/../lib/gcc/nios2-elf/4.1.2/../../../../nios2-elf/lib\libstdc++.a(class_type_info.o)
 .comment       0x00000000       0x27 c:/logicielge1/altera/13.0sp1/nios2eds/bin/gnu/h-i686-mingw32/bin/../lib/gcc/nios2-elf/4.1.2/../../../../nios2-elf/lib\libstdc++.a(si_class_type_info.o)
 .comment       0x00000000       0x27 c:/logicielge1/altera/13.0sp1/nios2eds/bin/gnu/h-i686-mingw32/bin/../lib/gcc/nios2-elf/4.1.2/../../../../nios2-elf/lib\libstdc++.a(eh_globals.o)
 .comment       0x00000000       0x27 c:/logicielge1/altera/13.0sp1/nios2eds/bin/gnu/h-i686-mingw32/bin/../lib/gcc/nios2-elf/4.1.2/../../../../nios2-elf/lib\libstdc++.a(eh_terminate.o)
 .comment       0x00000000       0x27 c:/logicielge1/altera/13.0sp1/nios2eds/bin/gnu/h-i686-mingw32/bin/../lib/gcc/nios2-elf/4.1.2/../../../../nios2-elf/lib\libstdc++.a(new_op.o)
 .comment       0x00000000       0x27 c:/logicielge1/altera/13.0sp1/nios2eds/bin/gnu/h-i686-mingw32/bin/../lib/gcc/nios2-elf/4.1.2/../../../../nios2-elf/lib\libstdc++.a(eh_call.o)
 .comment       0x00000000       0x27 c:/logicielge1/altera/13.0sp1/nios2eds/bin/gnu/h-i686-mingw32/bin/../lib/gcc/nios2-elf/4.1.2/../../../../nios2-elf/lib\libstdc++.a(eh_exception.o)
 .comment       0x00000000       0x27 c:/logicielge1/altera/13.0sp1/nios2eds/bin/gnu/h-i686-mingw32/bin/../lib/gcc/nios2-elf/4.1.2/../../../../nios2-elf/lib\libstdc++.a(fundamental_type_info.o)
 .comment       0x00000000       0x27 c:/logicielge1/altera/13.0sp1/nios2eds/bin/gnu/h-i686-mingw32/bin/../lib/gcc/nios2-elf/4.1.2/../../../../nios2-elf/lib\libstdc++.a(new_handler.o)
 .comment       0x00000000       0x27 c:/logicielge1/altera/13.0sp1/nios2eds/bin/gnu/h-i686-mingw32/bin/../lib/gcc/nios2-elf/4.1.2/../../../../nios2-elf/lib\libstdc++.a(eh_alloc.o)
 .comment       0x00000000       0x27 c:/logicielge1/altera/13.0sp1/nios2eds/bin/gnu/h-i686-mingw32/bin/../lib/gcc/nios2-elf/4.1.2/../../../../nios2-elf/lib\libstdc++.a(tinfo.o)
 .comment       0x00000000       0x27 c:/logicielge1/altera/13.0sp1/nios2eds/bin/gnu/h-i686-mingw32/bin/../lib/gcc/nios2-elf/4.1.2/../../../../nios2-elf/lib\libstdc++.a(pointer_type_info.o)
 .comment       0x00000000       0x27 c:/logicielge1/altera/13.0sp1/nios2eds/bin/gnu/h-i686-mingw32/bin/../lib/gcc/nios2-elf/4.1.2/../../../../nios2-elf/lib\libstdc++.a(pbase_type_info.o)
 .comment       0x00000000       0x27 c:/logicielge1/altera/13.0sp1/nios2eds/bin/gnu/h-i686-mingw32/bin/../lib/gcc/nios2-elf/4.1.2\libgcc.a(unwind-sjlj.o)
 .comment       0x00000000       0x27 c:/logicielge1/altera/13.0sp1/nios2eds/bin/gnu/h-i686-mingw32/bin/../lib/gcc/nios2-elf/4.1.2/../../../../nios2-elf/lib\libc.a(lib_a-abort.o)
 .comment       0x00000000       0x27 c:/logicielge1/altera/13.0sp1/nios2eds/bin/gnu/h-i686-mingw32/bin/../lib/gcc/nios2-elf/4.1.2/../../../../nios2-elf/lib\libc.a(lib_a-malloc.o)
 .comment       0x00000000       0x27 c:/logicielge1/altera/13.0sp1/nios2eds/bin/gnu/h-i686-mingw32/bin/../lib/gcc/nios2-elf/4.1.2/../../../../nios2-elf/lib\libc.a(lib_a-mallocr.o)
 .comment       0x00000000       0x27 c:/logicielge1/altera/13.0sp1/nios2eds/bin/gnu/h-i686-mingw32/bin/../lib/gcc/nios2-elf/4.1.2/../../../../nios2-elf/lib\libc.a(lib_a-memset.o)
 .comment       0x00000000       0x27 c:/logicielge1/altera/13.0sp1/nios2eds/bin/gnu/h-i686-mingw32/bin/../lib/gcc/nios2-elf/4.1.2/../../../../nios2-elf/lib\libc.a(lib_a-printf.o)
 .comment       0x00000000       0x27 c:/logicielge1/altera/13.0sp1/nios2eds/bin/gnu/h-i686-mingw32/bin/../lib/gcc/nios2-elf/4.1.2/../../../../nios2-elf/lib\libc.a(lib_a-sbrkr.o)
 .comment       0x00000000       0x27 c:/logicielge1/altera/13.0sp1/nios2eds/bin/gnu/h-i686-mingw32/bin/../lib/gcc/nios2-elf/4.1.2/../../../../nios2-elf/lib\libc.a(lib_a-signal.o)
 .comment       0x00000000       0x27 c:/logicielge1/altera/13.0sp1/nios2eds/bin/gnu/h-i686-mingw32/bin/../lib/gcc/nios2-elf/4.1.2/../../../../nios2-elf/lib\libc.a(lib_a-signalr.o)
 .comment       0x00000000       0x27 c:/logicielge1/altera/13.0sp1/nios2eds/bin/gnu/h-i686-mingw32/bin/../lib/gcc/nios2-elf/4.1.2/../../../../nios2-elf/lib\libc.a(lib_a-strlen.o)
 .comment       0x00000000       0x27 c:/logicielge1/altera/13.0sp1/nios2eds/bin/gnu/h-i686-mingw32/bin/../lib/gcc/nios2-elf/4.1.2/../../../../nios2-elf/lib\libc.a(lib_a-vfprintf.o)
 .comment       0x00000000       0x27 c:/logicielge1/altera/13.0sp1/nios2eds/bin/gnu/h-i686-mingw32/bin/../lib/gcc/nios2-elf/4.1.2/../../../../nios2-elf/lib\libc.a(lib_a-vsnprintf.o)
 .comment       0x00000000       0x27 c:/logicielge1/altera/13.0sp1/nios2eds/bin/gnu/h-i686-mingw32/bin/../lib/gcc/nios2-elf/4.1.2/../../../../nios2-elf/lib\libc.a(lib_a-wsetup.o)
 .comment       0x00000000       0x27 c:/logicielge1/altera/13.0sp1/nios2eds/bin/gnu/h-i686-mingw32/bin/../lib/gcc/nios2-elf/4.1.2/../../../../nios2-elf/lib\libc.a(lib_a-dtoa.o)
 .comment       0x00000000       0x27 c:/logicielge1/altera/13.0sp1/nios2eds/bin/gnu/h-i686-mingw32/bin/../lib/gcc/nios2-elf/4.1.2/../../../../nios2-elf/lib\libc.a(lib_a-fflush.o)
 .comment       0x00000000       0x27 c:/logicielge1/altera/13.0sp1/nios2eds/bin/gnu/h-i686-mingw32/bin/../lib/gcc/nios2-elf/4.1.2/../../../../nios2-elf/lib\libc.a(lib_a-findfp.o)
 .comment       0x00000000       0x27 c:/logicielge1/altera/13.0sp1/nios2eds/bin/gnu/h-i686-mingw32/bin/../lib/gcc/nios2-elf/4.1.2/../../../../nios2-elf/lib\libc.a(lib_a-freer.o)
 .comment       0x00000000       0x27 c:/logicielge1/altera/13.0sp1/nios2eds/bin/gnu/h-i686-mingw32/bin/../lib/gcc/nios2-elf/4.1.2/../../../../nios2-elf/lib\libc.a(lib_a-fvwrite.o)
 .comment       0x00000000       0x27 c:/logicielge1/altera/13.0sp1/nios2eds/bin/gnu/h-i686-mingw32/bin/../lib/gcc/nios2-elf/4.1.2/../../../../nios2-elf/lib\libc.a(lib_a-fwalk.o)
 .comment       0x00000000       0x27 c:/logicielge1/altera/13.0sp1/nios2eds/bin/gnu/h-i686-mingw32/bin/../lib/gcc/nios2-elf/4.1.2/../../../../nios2-elf/lib\libc.a(lib_a-impure.o)
 .comment       0x00000000       0x27 c:/logicielge1/altera/13.0sp1/nios2eds/bin/gnu/h-i686-mingw32/bin/../lib/gcc/nios2-elf/4.1.2/../../../../nios2-elf/lib\libc.a(lib_a-int_errno.o)
 .comment       0x00000000       0x27 c:/logicielge1/altera/13.0sp1/nios2eds/bin/gnu/h-i686-mingw32/bin/../lib/gcc/nios2-elf/4.1.2/../../../../nios2-elf/lib\libc.a(lib_a-locale.o)
 .comment       0x00000000       0x27 c:/logicielge1/altera/13.0sp1/nios2eds/bin/gnu/h-i686-mingw32/bin/../lib/gcc/nios2-elf/4.1.2/../../../../nios2-elf/lib\libc.a(lib_a-makebuf.o)
 .comment       0x00000000       0x27 c:/logicielge1/altera/13.0sp1/nios2eds/bin/gnu/h-i686-mingw32/bin/../lib/gcc/nios2-elf/4.1.2/../../../../nios2-elf/lib\libc.a(lib_a-memchr.o)
 .comment       0x00000000       0x27 c:/logicielge1/altera/13.0sp1/nios2eds/bin/gnu/h-i686-mingw32/bin/../lib/gcc/nios2-elf/4.1.2/../../../../nios2-elf/lib\libc.a(lib_a-memcpy.o)
 .comment       0x00000000       0x27 c:/logicielge1/altera/13.0sp1/nios2eds/bin/gnu/h-i686-mingw32/bin/../lib/gcc/nios2-elf/4.1.2/../../../../nios2-elf/lib\libc.a(lib_a-memmove.o)
 .comment       0x00000000       0x27 c:/logicielge1/altera/13.0sp1/nios2eds/bin/gnu/h-i686-mingw32/bin/../lib/gcc/nios2-elf/4.1.2/../../../../nios2-elf/lib\libc.a(lib_a-mprec.o)
 .comment       0x00000000       0x27 c:/logicielge1/altera/13.0sp1/nios2eds/bin/gnu/h-i686-mingw32/bin/../lib/gcc/nios2-elf/4.1.2/../../../../nios2-elf/lib\libc.a(lib_a-reallocr.o)
 .comment       0x00000000       0x27 c:/logicielge1/altera/13.0sp1/nios2eds/bin/gnu/h-i686-mingw32/bin/../lib/gcc/nios2-elf/4.1.2/../../../../nios2-elf/lib\libc.a(lib_a-s_isinfd.o)
 .comment       0x00000000       0x27 c:/logicielge1/altera/13.0sp1/nios2eds/bin/gnu/h-i686-mingw32/bin/../lib/gcc/nios2-elf/4.1.2/../../../../nios2-elf/lib\libc.a(lib_a-s_isnand.o)
 .comment       0x00000000       0x27 c:/logicielge1/altera/13.0sp1/nios2eds/bin/gnu/h-i686-mingw32/bin/../lib/gcc/nios2-elf/4.1.2/../../../../nios2-elf/lib\libc.a(lib_a-stdio.o)
 .comment       0x00000000       0x27 c:/logicielge1/altera/13.0sp1/nios2eds/bin/gnu/h-i686-mingw32/bin/../lib/gcc/nios2-elf/4.1.2/../../../../nios2-elf/lib\libc.a(lib_a-strcmp.o)
 .comment       0x00000000       0x27 c:/logicielge1/altera/13.0sp1/nios2eds/bin/gnu/h-i686-mingw32/bin/../lib/gcc/nios2-elf/4.1.2/../../../../nios2-elf/lib\libc.a(lib_a-writer.o)
 .comment       0x00000000       0x27 c:/logicielge1/altera/13.0sp1/nios2eds/bin/gnu/h-i686-mingw32/bin/../lib/gcc/nios2-elf/4.1.2/../../../../nios2-elf/lib\libc.a(lib_a-callocr.o)
 .comment       0x00000000       0x27 c:/logicielge1/altera/13.0sp1/nios2eds/bin/gnu/h-i686-mingw32/bin/../lib/gcc/nios2-elf/4.1.2/../../../../nios2-elf/lib\libc.a(lib_a-closer.o)
 .comment       0x00000000       0x27 c:/logicielge1/altera/13.0sp1/nios2eds/bin/gnu/h-i686-mingw32/bin/../lib/gcc/nios2-elf/4.1.2/../../../../nios2-elf/lib\libc.a(lib_a-fclose.o)
 .comment       0x00000000       0x27 c:/logicielge1/altera/13.0sp1/nios2eds/bin/gnu/h-i686-mingw32/bin/../lib/gcc/nios2-elf/4.1.2/../../../../nios2-elf/lib\libc.a(lib_a-fstatr.o)
 .comment       0x00000000       0x27 c:/logicielge1/altera/13.0sp1/nios2eds/bin/gnu/h-i686-mingw32/bin/../lib/gcc/nios2-elf/4.1.2/../../../../nios2-elf/lib\libc.a(lib_a-isattyr.o)
 .comment       0x00000000       0x27 c:/logicielge1/altera/13.0sp1/nios2eds/bin/gnu/h-i686-mingw32/bin/../lib/gcc/nios2-elf/4.1.2/../../../../nios2-elf/lib\libc.a(lib_a-lseekr.o)
 .comment       0x00000000       0x27 c:/logicielge1/altera/13.0sp1/nios2eds/bin/gnu/h-i686-mingw32/bin/../lib/gcc/nios2-elf/4.1.2/../../../../nios2-elf/lib\libc.a(lib_a-readr.o)
 .comment       0x00000000       0x27 c:/logicielge1/altera/13.0sp1/nios2eds/bin/gnu/h-i686-mingw32/bin/../lib/gcc/nios2-elf/4.1.2\libgcc.a(_udivdi3.o)
 .comment       0x00000000       0x27 c:/logicielge1/altera/13.0sp1/nios2eds/bin/gnu/h-i686-mingw32/bin/../lib/gcc/nios2-elf/4.1.2\libgcc.a(_umoddi3.o)
 .comment       0x00000000       0x27 c:/logicielge1/altera/13.0sp1/nios2eds/bin/gnu/h-i686-mingw32/bin/../lib/gcc/nios2-elf/4.1.2\libgcc.a(_addsub_df.o)
 .comment       0x00000000       0x27 c:/logicielge1/altera/13.0sp1/nios2eds/bin/gnu/h-i686-mingw32/bin/../lib/gcc/nios2-elf/4.1.2\libgcc.a(_mul_df.o)
 .comment       0x00000000       0x27 c:/logicielge1/altera/13.0sp1/nios2eds/bin/gnu/h-i686-mingw32/bin/../lib/gcc/nios2-elf/4.1.2\libgcc.a(_div_df.o)
 .comment       0x00000000       0x27 c:/logicielge1/altera/13.0sp1/nios2eds/bin/gnu/h-i686-mingw32/bin/../lib/gcc/nios2-elf/4.1.2\libgcc.a(_eq_df.o)
 .comment       0x00000000       0x27 c:/logicielge1/altera/13.0sp1/nios2eds/bin/gnu/h-i686-mingw32/bin/../lib/gcc/nios2-elf/4.1.2\libgcc.a(_ne_df.o)
 .comment       0x00000000       0x27 c:/logicielge1/altera/13.0sp1/nios2eds/bin/gnu/h-i686-mingw32/bin/../lib/gcc/nios2-elf/4.1.2\libgcc.a(_gt_df.o)
 .comment       0x00000000       0x27 c:/logicielge1/altera/13.0sp1/nios2eds/bin/gnu/h-i686-mingw32/bin/../lib/gcc/nios2-elf/4.1.2\libgcc.a(_ge_df.o)
 .comment       0x00000000       0x27 c:/logicielge1/altera/13.0sp1/nios2eds/bin/gnu/h-i686-mingw32/bin/../lib/gcc/nios2-elf/4.1.2\libgcc.a(_lt_df.o)
 .comment       0x00000000       0x27 c:/logicielge1/altera/13.0sp1/nios2eds/bin/gnu/h-i686-mingw32/bin/../lib/gcc/nios2-elf/4.1.2\libgcc.a(_si_to_df.o)
 .comment       0x00000000       0x27 c:/logicielge1/altera/13.0sp1/nios2eds/bin/gnu/h-i686-mingw32/bin/../lib/gcc/nios2-elf/4.1.2\libgcc.a(_df_to_si.o)
 .comment       0x00000000       0x27 c:/logicielge1/altera/13.0sp1/nios2eds/bin/gnu/h-i686-mingw32/bin/../lib/gcc/nios2-elf/4.1.2\libgcc.a(_thenan_df.o)
 .comment       0x00000000       0x27 c:/logicielge1/altera/13.0sp1/nios2eds/bin/gnu/h-i686-mingw32/bin/../lib/gcc/nios2-elf/4.1.2\libgcc.a(_usi_to_df.o)
 .comment       0x00000000       0x27 c:/logicielge1/altera/13.0sp1/nios2eds/bin/gnu/h-i686-mingw32/bin/../lib/gcc/nios2-elf/4.1.2\libgcc.a(lib2-divmod.o)
 .comment       0x00000000       0x27 c:/logicielge1/altera/13.0sp1/nios2eds/bin/gnu/h-i686-mingw32/bin/../lib/gcc/nios2-elf/4.1.2\libgcc.a(_muldi3.o)
 .comment       0x00000000       0x27 c:/logicielge1/altera/13.0sp1/nios2eds/bin/gnu/h-i686-mingw32/bin/../lib/gcc/nios2-elf/4.1.2\libgcc.a(_clz.o)
 .comment       0x00000000       0x27 c:/logicielge1/altera/13.0sp1/nios2eds/bin/gnu/h-i686-mingw32/bin/../lib/gcc/nios2-elf/4.1.2\libgcc.a(_clzsi2.o)
 .comment       0x00000000       0x27 c:/logicielge1/altera/13.0sp1/nios2eds/bin/gnu/h-i686-mingw32/bin/../lib/gcc/nios2-elf/4.1.2\libgcc.a(_pack_df.o)
 .comment       0x00000000       0x27 c:/logicielge1/altera/13.0sp1/nios2eds/bin/gnu/h-i686-mingw32/bin/../lib/gcc/nios2-elf/4.1.2\libgcc.a(_unpack_df.o)
 .comment       0x00000000       0x27 c:/logicielge1/altera/13.0sp1/nios2eds/bin/gnu/h-i686-mingw32/bin/../lib/gcc/nios2-elf/4.1.2\libgcc.a(_fpcmp_parts_df.o)
 .comment       0x00000000       0x27 ../cmv_controller_bsp/\libhal_bsp.a(alt_close.o)
 .comment       0x00000000       0x27 ../cmv_controller_bsp/\libhal_bsp.a(alt_dev.o)
 .comment       0x00000000       0x27 ../cmv_controller_bsp/\libhal_bsp.a(alt_errno.o)
 .comment       0x00000000       0x27 ../cmv_controller_bsp/\libhal_bsp.a(alt_exit.o)
 .comment       0x00000000       0x27 ../cmv_controller_bsp/\libhal_bsp.a(alt_fstat.o)
 .comment       0x00000000       0x27 ../cmv_controller_bsp/\libhal_bsp.a(alt_getpid.o)
 .comment       0x00000000       0x27 ../cmv_controller_bsp/\libhal_bsp.a(alt_irq_register.o)
 .comment       0x00000000       0x27 ../cmv_controller_bsp/\libhal_bsp.a(alt_irq_vars.o)
 .comment       0x00000000       0x27 ../cmv_controller_bsp/\libhal_bsp.a(alt_isatty.o)
 .comment       0x00000000       0x27 ../cmv_controller_bsp/\libhal_bsp.a(alt_kill.o)
 .comment       0x00000000       0x27 ../cmv_controller_bsp/\libhal_bsp.a(alt_load.o)
 .comment       0x00000000       0x27 ../cmv_controller_bsp/\libhal_bsp.a(alt_lseek.o)
 .comment       0x00000000       0x27 ../cmv_controller_bsp/\libhal_bsp.a(alt_main.o)
 .comment       0x00000000       0x27 ../cmv_controller_bsp/\libhal_bsp.a(alt_malloc_lock.o)
 .comment       0x00000000       0x27 ../cmv_controller_bsp/\libhal_bsp.a(alt_read.o)
 .comment       0x00000000       0x27 ../cmv_controller_bsp/\libhal_bsp.a(alt_release_fd.o)
 .comment       0x00000000       0x27 ../cmv_controller_bsp/\libhal_bsp.a(alt_sbrk.o)
 .comment       0x00000000       0x27 ../cmv_controller_bsp/\libhal_bsp.a(alt_usleep.o)
 .comment       0x00000000       0x27 ../cmv_controller_bsp/\libhal_bsp.a(alt_write.o)
 .comment       0x00000000       0x27 ../cmv_controller_bsp/\libhal_bsp.a(alt_sys_init.o)
 .comment       0x00000000       0x27 ../cmv_controller_bsp/\libhal_bsp.a(altera_avalon_jtag_uart_fd.o)
 .comment       0x00000000       0x27 ../cmv_controller_bsp/\libhal_bsp.a(altera_avalon_jtag_uart_init.o)
 .comment       0x00000000       0x27 ../cmv_controller_bsp/\libhal_bsp.a(altera_avalon_jtag_uart_ioctl.o)
 .comment       0x00000000       0x27 ../cmv_controller_bsp/\libhal_bsp.a(altera_avalon_jtag_uart_read.o)
 .comment       0x00000000       0x27 ../cmv_controller_bsp/\libhal_bsp.a(altera_avalon_jtag_uart_write.o)
 .comment       0x00000000       0x27 ../cmv_controller_bsp/\libhal_bsp.a(altera_avalon_spi.o)
 .comment       0x00000000       0x27 ../cmv_controller_bsp/\libhal_bsp.a(altera_avalon_uart_fd.o)
 .comment       0x00000000       0x27 ../cmv_controller_bsp/\libhal_bsp.a(altera_avalon_uart_init.o)
 .comment       0x00000000       0x27 ../cmv_controller_bsp/\libhal_bsp.a(altera_avalon_uart_read.o)
 .comment       0x00000000       0x27 ../cmv_controller_bsp/\libhal_bsp.a(altera_avalon_uart_write.o)
 .comment       0x00000000       0x27 ../cmv_controller_bsp/\libhal_bsp.a(alt_alarm_start.o)
 .comment       0x00000000       0x27 ../cmv_controller_bsp/\libhal_bsp.a(alt_busy_sleep.o)
 .comment       0x00000000       0x27 ../cmv_controller_bsp/\libhal_bsp.a(alt_dcache_flush_all.o)
 .comment       0x00000000       0x27 ../cmv_controller_bsp/\libhal_bsp.a(alt_dev_llist_insert.o)
 .comment       0x00000000       0x27 ../cmv_controller_bsp/\libhal_bsp.a(alt_do_ctors.o)
 .comment       0x00000000       0x27 ../cmv_controller_bsp/\libhal_bsp.a(alt_do_dtors.o)
 .comment       0x00000000       0x27 ../cmv_controller_bsp/\libhal_bsp.a(alt_icache_flush_all.o)
 .comment       0x00000000       0x27 ../cmv_controller_bsp/\libhal_bsp.a(alt_iic.o)
 .comment       0x00000000       0x27 ../cmv_controller_bsp/\libhal_bsp.a(alt_iic_isr_register.o)
 .comment       0x00000000       0x27 ../cmv_controller_bsp/\libhal_bsp.a(alt_io_redirect.o)
 .comment       0x00000000       0x27 ../cmv_controller_bsp/\libhal_bsp.a(alt_irq_handler.o)
 .comment       0x00000000       0x27 ../cmv_controller_bsp/\libhal_bsp.a(alt_open.o)
 .comment       0x00000000       0x27 ../cmv_controller_bsp/\libhal_bsp.a(alt_tick.o)
 .comment       0x00000000       0x27 ../cmv_controller_bsp/\libhal_bsp.a(altera_nios2_qsys_irq.o)
 .comment       0x00000000       0x27 ../cmv_controller_bsp/\libhal_bsp.a(alt_find_dev.o)
 .comment       0x00000000       0x27 ../cmv_controller_bsp/\libhal_bsp.a(alt_find_file.o)
 .comment       0x00000000       0x27 ../cmv_controller_bsp/\libhal_bsp.a(alt_get_fd.o)
 .comment       0x00000000       0x27 ../cmv_controller_bsp/\libhal_bsp.a(alt_icache_flush.o)
 .comment       0x00000000       0x27 c:/logicielge1/altera/13.0sp1/nios2eds/bin/gnu/h-i686-mingw32/bin/../lib/gcc/nios2-elf/4.1.2/../../../../nios2-elf/lib\libc.a(lib_a-atexit.o)
 .comment       0x00000000       0x27 c:/logicielge1/altera/13.0sp1/nios2eds/bin/gnu/h-i686-mingw32/bin/../lib/gcc/nios2-elf/4.1.2/../../../../nios2-elf/lib\libc.a(lib_a-exit.o)
 .comment       0x00000000       0x27 c:/logicielge1/altera/13.0sp1/nios2eds/bin/gnu/h-i686-mingw32/bin/../lib/gcc/nios2-elf/4.1.2/../../../../nios2-elf/lib\libc.a(lib_a-memcmp.o)
 .comment       0x00000000       0x27 c:/logicielge1/altera/13.0sp1/nios2eds/bin/gnu/h-i686-mingw32/bin/../lib/gcc/nios2-elf/4.1.2/../../../../nios2-elf/lib\libc.a(lib_a-__atexit.o)
 .comment       0x00000000       0x27 c:/logicielge1/altera/13.0sp1/nios2eds/bin/gnu/h-i686-mingw32/bin/../lib/gcc/nios2-elf/4.1.2/../../../../nios2-elf/lib\libc.a(lib_a-__call_atexit.o)

.debug
 *(.debug)

.line
 *(.line)

.debug_srcinfo
 *(.debug_srcinfo)

.debug_sfnames
 *(.debug_sfnames)

.debug_aranges  0x00000000     0x11b8
 *(.debug_aranges)
 .debug_aranges
                0x00000000       0x28 ../cmv_controller_bsp//obj/HAL/src/crt0.o
 .debug_aranges
                0x00000028       0x20 obj/default/FSM.o
 .debug_aranges
                0x00000048       0x20 obj/default/controller/PIO.o
 .debug_aranges
                0x00000068       0x20 obj/default/controller/PIO_Bus.o
 .debug_aranges
                0x00000088       0x20 obj/default/controller/PIO_Pin.o
 .debug_aranges
                0x000000a8       0x20 obj/default/controller/SPI.o
 .debug_aranges
                0x000000c8       0x78 obj/default/controller/UART.o
 .debug_aranges
                0x00000140       0x20 obj/default/main.o
 .debug_aranges
                0x00000160       0x20 c:/logicielge1/altera/13.0sp1/nios2eds/bin/gnu/h-i686-mingw32/bin/../lib/gcc/nios2-elf/4.1.2/../../../../nios2-elf/lib\libstdc++.a(eh_throw.o)
 .debug_aranges
                0x00000180       0x20 c:/logicielge1/altera/13.0sp1/nios2eds/bin/gnu/h-i686-mingw32/bin/../lib/gcc/nios2-elf/4.1.2/../../../../nios2-elf/lib\libstdc++.a(new_opv.o)
 .debug_aranges
                0x000001a0       0x20 c:/logicielge1/altera/13.0sp1/nios2eds/bin/gnu/h-i686-mingw32/bin/../lib/gcc/nios2-elf/4.1.2/../../../../nios2-elf/lib\libstdc++.a(eh_catch.o)
 .debug_aranges
                0x000001c0       0x20 c:/logicielge1/altera/13.0sp1/nios2eds/bin/gnu/h-i686-mingw32/bin/../lib/gcc/nios2-elf/4.1.2/../../../../nios2-elf/lib\libstdc++.a(del_op.o)
 .debug_aranges
                0x000001e0       0x20 c:/logicielge1/altera/13.0sp1/nios2eds/bin/gnu/h-i686-mingw32/bin/../lib/gcc/nios2-elf/4.1.2/../../../../nios2-elf/lib\libstdc++.a(del_opv.o)
 .debug_aranges
                0x00000200       0x20 c:/logicielge1/altera/13.0sp1/nios2eds/bin/gnu/h-i686-mingw32/bin/../lib/gcc/nios2-elf/4.1.2/../../../../nios2-elf/lib\libstdc++.a(eh_personality.o)
 .debug_aranges
                0x00000220       0x20 c:/logicielge1/altera/13.0sp1/nios2eds/bin/gnu/h-i686-mingw32/bin/../lib/gcc/nios2-elf/4.1.2/../../../../nios2-elf/lib\libstdc++.a(class_type_info.o)
 .debug_aranges
                0x00000240       0x20 c:/logicielge1/altera/13.0sp1/nios2eds/bin/gnu/h-i686-mingw32/bin/../lib/gcc/nios2-elf/4.1.2/../../../../nios2-elf/lib\libstdc++.a(si_class_type_info.o)
 .debug_aranges
                0x00000260       0x20 c:/logicielge1/altera/13.0sp1/nios2eds/bin/gnu/h-i686-mingw32/bin/../lib/gcc/nios2-elf/4.1.2/../../../../nios2-elf/lib\libstdc++.a(eh_globals.o)
 .debug_aranges
                0x00000280       0x20 c:/logicielge1/altera/13.0sp1/nios2eds/bin/gnu/h-i686-mingw32/bin/../lib/gcc/nios2-elf/4.1.2/../../../../nios2-elf/lib\libstdc++.a(eh_terminate.o)
 .debug_aranges
                0x000002a0       0x20 c:/logicielge1/altera/13.0sp1/nios2eds/bin/gnu/h-i686-mingw32/bin/../lib/gcc/nios2-elf/4.1.2/../../../../nios2-elf/lib\libstdc++.a(new_op.o)
 .debug_aranges
                0x000002c0       0x20 c:/logicielge1/altera/13.0sp1/nios2eds/bin/gnu/h-i686-mingw32/bin/../lib/gcc/nios2-elf/4.1.2/../../../../nios2-elf/lib\libstdc++.a(eh_call.o)
 .debug_aranges
                0x000002e0       0x20 c:/logicielge1/altera/13.0sp1/nios2eds/bin/gnu/h-i686-mingw32/bin/../lib/gcc/nios2-elf/4.1.2/../../../../nios2-elf/lib\libstdc++.a(eh_exception.o)
 .debug_aranges
                0x00000300       0x20 c:/logicielge1/altera/13.0sp1/nios2eds/bin/gnu/h-i686-mingw32/bin/../lib/gcc/nios2-elf/4.1.2/../../../../nios2-elf/lib\libstdc++.a(fundamental_type_info.o)
 .debug_aranges
                0x00000320       0x20 c:/logicielge1/altera/13.0sp1/nios2eds/bin/gnu/h-i686-mingw32/bin/../lib/gcc/nios2-elf/4.1.2/../../../../nios2-elf/lib\libstdc++.a(new_handler.o)
 .debug_aranges
                0x00000340       0x20 c:/logicielge1/altera/13.0sp1/nios2eds/bin/gnu/h-i686-mingw32/bin/../lib/gcc/nios2-elf/4.1.2/../../../../nios2-elf/lib\libstdc++.a(eh_alloc.o)
 .debug_aranges
                0x00000360       0x20 c:/logicielge1/altera/13.0sp1/nios2eds/bin/gnu/h-i686-mingw32/bin/../lib/gcc/nios2-elf/4.1.2/../../../../nios2-elf/lib\libstdc++.a(tinfo.o)
 .debug_aranges
                0x00000380       0x20 c:/logicielge1/altera/13.0sp1/nios2eds/bin/gnu/h-i686-mingw32/bin/../lib/gcc/nios2-elf/4.1.2/../../../../nios2-elf/lib\libstdc++.a(pointer_type_info.o)
 .debug_aranges
                0x000003a0       0x28 c:/logicielge1/altera/13.0sp1/nios2eds/bin/gnu/h-i686-mingw32/bin/../lib/gcc/nios2-elf/4.1.2/../../../../nios2-elf/lib\libstdc++.a(pbase_type_info.o)
 .debug_aranges
                0x000003c8       0x20 c:/logicielge1/altera/13.0sp1/nios2eds/bin/gnu/h-i686-mingw32/bin/../lib/gcc/nios2-elf/4.1.2\libgcc.a(unwind-sjlj.o)
 .debug_aranges
                0x000003e8       0x20 c:/logicielge1/altera/13.0sp1/nios2eds/bin/gnu/h-i686-mingw32/bin/../lib/gcc/nios2-elf/4.1.2/../../../../nios2-elf/lib\libc.a(lib_a-abort.o)
 .debug_aranges
                0x00000408       0x20 c:/logicielge1/altera/13.0sp1/nios2eds/bin/gnu/h-i686-mingw32/bin/../lib/gcc/nios2-elf/4.1.2/../../../../nios2-elf/lib\libc.a(lib_a-malloc.o)
 .debug_aranges
                0x00000428       0x20 c:/logicielge1/altera/13.0sp1/nios2eds/bin/gnu/h-i686-mingw32/bin/../lib/gcc/nios2-elf/4.1.2/../../../../nios2-elf/lib\libc.a(lib_a-mallocr.o)
 .debug_aranges
                0x00000448       0x20 c:/logicielge1/altera/13.0sp1/nios2eds/bin/gnu/h-i686-mingw32/bin/../lib/gcc/nios2-elf/4.1.2/../../../../nios2-elf/lib\libc.a(lib_a-memset.o)
 .debug_aranges
                0x00000468       0x20 c:/logicielge1/altera/13.0sp1/nios2eds/bin/gnu/h-i686-mingw32/bin/../lib/gcc/nios2-elf/4.1.2/../../../../nios2-elf/lib\libc.a(lib_a-printf.o)
 .debug_aranges
                0x00000488       0x20 c:/logicielge1/altera/13.0sp1/nios2eds/bin/gnu/h-i686-mingw32/bin/../lib/gcc/nios2-elf/4.1.2/../../../../nios2-elf/lib\libc.a(lib_a-sbrkr.o)
 .debug_aranges
                0x000004a8       0x20 c:/logicielge1/altera/13.0sp1/nios2eds/bin/gnu/h-i686-mingw32/bin/../lib/gcc/nios2-elf/4.1.2/../../../../nios2-elf/lib\libc.a(lib_a-signal.o)
 .debug_aranges
                0x000004c8       0x20 c:/logicielge1/altera/13.0sp1/nios2eds/bin/gnu/h-i686-mingw32/bin/../lib/gcc/nios2-elf/4.1.2/../../../../nios2-elf/lib\libc.a(lib_a-signalr.o)
 .debug_aranges
                0x000004e8       0x20 c:/logicielge1/altera/13.0sp1/nios2eds/bin/gnu/h-i686-mingw32/bin/../lib/gcc/nios2-elf/4.1.2/../../../../nios2-elf/lib\libc.a(lib_a-strlen.o)
 .debug_aranges
                0x00000508       0x20 c:/logicielge1/altera/13.0sp1/nios2eds/bin/gnu/h-i686-mingw32/bin/../lib/gcc/nios2-elf/4.1.2/../../../../nios2-elf/lib\libc.a(lib_a-vfprintf.o)
 .debug_aranges
                0x00000528       0x20 c:/logicielge1/altera/13.0sp1/nios2eds/bin/gnu/h-i686-mingw32/bin/../lib/gcc/nios2-elf/4.1.2/../../../../nios2-elf/lib\libc.a(lib_a-vsnprintf.o)
 .debug_aranges
                0x00000548       0x20 c:/logicielge1/altera/13.0sp1/nios2eds/bin/gnu/h-i686-mingw32/bin/../lib/gcc/nios2-elf/4.1.2/../../../../nios2-elf/lib\libc.a(lib_a-wsetup.o)
 .debug_aranges
                0x00000568       0x20 c:/logicielge1/altera/13.0sp1/nios2eds/bin/gnu/h-i686-mingw32/bin/../lib/gcc/nios2-elf/4.1.2/../../../../nios2-elf/lib\libc.a(lib_a-dtoa.o)
 .debug_aranges
                0x00000588       0x20 c:/logicielge1/altera/13.0sp1/nios2eds/bin/gnu/h-i686-mingw32/bin/../lib/gcc/nios2-elf/4.1.2/../../../../nios2-elf/lib\libc.a(lib_a-fflush.o)
 .debug_aranges
                0x000005a8       0x20 c:/logicielge1/altera/13.0sp1/nios2eds/bin/gnu/h-i686-mingw32/bin/../lib/gcc/nios2-elf/4.1.2/../../../../nios2-elf/lib\libc.a(lib_a-findfp.o)
 .debug_aranges
                0x000005c8       0x20 c:/logicielge1/altera/13.0sp1/nios2eds/bin/gnu/h-i686-mingw32/bin/../lib/gcc/nios2-elf/4.1.2/../../../../nios2-elf/lib\libc.a(lib_a-freer.o)
 .debug_aranges
                0x000005e8       0x20 c:/logicielge1/altera/13.0sp1/nios2eds/bin/gnu/h-i686-mingw32/bin/../lib/gcc/nios2-elf/4.1.2/../../../../nios2-elf/lib\libc.a(lib_a-fvwrite.o)
 .debug_aranges
                0x00000608       0x20 c:/logicielge1/altera/13.0sp1/nios2eds/bin/gnu/h-i686-mingw32/bin/../lib/gcc/nios2-elf/4.1.2/../../../../nios2-elf/lib\libc.a(lib_a-fwalk.o)
 .debug_aranges
                0x00000628       0x20 c:/logicielge1/altera/13.0sp1/nios2eds/bin/gnu/h-i686-mingw32/bin/../lib/gcc/nios2-elf/4.1.2/../../../../nios2-elf/lib\libc.a(lib_a-locale.o)
 .debug_aranges
                0x00000648       0x20 c:/logicielge1/altera/13.0sp1/nios2eds/bin/gnu/h-i686-mingw32/bin/../lib/gcc/nios2-elf/4.1.2/../../../../nios2-elf/lib\libc.a(lib_a-makebuf.o)
 .debug_aranges
                0x00000668       0x20 c:/logicielge1/altera/13.0sp1/nios2eds/bin/gnu/h-i686-mingw32/bin/../lib/gcc/nios2-elf/4.1.2/../../../../nios2-elf/lib\libc.a(lib_a-memchr.o)
 .debug_aranges
                0x00000688       0x20 c:/logicielge1/altera/13.0sp1/nios2eds/bin/gnu/h-i686-mingw32/bin/../lib/gcc/nios2-elf/4.1.2/../../../../nios2-elf/lib\libc.a(lib_a-memcpy.o)
 .debug_aranges
                0x000006a8       0x20 c:/logicielge1/altera/13.0sp1/nios2eds/bin/gnu/h-i686-mingw32/bin/../lib/gcc/nios2-elf/4.1.2/../../../../nios2-elf/lib\libc.a(lib_a-memmove.o)
 .debug_aranges
                0x000006c8       0x20 c:/logicielge1/altera/13.0sp1/nios2eds/bin/gnu/h-i686-mingw32/bin/../lib/gcc/nios2-elf/4.1.2/../../../../nios2-elf/lib\libc.a(lib_a-mprec.o)
 .debug_aranges
                0x000006e8       0x20 c:/logicielge1/altera/13.0sp1/nios2eds/bin/gnu/h-i686-mingw32/bin/../lib/gcc/nios2-elf/4.1.2/../../../../nios2-elf/lib\libc.a(lib_a-reallocr.o)
 .debug_aranges
                0x00000708       0x20 c:/logicielge1/altera/13.0sp1/nios2eds/bin/gnu/h-i686-mingw32/bin/../lib/gcc/nios2-elf/4.1.2/../../../../nios2-elf/lib\libc.a(lib_a-s_isinfd.o)
 .debug_aranges
                0x00000728       0x20 c:/logicielge1/altera/13.0sp1/nios2eds/bin/gnu/h-i686-mingw32/bin/../lib/gcc/nios2-elf/4.1.2/../../../../nios2-elf/lib\libc.a(lib_a-s_isnand.o)
 .debug_aranges
                0x00000748       0x20 c:/logicielge1/altera/13.0sp1/nios2eds/bin/gnu/h-i686-mingw32/bin/../lib/gcc/nios2-elf/4.1.2/../../../../nios2-elf/lib\libc.a(lib_a-stdio.o)
 .debug_aranges
                0x00000768       0x20 c:/logicielge1/altera/13.0sp1/nios2eds/bin/gnu/h-i686-mingw32/bin/../lib/gcc/nios2-elf/4.1.2/../../../../nios2-elf/lib\libc.a(lib_a-strcmp.o)
 .debug_aranges
                0x00000788       0x20 c:/logicielge1/altera/13.0sp1/nios2eds/bin/gnu/h-i686-mingw32/bin/../lib/gcc/nios2-elf/4.1.2/../../../../nios2-elf/lib\libc.a(lib_a-writer.o)
 .debug_aranges
                0x000007a8       0x20 c:/logicielge1/altera/13.0sp1/nios2eds/bin/gnu/h-i686-mingw32/bin/../lib/gcc/nios2-elf/4.1.2/../../../../nios2-elf/lib\libc.a(lib_a-callocr.o)
 .debug_aranges
                0x000007c8       0x20 c:/logicielge1/altera/13.0sp1/nios2eds/bin/gnu/h-i686-mingw32/bin/../lib/gcc/nios2-elf/4.1.2/../../../../nios2-elf/lib\libc.a(lib_a-closer.o)
 .debug_aranges
                0x000007e8       0x20 c:/logicielge1/altera/13.0sp1/nios2eds/bin/gnu/h-i686-mingw32/bin/../lib/gcc/nios2-elf/4.1.2/../../../../nios2-elf/lib\libc.a(lib_a-fclose.o)
 .debug_aranges
                0x00000808       0x20 c:/logicielge1/altera/13.0sp1/nios2eds/bin/gnu/h-i686-mingw32/bin/../lib/gcc/nios2-elf/4.1.2/../../../../nios2-elf/lib\libc.a(lib_a-fstatr.o)
 .debug_aranges
                0x00000828       0x20 c:/logicielge1/altera/13.0sp1/nios2eds/bin/gnu/h-i686-mingw32/bin/../lib/gcc/nios2-elf/4.1.2/../../../../nios2-elf/lib\libc.a(lib_a-isattyr.o)
 .debug_aranges
                0x00000848       0x20 c:/logicielge1/altera/13.0sp1/nios2eds/bin/gnu/h-i686-mingw32/bin/../lib/gcc/nios2-elf/4.1.2/../../../../nios2-elf/lib\libc.a(lib_a-lseekr.o)
 .debug_aranges
                0x00000868       0x20 c:/logicielge1/altera/13.0sp1/nios2eds/bin/gnu/h-i686-mingw32/bin/../lib/gcc/nios2-elf/4.1.2/../../../../nios2-elf/lib\libc.a(lib_a-readr.o)
 .debug_aranges
                0x00000888       0x20 c:/logicielge1/altera/13.0sp1/nios2eds/bin/gnu/h-i686-mingw32/bin/../lib/gcc/nios2-elf/4.1.2\libgcc.a(_udivdi3.o)
 .debug_aranges
                0x000008a8       0x20 c:/logicielge1/altera/13.0sp1/nios2eds/bin/gnu/h-i686-mingw32/bin/../lib/gcc/nios2-elf/4.1.2\libgcc.a(_umoddi3.o)
 .debug_aranges
                0x000008c8       0x20 c:/logicielge1/altera/13.0sp1/nios2eds/bin/gnu/h-i686-mingw32/bin/../lib/gcc/nios2-elf/4.1.2\libgcc.a(_addsub_df.o)
 .debug_aranges
                0x000008e8       0x20 c:/logicielge1/altera/13.0sp1/nios2eds/bin/gnu/h-i686-mingw32/bin/../lib/gcc/nios2-elf/4.1.2\libgcc.a(_mul_df.o)
 .debug_aranges
                0x00000908       0x20 c:/logicielge1/altera/13.0sp1/nios2eds/bin/gnu/h-i686-mingw32/bin/../lib/gcc/nios2-elf/4.1.2\libgcc.a(_div_df.o)
 .debug_aranges
                0x00000928       0x20 c:/logicielge1/altera/13.0sp1/nios2eds/bin/gnu/h-i686-mingw32/bin/../lib/gcc/nios2-elf/4.1.2\libgcc.a(_eq_df.o)
 .debug_aranges
                0x00000948       0x20 c:/logicielge1/altera/13.0sp1/nios2eds/bin/gnu/h-i686-mingw32/bin/../lib/gcc/nios2-elf/4.1.2\libgcc.a(_ne_df.o)
 .debug_aranges
                0x00000968       0x20 c:/logicielge1/altera/13.0sp1/nios2eds/bin/gnu/h-i686-mingw32/bin/../lib/gcc/nios2-elf/4.1.2\libgcc.a(_gt_df.o)
 .debug_aranges
                0x00000988       0x20 c:/logicielge1/altera/13.0sp1/nios2eds/bin/gnu/h-i686-mingw32/bin/../lib/gcc/nios2-elf/4.1.2\libgcc.a(_ge_df.o)
 .debug_aranges
                0x000009a8       0x20 c:/logicielge1/altera/13.0sp1/nios2eds/bin/gnu/h-i686-mingw32/bin/../lib/gcc/nios2-elf/4.1.2\libgcc.a(_lt_df.o)
 .debug_aranges
                0x000009c8       0x20 c:/logicielge1/altera/13.0sp1/nios2eds/bin/gnu/h-i686-mingw32/bin/../lib/gcc/nios2-elf/4.1.2\libgcc.a(_si_to_df.o)
 .debug_aranges
                0x000009e8       0x20 c:/logicielge1/altera/13.0sp1/nios2eds/bin/gnu/h-i686-mingw32/bin/../lib/gcc/nios2-elf/4.1.2\libgcc.a(_df_to_si.o)
 .debug_aranges
                0x00000a08       0x20 c:/logicielge1/altera/13.0sp1/nios2eds/bin/gnu/h-i686-mingw32/bin/../lib/gcc/nios2-elf/4.1.2\libgcc.a(_usi_to_df.o)
 .debug_aranges
                0x00000a28       0x20 c:/logicielge1/altera/13.0sp1/nios2eds/bin/gnu/h-i686-mingw32/bin/../lib/gcc/nios2-elf/4.1.2\libgcc.a(lib2-divmod.o)
 .debug_aranges
                0x00000a48       0x20 c:/logicielge1/altera/13.0sp1/nios2eds/bin/gnu/h-i686-mingw32/bin/../lib/gcc/nios2-elf/4.1.2\libgcc.a(_muldi3.o)
 .debug_aranges
                0x00000a68       0x20 c:/logicielge1/altera/13.0sp1/nios2eds/bin/gnu/h-i686-mingw32/bin/../lib/gcc/nios2-elf/4.1.2\libgcc.a(_clzsi2.o)
 .debug_aranges
                0x00000a88       0x20 c:/logicielge1/altera/13.0sp1/nios2eds/bin/gnu/h-i686-mingw32/bin/../lib/gcc/nios2-elf/4.1.2\libgcc.a(_pack_df.o)
 .debug_aranges
                0x00000aa8       0x20 c:/logicielge1/altera/13.0sp1/nios2eds/bin/gnu/h-i686-mingw32/bin/../lib/gcc/nios2-elf/4.1.2\libgcc.a(_unpack_df.o)
 .debug_aranges
                0x00000ac8       0x20 c:/logicielge1/altera/13.0sp1/nios2eds/bin/gnu/h-i686-mingw32/bin/../lib/gcc/nios2-elf/4.1.2\libgcc.a(_fpcmp_parts_df.o)
 .debug_aranges
                0x00000ae8       0x20 ../cmv_controller_bsp/\libhal_bsp.a(alt_close.o)
 .debug_aranges
                0x00000b08       0x20 ../cmv_controller_bsp/\libhal_bsp.a(alt_dev.o)
 .debug_aranges
                0x00000b28       0x20 ../cmv_controller_bsp/\libhal_bsp.a(alt_exit.o)
 .debug_aranges
                0x00000b48       0x20 ../cmv_controller_bsp/\libhal_bsp.a(alt_fstat.o)
 .debug_aranges
                0x00000b68       0x20 ../cmv_controller_bsp/\libhal_bsp.a(alt_getpid.o)
 .debug_aranges
                0x00000b88       0x20 ../cmv_controller_bsp/\libhal_bsp.a(alt_irq_register.o)
 .debug_aranges
                0x00000ba8       0x20 ../cmv_controller_bsp/\libhal_bsp.a(alt_isatty.o)
 .debug_aranges
                0x00000bc8       0x20 ../cmv_controller_bsp/\libhal_bsp.a(alt_kill.o)
 .debug_aranges
                0x00000be8       0x20 ../cmv_controller_bsp/\libhal_bsp.a(alt_load.o)
 .debug_aranges
                0x00000c08       0x20 ../cmv_controller_bsp/\libhal_bsp.a(alt_lseek.o)
 .debug_aranges
                0x00000c28       0x20 ../cmv_controller_bsp/\libhal_bsp.a(alt_main.o)
 .debug_aranges
                0x00000c48       0x20 ../cmv_controller_bsp/\libhal_bsp.a(alt_malloc_lock.o)
 .debug_aranges
                0x00000c68       0x20 ../cmv_controller_bsp/\libhal_bsp.a(alt_read.o)
 .debug_aranges
                0x00000c88       0x20 ../cmv_controller_bsp/\libhal_bsp.a(alt_release_fd.o)
 .debug_aranges
                0x00000ca8       0x20 ../cmv_controller_bsp/\libhal_bsp.a(alt_sbrk.o)
 .debug_aranges
                0x00000cc8       0x20 ../cmv_controller_bsp/\libhal_bsp.a(alt_usleep.o)
 .debug_aranges
                0x00000ce8       0x20 ../cmv_controller_bsp/\libhal_bsp.a(alt_write.o)
 .debug_aranges
                0x00000d08       0x20 ../cmv_controller_bsp/\libhal_bsp.a(alt_sys_init.o)
 .debug_aranges
                0x00000d28       0x20 ../cmv_controller_bsp/\libhal_bsp.a(altera_avalon_jtag_uart_fd.o)
 .debug_aranges
                0x00000d48       0x20 ../cmv_controller_bsp/\libhal_bsp.a(altera_avalon_jtag_uart_init.o)
 .debug_aranges
                0x00000d68       0x20 ../cmv_controller_bsp/\libhal_bsp.a(altera_avalon_jtag_uart_ioctl.o)
 .debug_aranges
                0x00000d88       0x20 ../cmv_controller_bsp/\libhal_bsp.a(altera_avalon_jtag_uart_read.o)
 .debug_aranges
                0x00000da8       0x20 ../cmv_controller_bsp/\libhal_bsp.a(altera_avalon_jtag_uart_write.o)
 .debug_aranges
                0x00000dc8       0x20 ../cmv_controller_bsp/\libhal_bsp.a(altera_avalon_spi.o)
 .debug_aranges
                0x00000de8       0x20 ../cmv_controller_bsp/\libhal_bsp.a(altera_avalon_uart_fd.o)
 .debug_aranges
                0x00000e08       0x20 ../cmv_controller_bsp/\libhal_bsp.a(altera_avalon_uart_init.o)
 .debug_aranges
                0x00000e28       0x20 ../cmv_controller_bsp/\libhal_bsp.a(altera_avalon_uart_read.o)
 .debug_aranges
                0x00000e48       0x20 ../cmv_controller_bsp/\libhal_bsp.a(altera_avalon_uart_write.o)
 .debug_aranges
                0x00000e68       0x20 ../cmv_controller_bsp/\libhal_bsp.a(alt_alarm_start.o)
 .debug_aranges
                0x00000e88       0x20 ../cmv_controller_bsp/\libhal_bsp.a(alt_busy_sleep.o)
 .debug_aranges
                0x00000ea8       0x20 ../cmv_controller_bsp/\libhal_bsp.a(alt_dcache_flush_all.o)
 .debug_aranges
                0x00000ec8       0x20 ../cmv_controller_bsp/\libhal_bsp.a(alt_dev_llist_insert.o)
 .debug_aranges
                0x00000ee8       0x20 ../cmv_controller_bsp/\libhal_bsp.a(alt_do_ctors.o)
 .debug_aranges
                0x00000f08       0x20 ../cmv_controller_bsp/\libhal_bsp.a(alt_do_dtors.o)
 .debug_aranges
                0x00000f28       0x20 ../cmv_controller_bsp/\libhal_bsp.a(alt_icache_flush_all.o)
 .debug_aranges
                0x00000f48       0x20 ../cmv_controller_bsp/\libhal_bsp.a(alt_iic.o)
 .debug_aranges
                0x00000f68       0x20 ../cmv_controller_bsp/\libhal_bsp.a(alt_iic_isr_register.o)
 .debug_aranges
                0x00000f88       0x20 ../cmv_controller_bsp/\libhal_bsp.a(alt_io_redirect.o)
 .debug_aranges
                0x00000fa8       0x30 ../cmv_controller_bsp/\libhal_bsp.a(alt_irq_entry.o)
 .debug_aranges
                0x00000fd8       0x28 ../cmv_controller_bsp/\libhal_bsp.a(alt_irq_handler.o)
 .debug_aranges
                0x00001000       0x20 ../cmv_controller_bsp/\libhal_bsp.a(alt_open.o)
 .debug_aranges
                0x00001020       0x20 ../cmv_controller_bsp/\libhal_bsp.a(alt_tick.o)
 .debug_aranges
                0x00001040       0x20 ../cmv_controller_bsp/\libhal_bsp.a(altera_nios2_qsys_irq.o)
 .debug_aranges
                0x00001060       0x38 ../cmv_controller_bsp/\libhal_bsp.a(alt_exception_entry.o)
 .debug_aranges
                0x00001098       0x20 ../cmv_controller_bsp/\libhal_bsp.a(alt_find_dev.o)
 .debug_aranges
                0x000010b8       0x20 ../cmv_controller_bsp/\libhal_bsp.a(alt_find_file.o)
 .debug_aranges
                0x000010d8       0x20 ../cmv_controller_bsp/\libhal_bsp.a(alt_get_fd.o)
 .debug_aranges
                0x000010f8       0x20 ../cmv_controller_bsp/\libhal_bsp.a(alt_icache_flush.o)
 .debug_aranges
                0x00001118       0x20 c:/logicielge1/altera/13.0sp1/nios2eds/bin/gnu/h-i686-mingw32/bin/../lib/gcc/nios2-elf/4.1.2/../../../../nios2-elf/lib\libc.a(lib_a-atexit.o)
 .debug_aranges
                0x00001138       0x20 c:/logicielge1/altera/13.0sp1/nios2eds/bin/gnu/h-i686-mingw32/bin/../lib/gcc/nios2-elf/4.1.2/../../../../nios2-elf/lib\libc.a(lib_a-exit.o)
 .debug_aranges
                0x00001158       0x20 c:/logicielge1/altera/13.0sp1/nios2eds/bin/gnu/h-i686-mingw32/bin/../lib/gcc/nios2-elf/4.1.2/../../../../nios2-elf/lib\libc.a(lib_a-memcmp.o)
 .debug_aranges
                0x00001178       0x20 c:/logicielge1/altera/13.0sp1/nios2eds/bin/gnu/h-i686-mingw32/bin/../lib/gcc/nios2-elf/4.1.2/../../../../nios2-elf/lib\libc.a(lib_a-__atexit.o)
 .debug_aranges
                0x00001198       0x20 c:/logicielge1/altera/13.0sp1/nios2eds/bin/gnu/h-i686-mingw32/bin/../lib/gcc/nios2-elf/4.1.2/../../../../nios2-elf/lib\libc.a(lib_a-__call_atexit.o)

.debug_pubnames
                0x00000000     0x2990
 *(.debug_pubnames)
 .debug_pubnames
                0x00000000      0x100 obj/default/FSM.o
 .debug_pubnames
                0x00000100       0x8d obj/default/controller/PIO.o
 .debug_pubnames
                0x0000018d       0xf0 obj/default/controller/PIO_Bus.o
 .debug_pubnames
                0x0000027d       0xc9 obj/default/controller/PIO_Pin.o
 .debug_pubnames
                0x00000346       0x89 obj/default/controller/SPI.o
 .debug_pubnames
                0x000003cf      0x22d obj/default/controller/UART.o
 .debug_pubnames
                0x000005fc       0x1b obj/default/main.o
 .debug_pubnames
                0x00000617       0x34 c:/logicielge1/altera/13.0sp1/nios2eds/bin/gnu/h-i686-mingw32/bin/../lib/gcc/nios2-elf/4.1.2/../../../../nios2-elf/lib\libstdc++.a(eh_throw.o)
 .debug_pubnames
                0x0000064b       0x2a c:/logicielge1/altera/13.0sp1/nios2eds/bin/gnu/h-i686-mingw32/bin/../lib/gcc/nios2-elf/4.1.2/../../../../nios2-elf/lib\libstdc++.a(eh_term_handler.o)
 .debug_pubnames
                0x00000675       0x26 c:/logicielge1/altera/13.0sp1/nios2eds/bin/gnu/h-i686-mingw32/bin/../lib/gcc/nios2-elf/4.1.2/../../../../nios2-elf/lib\libstdc++.a(new_opv.o)
 .debug_pubnames
                0x0000069b       0x6f c:/logicielge1/altera/13.0sp1/nios2eds/bin/gnu/h-i686-mingw32/bin/../lib/gcc/nios2-elf/4.1.2/../../../../nios2-elf/lib\libstdc++.a(eh_catch.o)
 .debug_pubnames
                0x0000070a       0x26 c:/logicielge1/altera/13.0sp1/nios2eds/bin/gnu/h-i686-mingw32/bin/../lib/gcc/nios2-elf/4.1.2/../../../../nios2-elf/lib\libstdc++.a(del_op.o)
 .debug_pubnames
                0x00000730       0x29 c:/logicielge1/altera/13.0sp1/nios2eds/bin/gnu/h-i686-mingw32/bin/../lib/gcc/nios2-elf/4.1.2/../../../../nios2-elf/lib\libstdc++.a(del_opv.o)
 .debug_pubnames
                0x00000759       0x2b c:/logicielge1/altera/13.0sp1/nios2eds/bin/gnu/h-i686-mingw32/bin/../lib/gcc/nios2-elf/4.1.2/../../../../nios2-elf/lib\libstdc++.a(eh_unex_handler.o)
 .debug_pubnames
                0x00000784       0x46 c:/logicielge1/altera/13.0sp1/nios2eds/bin/gnu/h-i686-mingw32/bin/../lib/gcc/nios2-elf/4.1.2/../../../../nios2-elf/lib\libstdc++.a(eh_personality.o)
 .debug_pubnames
                0x000007ca      0x1a8 c:/logicielge1/altera/13.0sp1/nios2eds/bin/gnu/h-i686-mingw32/bin/../lib/gcc/nios2-elf/4.1.2/../../../../nios2-elf/lib\libstdc++.a(class_type_info.o)
 .debug_pubnames
                0x00000972      0x166 c:/logicielge1/altera/13.0sp1/nios2eds/bin/gnu/h-i686-mingw32/bin/../lib/gcc/nios2-elf/4.1.2/../../../../nios2-elf/lib\libstdc++.a(si_class_type_info.o)
 .debug_pubnames
                0x00000ad8       0x43 c:/logicielge1/altera/13.0sp1/nios2eds/bin/gnu/h-i686-mingw32/bin/../lib/gcc/nios2-elf/4.1.2/../../../../nios2-elf/lib\libstdc++.a(eh_globals.o)
 .debug_pubnames
                0x00000b1b       0x75 c:/logicielge1/altera/13.0sp1/nios2eds/bin/gnu/h-i686-mingw32/bin/../lib/gcc/nios2-elf/4.1.2/../../../../nios2-elf/lib\libstdc++.a(eh_terminate.o)
 .debug_pubnames
                0x00000b90       0x23 c:/logicielge1/altera/13.0sp1/nios2eds/bin/gnu/h-i686-mingw32/bin/../lib/gcc/nios2-elf/4.1.2/../../../../nios2-elf/lib\libstdc++.a(new_op.o)
 .debug_pubnames
                0x00000bb3       0x2b c:/logicielge1/altera/13.0sp1/nios2eds/bin/gnu/h-i686-mingw32/bin/../lib/gcc/nios2-elf/4.1.2/../../../../nios2-elf/lib\libstdc++.a(eh_call.o)
 .debug_pubnames
                0x00000bde       0xfd c:/logicielge1/altera/13.0sp1/nios2eds/bin/gnu/h-i686-mingw32/bin/../lib/gcc/nios2-elf/4.1.2/../../../../nios2-elf/lib\libstdc++.a(eh_exception.o)
 .debug_pubnames
                0x00000cdb       0xd8 c:/logicielge1/altera/13.0sp1/nios2eds/bin/gnu/h-i686-mingw32/bin/../lib/gcc/nios2-elf/4.1.2/../../../../nios2-elf/lib\libstdc++.a(fundamental_type_info.o)
 .debug_pubnames
                0x00000db3       0xa1 c:/logicielge1/altera/13.0sp1/nios2eds/bin/gnu/h-i686-mingw32/bin/../lib/gcc/nios2-elf/4.1.2/../../../../nios2-elf/lib\libstdc++.a(new_handler.o)
 .debug_pubnames
                0x00000e54       0x48 c:/logicielge1/altera/13.0sp1/nios2eds/bin/gnu/h-i686-mingw32/bin/../lib/gcc/nios2-elf/4.1.2/../../../../nios2-elf/lib\libstdc++.a(eh_alloc.o)
 .debug_pubnames
                0x00000e9c       0xf5 c:/logicielge1/altera/13.0sp1/nios2eds/bin/gnu/h-i686-mingw32/bin/../lib/gcc/nios2-elf/4.1.2/../../../../nios2-elf/lib\libstdc++.a(tinfo.o)
 .debug_pubnames
                0x00000f91      0x129 c:/logicielge1/altera/13.0sp1/nios2eds/bin/gnu/h-i686-mingw32/bin/../lib/gcc/nios2-elf/4.1.2/../../../../nios2-elf/lib\libstdc++.a(pointer_type_info.o)
 .debug_pubnames
                0x000010ba      0x115 c:/logicielge1/altera/13.0sp1/nios2eds/bin/gnu/h-i686-mingw32/bin/../lib/gcc/nios2-elf/4.1.2/../../../../nios2-elf/lib\libstdc++.a(pbase_type_info.o)
 .debug_pubnames
                0x000011cf      0x1fb c:/logicielge1/altera/13.0sp1/nios2eds/bin/gnu/h-i686-mingw32/bin/../lib/gcc/nios2-elf/4.1.2\libgcc.a(unwind-sjlj.o)
 .debug_pubnames
                0x000013ca       0x1c c:/logicielge1/altera/13.0sp1/nios2eds/bin/gnu/h-i686-mingw32/bin/../lib/gcc/nios2-elf/4.1.2/../../../../nios2-elf/lib\libc.a(lib_a-abort.o)
 .debug_pubnames
                0x000013e6       0x26 c:/logicielge1/altera/13.0sp1/nios2eds/bin/gnu/h-i686-mingw32/bin/../lib/gcc/nios2-elf/4.1.2/../../../../nios2-elf/lib\libc.a(lib_a-malloc.o)
 .debug_pubnames
                0x0000140c       0xce c:/logicielge1/altera/13.0sp1/nios2eds/bin/gnu/h-i686-mingw32/bin/../lib/gcc/nios2-elf/4.1.2/../../../../nios2-elf/lib\libc.a(lib_a-mallocr.o)
 .debug_pubnames
                0x000014da       0x1d c:/logicielge1/altera/13.0sp1/nios2eds/bin/gnu/h-i686-mingw32/bin/../lib/gcc/nios2-elf/4.1.2/../../../../nios2-elf/lib\libc.a(lib_a-memset.o)
 .debug_pubnames
                0x000014f7       0x2b c:/logicielge1/altera/13.0sp1/nios2eds/bin/gnu/h-i686-mingw32/bin/../lib/gcc/nios2-elf/4.1.2/../../../../nios2-elf/lib\libc.a(lib_a-printf.o)
 .debug_pubnames
                0x00001522       0x1e c:/logicielge1/altera/13.0sp1/nios2eds/bin/gnu/h-i686-mingw32/bin/../lib/gcc/nios2-elf/4.1.2/../../../../nios2-elf/lib\libc.a(lib_a-sbrkr.o)
 .debug_pubnames
                0x00001540       0x86 c:/logicielge1/altera/13.0sp1/nios2eds/bin/gnu/h-i686-mingw32/bin/../lib/gcc/nios2-elf/4.1.2/../../../../nios2-elf/lib\libc.a(lib_a-signal.o)
 .debug_pubnames
                0x000015c6       0x2c c:/logicielge1/altera/13.0sp1/nios2eds/bin/gnu/h-i686-mingw32/bin/../lib/gcc/nios2-elf/4.1.2/../../../../nios2-elf/lib\libc.a(lib_a-signalr.o)
 .debug_pubnames
                0x000015f2       0x1d c:/logicielge1/altera/13.0sp1/nios2eds/bin/gnu/h-i686-mingw32/bin/../lib/gcc/nios2-elf/4.1.2/../../../../nios2-elf/lib\libc.a(lib_a-strlen.o)
 .debug_pubnames
                0x0000160f       0x45 c:/logicielge1/altera/13.0sp1/nios2eds/bin/gnu/h-i686-mingw32/bin/../lib/gcc/nios2-elf/4.1.2/../../../../nios2-elf/lib\libc.a(lib_a-vfprintf.o)
 .debug_pubnames
                0x00001654       0x31 c:/logicielge1/altera/13.0sp1/nios2eds/bin/gnu/h-i686-mingw32/bin/../lib/gcc/nios2-elf/4.1.2/../../../../nios2-elf/lib\libc.a(lib_a-vsnprintf.o)
 .debug_pubnames
                0x00001685       0x22 c:/logicielge1/altera/13.0sp1/nios2eds/bin/gnu/h-i686-mingw32/bin/../lib/gcc/nios2-elf/4.1.2/../../../../nios2-elf/lib\libc.a(lib_a-wsetup.o)
 .debug_pubnames
                0x000016a7       0x1e c:/logicielge1/altera/13.0sp1/nios2eds/bin/gnu/h-i686-mingw32/bin/../lib/gcc/nios2-elf/4.1.2/../../../../nios2-elf/lib\libc.a(lib_a-dtoa.o)
 .debug_pubnames
                0x000016c5       0x2b c:/logicielge1/altera/13.0sp1/nios2eds/bin/gnu/h-i686-mingw32/bin/../lib/gcc/nios2-elf/4.1.2/../../../../nios2-elf/lib\libc.a(lib_a-fflush.o)
 .debug_pubnames
                0x000016f0       0xdb c:/logicielge1/altera/13.0sp1/nios2eds/bin/gnu/h-i686-mingw32/bin/../lib/gcc/nios2-elf/4.1.2/../../../../nios2-elf/lib\libc.a(lib_a-findfp.o)
 .debug_pubnames
                0x000017cb       0x31 c:/logicielge1/altera/13.0sp1/nios2eds/bin/gnu/h-i686-mingw32/bin/../lib/gcc/nios2-elf/4.1.2/../../../../nios2-elf/lib\libc.a(lib_a-freer.o)
 .debug_pubnames
                0x000017fc       0x23 c:/logicielge1/altera/13.0sp1/nios2eds/bin/gnu/h-i686-mingw32/bin/../lib/gcc/nios2-elf/4.1.2/../../../../nios2-elf/lib\libc.a(lib_a-fvwrite.o)
 .debug_pubnames
                0x0000181f       0x2e c:/logicielge1/altera/13.0sp1/nios2eds/bin/gnu/h-i686-mingw32/bin/../lib/gcc/nios2-elf/4.1.2/../../../../nios2-elf/lib\libc.a(lib_a-fwalk.o)
 .debug_pubnames
                0x0000184d       0x39 c:/logicielge1/altera/13.0sp1/nios2eds/bin/gnu/h-i686-mingw32/bin/../lib/gcc/nios2-elf/4.1.2/../../../../nios2-elf/lib\libc.a(lib_a-impure.o)
 .debug_pubnames
                0x00001886       0x1c c:/logicielge1/altera/13.0sp1/nios2eds/bin/gnu/h-i686-mingw32/bin/../lib/gcc/nios2-elf/4.1.2/../../../../nios2-elf/lib\libc.a(lib_a-int_errno.o)
 .debug_pubnames
                0x000018a2       0xc3 c:/logicielge1/altera/13.0sp1/nios2eds/bin/gnu/h-i686-mingw32/bin/../lib/gcc/nios2-elf/4.1.2/../../../../nios2-elf/lib\libc.a(lib_a-locale.o)
 .debug_pubnames
                0x00001965       0x23 c:/logicielge1/altera/13.0sp1/nios2eds/bin/gnu/h-i686-mingw32/bin/../lib/gcc/nios2-elf/4.1.2/../../../../nios2-elf/lib\libc.a(lib_a-makebuf.o)
 .debug_pubnames
                0x00001988       0x1d c:/logicielge1/altera/13.0sp1/nios2eds/bin/gnu/h-i686-mingw32/bin/../lib/gcc/nios2-elf/4.1.2/../../../../nios2-elf/lib\libc.a(lib_a-memchr.o)
 .debug_pubnames
                0x000019a5       0x1d c:/logicielge1/altera/13.0sp1/nios2eds/bin/gnu/h-i686-mingw32/bin/../lib/gcc/nios2-elf/4.1.2/../../../../nios2-elf/lib\libc.a(lib_a-memcpy.o)
 .debug_pubnames
                0x000019c2       0x1e c:/logicielge1/altera/13.0sp1/nios2eds/bin/gnu/h-i686-mingw32/bin/../lib/gcc/nios2-elf/4.1.2/../../../../nios2-elf/lib\libc.a(lib_a-memmove.o)
 .debug_pubnames
                0x000019e0      0x13a c:/logicielge1/altera/13.0sp1/nios2eds/bin/gnu/h-i686-mingw32/bin/../lib/gcc/nios2-elf/4.1.2/../../../../nios2-elf/lib\libc.a(lib_a-mprec.o)
 .debug_pubnames
                0x00001b1a       0x21 c:/logicielge1/altera/13.0sp1/nios2eds/bin/gnu/h-i686-mingw32/bin/../lib/gcc/nios2-elf/4.1.2/../../../../nios2-elf/lib\libc.a(lib_a-reallocr.o)
 .debug_pubnames
                0x00001b3b       0x1f c:/logicielge1/altera/13.0sp1/nios2eds/bin/gnu/h-i686-mingw32/bin/../lib/gcc/nios2-elf/4.1.2/../../../../nios2-elf/lib\libc.a(lib_a-s_isinfd.o)
 .debug_pubnames
                0x00001b5a       0x1f c:/logicielge1/altera/13.0sp1/nios2eds/bin/gnu/h-i686-mingw32/bin/../lib/gcc/nios2-elf/4.1.2/../../../../nios2-elf/lib\libc.a(lib_a-s_isnand.o)
 .debug_pubnames
                0x00001b79       0x44 c:/logicielge1/altera/13.0sp1/nios2eds/bin/gnu/h-i686-mingw32/bin/../lib/gcc/nios2-elf/4.1.2/../../../../nios2-elf/lib\libc.a(lib_a-stdio.o)
 .debug_pubnames
                0x00001bbd       0x1d c:/logicielge1/altera/13.0sp1/nios2eds/bin/gnu/h-i686-mingw32/bin/../lib/gcc/nios2-elf/4.1.2/../../../../nios2-elf/lib\libc.a(lib_a-strcmp.o)
 .debug_pubnames
                0x00001bda       0x1f c:/logicielge1/altera/13.0sp1/nios2eds/bin/gnu/h-i686-mingw32/bin/../lib/gcc/nios2-elf/4.1.2/../../../../nios2-elf/lib\libc.a(lib_a-writer.o)
 .debug_pubnames
                0x00001bf9       0x20 c:/logicielge1/altera/13.0sp1/nios2eds/bin/gnu/h-i686-mingw32/bin/../lib/gcc/nios2-elf/4.1.2/../../../../nios2-elf/lib\libc.a(lib_a-callocr.o)
 .debug_pubnames
                0x00001c19       0x1f c:/logicielge1/altera/13.0sp1/nios2eds/bin/gnu/h-i686-mingw32/bin/../lib/gcc/nios2-elf/4.1.2/../../../../nios2-elf/lib\libc.a(lib_a-closer.o)
 .debug_pubnames
                0x00001c38       0x2b c:/logicielge1/altera/13.0sp1/nios2eds/bin/gnu/h-i686-mingw32/bin/../lib/gcc/nios2-elf/4.1.2/../../../../nios2-elf/lib\libc.a(lib_a-fclose.o)
 .debug_pubnames
                0x00001c63       0x1f c:/logicielge1/altera/13.0sp1/nios2eds/bin/gnu/h-i686-mingw32/bin/../lib/gcc/nios2-elf/4.1.2/../../../../nios2-elf/lib\libc.a(lib_a-fstatr.o)
 .debug_pubnames
                0x00001c82       0x20 c:/logicielge1/altera/13.0sp1/nios2eds/bin/gnu/h-i686-mingw32/bin/../lib/gcc/nios2-elf/4.1.2/../../../../nios2-elf/lib\libc.a(lib_a-isattyr.o)
 .debug_pubnames
                0x00001ca2       0x1f c:/logicielge1/altera/13.0sp1/nios2eds/bin/gnu/h-i686-mingw32/bin/../lib/gcc/nios2-elf/4.1.2/../../../../nios2-elf/lib\libc.a(lib_a-lseekr.o)
 .debug_pubnames
                0x00001cc1       0x1e c:/logicielge1/altera/13.0sp1/nios2eds/bin/gnu/h-i686-mingw32/bin/../lib/gcc/nios2-elf/4.1.2/../../../../nios2-elf/lib\libc.a(lib_a-readr.o)
 .debug_pubnames
                0x00001cdf       0x20 c:/logicielge1/altera/13.0sp1/nios2eds/bin/gnu/h-i686-mingw32/bin/../lib/gcc/nios2-elf/4.1.2\libgcc.a(_udivdi3.o)
 .debug_pubnames
                0x00001cff       0x20 c:/logicielge1/altera/13.0sp1/nios2eds/bin/gnu/h-i686-mingw32/bin/../lib/gcc/nios2-elf/4.1.2\libgcc.a(_umoddi3.o)
 .debug_pubnames
                0x00001d1f       0x2c c:/logicielge1/altera/13.0sp1/nios2eds/bin/gnu/h-i686-mingw32/bin/../lib/gcc/nios2-elf/4.1.2\libgcc.a(_addsub_df.o)
 .debug_pubnames
                0x00001d4b       0x1f c:/logicielge1/altera/13.0sp1/nios2eds/bin/gnu/h-i686-mingw32/bin/../lib/gcc/nios2-elf/4.1.2\libgcc.a(_mul_df.o)
 .debug_pubnames
                0x00001d6a       0x1f c:/logicielge1/altera/13.0sp1/nios2eds/bin/gnu/h-i686-mingw32/bin/../lib/gcc/nios2-elf/4.1.2\libgcc.a(_div_df.o)
 .debug_pubnames
                0x00001d89       0x1e c:/logicielge1/altera/13.0sp1/nios2eds/bin/gnu/h-i686-mingw32/bin/../lib/gcc/nios2-elf/4.1.2\libgcc.a(_eq_df.o)
 .debug_pubnames
                0x00001da7       0x1e c:/logicielge1/altera/13.0sp1/nios2eds/bin/gnu/h-i686-mingw32/bin/../lib/gcc/nios2-elf/4.1.2\libgcc.a(_ne_df.o)
 .debug_pubnames
                0x00001dc5       0x1e c:/logicielge1/altera/13.0sp1/nios2eds/bin/gnu/h-i686-mingw32/bin/../lib/gcc/nios2-elf/4.1.2\libgcc.a(_gt_df.o)
 .debug_pubnames
                0x00001de3       0x1e c:/logicielge1/altera/13.0sp1/nios2eds/bin/gnu/h-i686-mingw32/bin/../lib/gcc/nios2-elf/4.1.2\libgcc.a(_ge_df.o)
 .debug_pubnames
                0x00001e01       0x1e c:/logicielge1/altera/13.0sp1/nios2eds/bin/gnu/h-i686-mingw32/bin/../lib/gcc/nios2-elf/4.1.2\libgcc.a(_lt_df.o)
 .debug_pubnames
                0x00001e1f       0x22 c:/logicielge1/altera/13.0sp1/nios2eds/bin/gnu/h-i686-mingw32/bin/../lib/gcc/nios2-elf/4.1.2\libgcc.a(_si_to_df.o)
 .debug_pubnames
                0x00001e41       0x20 c:/logicielge1/altera/13.0sp1/nios2eds/bin/gnu/h-i686-mingw32/bin/../lib/gcc/nios2-elf/4.1.2\libgcc.a(_df_to_si.o)
 .debug_pubnames
                0x00001e61       0x22 c:/logicielge1/altera/13.0sp1/nios2eds/bin/gnu/h-i686-mingw32/bin/../lib/gcc/nios2-elf/4.1.2\libgcc.a(_thenan_df.o)
 .debug_pubnames
                0x00001e83       0x24 c:/logicielge1/altera/13.0sp1/nios2eds/bin/gnu/h-i686-mingw32/bin/../lib/gcc/nios2-elf/4.1.2\libgcc.a(_usi_to_df.o)
 .debug_pubnames
                0x00001ea7       0x48 c:/logicielge1/altera/13.0sp1/nios2eds/bin/gnu/h-i686-mingw32/bin/../lib/gcc/nios2-elf/4.1.2\libgcc.a(lib2-divmod.o)
 .debug_pubnames
                0x00001eef       0x1f c:/logicielge1/altera/13.0sp1/nios2eds/bin/gnu/h-i686-mingw32/bin/../lib/gcc/nios2-elf/4.1.2\libgcc.a(_muldi3.o)
 .debug_pubnames
                0x00001f0e       0x20 c:/logicielge1/altera/13.0sp1/nios2eds/bin/gnu/h-i686-mingw32/bin/../lib/gcc/nios2-elf/4.1.2\libgcc.a(_clz.o)
 .debug_pubnames
                0x00001f2e       0x1f c:/logicielge1/altera/13.0sp1/nios2eds/bin/gnu/h-i686-mingw32/bin/../lib/gcc/nios2-elf/4.1.2\libgcc.a(_clzsi2.o)
 .debug_pubnames
                0x00001f4d       0x1f c:/logicielge1/altera/13.0sp1/nios2eds/bin/gnu/h-i686-mingw32/bin/../lib/gcc/nios2-elf/4.1.2\libgcc.a(_pack_df.o)
 .debug_pubnames
                0x00001f6c       0x21 c:/logicielge1/altera/13.0sp1/nios2eds/bin/gnu/h-i686-mingw32/bin/../lib/gcc/nios2-elf/4.1.2\libgcc.a(_unpack_df.o)
 .debug_pubnames
                0x00001f8d       0x26 c:/logicielge1/altera/13.0sp1/nios2eds/bin/gnu/h-i686-mingw32/bin/../lib/gcc/nios2-elf/4.1.2\libgcc.a(_fpcmp_parts_df.o)
 .debug_pubnames
                0x00001fb3       0x1c ../cmv_controller_bsp/\libhal_bsp.a(alt_close.o)
 .debug_pubnames
                0x00001fcf       0x63 ../cmv_controller_bsp/\libhal_bsp.a(alt_dev.o)
 .debug_pubnames
                0x00002032       0x20 ../cmv_controller_bsp/\libhal_bsp.a(alt_errno.o)
 .debug_pubnames
                0x00002052       0x1c ../cmv_controller_bsp/\libhal_bsp.a(alt_exit.o)
 .debug_pubnames
                0x0000206e       0x1c ../cmv_controller_bsp/\libhal_bsp.a(alt_fstat.o)
 .debug_pubnames
                0x0000208a       0x1d ../cmv_controller_bsp/\libhal_bsp.a(alt_getpid.o)
 .debug_pubnames
                0x000020a7       0x27 ../cmv_controller_bsp/\libhal_bsp.a(alt_irq_register.o)
 .debug_pubnames
                0x000020ce       0x3b ../cmv_controller_bsp/\libhal_bsp.a(alt_irq_vars.o)
 .debug_pubnames
                0x00002109       0x1d ../cmv_controller_bsp/\libhal_bsp.a(alt_isatty.o)
 .debug_pubnames
                0x00002126       0x1b ../cmv_controller_bsp/\libhal_bsp.a(alt_kill.o)
 .debug_pubnames
                0x00002141       0x1f ../cmv_controller_bsp/\libhal_bsp.a(alt_load.o)
 .debug_pubnames
                0x00002160       0x1c ../cmv_controller_bsp/\libhal_bsp.a(alt_lseek.o)
 .debug_pubnames
                0x0000217c       0x46 ../cmv_controller_bsp/\libhal_bsp.a(alt_main.o)
 .debug_pubnames
                0x000021c2       0x38 ../cmv_controller_bsp/\libhal_bsp.a(alt_malloc_lock.o)
 .debug_pubnames
                0x000021fa       0x1b ../cmv_controller_bsp/\libhal_bsp.a(alt_read.o)
 .debug_pubnames
                0x00002215       0x25 ../cmv_controller_bsp/\libhal_bsp.a(alt_release_fd.o)
 .debug_pubnames
                0x0000223a       0x1b ../cmv_controller_bsp/\libhal_bsp.a(alt_sbrk.o)
 .debug_pubnames
                0x00002255       0x1d ../cmv_controller_bsp/\libhal_bsp.a(alt_usleep.o)
 .debug_pubnames
                0x00002272       0x1c ../cmv_controller_bsp/\libhal_bsp.a(alt_write.o)
 .debug_pubnames
                0x0000228e       0x34 ../cmv_controller_bsp/\libhal_bsp.a(alt_sys_init.o)
 .debug_pubnames
                0x000022c2       0xa5 ../cmv_controller_bsp/\libhal_bsp.a(altera_avalon_jtag_uart_fd.o)
 .debug_pubnames
                0x00002367       0x55 ../cmv_controller_bsp/\libhal_bsp.a(altera_avalon_jtag_uart_init.o)
 .debug_pubnames
                0x000023bc       0x34 ../cmv_controller_bsp/\libhal_bsp.a(altera_avalon_jtag_uart_ioctl.o)
 .debug_pubnames
                0x000023f0       0x33 ../cmv_controller_bsp/\libhal_bsp.a(altera_avalon_jtag_uart_read.o)
 .debug_pubnames
                0x00002423       0x34 ../cmv_controller_bsp/\libhal_bsp.a(altera_avalon_jtag_uart_write.o)
 .debug_pubnames
                0x00002457       0x2d ../cmv_controller_bsp/\libhal_bsp.a(altera_avalon_spi.o)
 .debug_pubnames
                0x00002484       0x71 ../cmv_controller_bsp/\libhal_bsp.a(altera_avalon_uart_fd.o)
 .debug_pubnames
                0x000024f5       0x4b ../cmv_controller_bsp/\libhal_bsp.a(altera_avalon_uart_init.o)
 .debug_pubnames
                0x00002540       0x2e ../cmv_controller_bsp/\libhal_bsp.a(altera_avalon_uart_read.o)
 .debug_pubnames
                0x0000256e       0x2f ../cmv_controller_bsp/\libhal_bsp.a(altera_avalon_uart_write.o)
 .debug_pubnames
                0x0000259d       0x26 ../cmv_controller_bsp/\libhal_bsp.a(alt_alarm_start.o)
 .debug_pubnames
                0x000025c3       0x25 ../cmv_controller_bsp/\libhal_bsp.a(alt_busy_sleep.o)
 .debug_pubnames
                0x000025e8       0x2b ../cmv_controller_bsp/\libhal_bsp.a(alt_dcache_flush_all.o)
 .debug_pubnames
                0x00002613       0x2b ../cmv_controller_bsp/\libhal_bsp.a(alt_dev_llist_insert.o)
 .debug_pubnames
                0x0000263e       0x20 ../cmv_controller_bsp/\libhal_bsp.a(alt_do_ctors.o)
 .debug_pubnames
                0x0000265e       0x20 ../cmv_controller_bsp/\libhal_bsp.a(alt_do_dtors.o)
 .debug_pubnames
                0x0000267e       0x2b ../cmv_controller_bsp/\libhal_bsp.a(alt_icache_flush_all.o)
 .debug_pubnames
                0x000026a9       0x6e ../cmv_controller_bsp/\libhal_bsp.a(alt_iic.o)
 .debug_pubnames
                0x00002717       0x2b ../cmv_controller_bsp/\libhal_bsp.a(alt_iic_isr_register.o)
 .debug_pubnames
                0x00002742       0x26 ../cmv_controller_bsp/\libhal_bsp.a(alt_io_redirect.o)
 .debug_pubnames
                0x00002768       0x32 ../cmv_controller_bsp/\libhal_bsp.a(alt_irq_handler.o)
 .debug_pubnames
                0x0000279a       0x1b ../cmv_controller_bsp/\libhal_bsp.a(alt_open.o)
 .debug_pubnames
                0x000027b5       0x68 ../cmv_controller_bsp/\libhal_bsp.a(alt_tick.o)
 .debug_pubnames
                0x0000281d       0x31 ../cmv_controller_bsp/\libhal_bsp.a(altera_nios2_qsys_irq.o)
 .debug_pubnames
                0x0000284e       0x23 ../cmv_controller_bsp/\libhal_bsp.a(alt_find_dev.o)
 .debug_pubnames
                0x00002871       0x24 ../cmv_controller_bsp/\libhal_bsp.a(alt_find_file.o)
 .debug_pubnames
                0x00002895       0x21 ../cmv_controller_bsp/\libhal_bsp.a(alt_get_fd.o)
 .debug_pubnames
                0x000028b6       0x27 ../cmv_controller_bsp/\libhal_bsp.a(alt_icache_flush.o)
 .debug_pubnames
                0x000028dd       0x2a c:/logicielge1/altera/13.0sp1/nios2eds/bin/gnu/h-i686-mingw32/bin/../lib/gcc/nios2-elf/4.1.2/../../../../nios2-elf/lib\libc.a(lib_a-atexit.o)
 .debug_pubnames
                0x00002907       0x1b c:/logicielge1/altera/13.0sp1/nios2eds/bin/gnu/h-i686-mingw32/bin/../lib/gcc/nios2-elf/4.1.2/../../../../nios2-elf/lib\libc.a(lib_a-exit.o)
 .debug_pubnames
                0x00002922       0x1d c:/logicielge1/altera/13.0sp1/nios2eds/bin/gnu/h-i686-mingw32/bin/../lib/gcc/nios2-elf/4.1.2/../../../../nios2-elf/lib\libc.a(lib_a-memcmp.o)
 .debug_pubnames
                0x0000293f       0x2a c:/logicielge1/altera/13.0sp1/nios2eds/bin/gnu/h-i686-mingw32/bin/../lib/gcc/nios2-elf/4.1.2/../../../../nios2-elf/lib\libc.a(lib_a-__atexit.o)
 .debug_pubnames
                0x00002969       0x27 c:/logicielge1/altera/13.0sp1/nios2eds/bin/gnu/h-i686-mingw32/bin/../lib/gcc/nios2-elf/4.1.2/../../../../nios2-elf/lib\libc.a(lib_a-__call_atexit.o)

.debug_info     0x00000000    0x35041
 *(.debug_info .gnu.linkonce.wi.*)
 .debug_info    0x00000000       0xa1 ../cmv_controller_bsp//obj/HAL/src/crt0.o
 .debug_info    0x000000a1     0x100f obj/default/FSM.o
 .debug_info    0x000010b0      0x505 obj/default/controller/PIO.o
 .debug_info    0x000015b5      0x6bf obj/default/controller/PIO_Bus.o
 .debug_info    0x00001c74      0x5f3 obj/default/controller/PIO_Pin.o
 .debug_info    0x00002267      0x42d obj/default/controller/SPI.o
 .debug_info    0x00002694      0xc82 obj/default/controller/UART.o
 .debug_info    0x00003316      0x586 obj/default/main.o
 .debug_info    0x0000389c      0x6e7 c:/logicielge1/altera/13.0sp1/nios2eds/bin/gnu/h-i686-mingw32/bin/../lib/gcc/nios2-elf/4.1.2/../../../../nios2-elf/lib\libstdc++.a(eh_throw.o)
 .debug_info    0x00003f83      0x4e6 c:/logicielge1/altera/13.0sp1/nios2eds/bin/gnu/h-i686-mingw32/bin/../lib/gcc/nios2-elf/4.1.2/../../../../nios2-elf/lib\libstdc++.a(eh_term_handler.o)
 .debug_info    0x00004469       0xbd c:/logicielge1/altera/13.0sp1/nios2eds/bin/gnu/h-i686-mingw32/bin/../lib/gcc/nios2-elf/4.1.2/../../../../nios2-elf/lib\libstdc++.a(new_opv.o)
 .debug_info    0x00004526      0xa74 c:/logicielge1/altera/13.0sp1/nios2eds/bin/gnu/h-i686-mingw32/bin/../lib/gcc/nios2-elf/4.1.2/../../../../nios2-elf/lib\libstdc++.a(eh_catch.o)
 .debug_info    0x00004f9a      0x44c c:/logicielge1/altera/13.0sp1/nios2eds/bin/gnu/h-i686-mingw32/bin/../lib/gcc/nios2-elf/4.1.2/../../../../nios2-elf/lib\libstdc++.a(del_op.o)
 .debug_info    0x000053e6       0xb8 c:/logicielge1/altera/13.0sp1/nios2eds/bin/gnu/h-i686-mingw32/bin/../lib/gcc/nios2-elf/4.1.2/../../../../nios2-elf/lib\libstdc++.a(del_opv.o)
 .debug_info    0x0000549e      0x4cc c:/logicielge1/altera/13.0sp1/nios2eds/bin/gnu/h-i686-mingw32/bin/../lib/gcc/nios2-elf/4.1.2/../../../../nios2-elf/lib\libstdc++.a(eh_unex_handler.o)
 .debug_info    0x0000596a     0x141a c:/logicielge1/altera/13.0sp1/nios2eds/bin/gnu/h-i686-mingw32/bin/../lib/gcc/nios2-elf/4.1.2/../../../../nios2-elf/lib\libstdc++.a(eh_personality.o)
 .debug_info    0x00006d84      0x8df c:/logicielge1/altera/13.0sp1/nios2eds/bin/gnu/h-i686-mingw32/bin/../lib/gcc/nios2-elf/4.1.2/../../../../nios2-elf/lib\libstdc++.a(class_type_info.o)
 .debug_info    0x00007663      0x9dd c:/logicielge1/altera/13.0sp1/nios2eds/bin/gnu/h-i686-mingw32/bin/../lib/gcc/nios2-elf/4.1.2/../../../../nios2-elf/lib\libstdc++.a(si_class_type_info.o)
 .debug_info    0x00008040      0xaf4 c:/logicielge1/altera/13.0sp1/nios2eds/bin/gnu/h-i686-mingw32/bin/../lib/gcc/nios2-elf/4.1.2/../../../../nios2-elf/lib\libstdc++.a(eh_globals.o)
 .debug_info    0x00008b34      0x9c9 c:/logicielge1/altera/13.0sp1/nios2eds/bin/gnu/h-i686-mingw32/bin/../lib/gcc/nios2-elf/4.1.2/../../../../nios2-elf/lib\libstdc++.a(eh_terminate.o)
 .debug_info    0x000094fd      0x60c c:/logicielge1/altera/13.0sp1/nios2eds/bin/gnu/h-i686-mingw32/bin/../lib/gcc/nios2-elf/4.1.2/../../../../nios2-elf/lib\libstdc++.a(new_op.o)
 .debug_info    0x00009b09      0x8cd c:/logicielge1/altera/13.0sp1/nios2eds/bin/gnu/h-i686-mingw32/bin/../lib/gcc/nios2-elf/4.1.2/../../../../nios2-elf/lib\libstdc++.a(eh_call.o)
 .debug_info    0x0000a3d6      0x511 c:/logicielge1/altera/13.0sp1/nios2eds/bin/gnu/h-i686-mingw32/bin/../lib/gcc/nios2-elf/4.1.2/../../../../nios2-elf/lib\libstdc++.a(eh_exception.o)
 .debug_info    0x0000a8e7      0x6e7 c:/logicielge1/altera/13.0sp1/nios2eds/bin/gnu/h-i686-mingw32/bin/../lib/gcc/nios2-elf/4.1.2/../../../../nios2-elf/lib\libstdc++.a(fundamental_type_info.o)
 .debug_info    0x0000afce      0x2ab c:/logicielge1/altera/13.0sp1/nios2eds/bin/gnu/h-i686-mingw32/bin/../lib/gcc/nios2-elf/4.1.2/../../../../nios2-elf/lib\libstdc++.a(new_handler.o)
 .debug_info    0x0000b279      0xaaa c:/logicielge1/altera/13.0sp1/nios2eds/bin/gnu/h-i686-mingw32/bin/../lib/gcc/nios2-elf/4.1.2/../../../../nios2-elf/lib\libstdc++.a(eh_alloc.o)
 .debug_info    0x0000bd23      0x77c c:/logicielge1/altera/13.0sp1/nios2eds/bin/gnu/h-i686-mingw32/bin/../lib/gcc/nios2-elf/4.1.2/../../../../nios2-elf/lib\libstdc++.a(tinfo.o)
 .debug_info    0x0000c49f      0x995 c:/logicielge1/altera/13.0sp1/nios2eds/bin/gnu/h-i686-mingw32/bin/../lib/gcc/nios2-elf/4.1.2/../../../../nios2-elf/lib\libstdc++.a(pointer_type_info.o)
 .debug_info    0x0000ce34      0x8c6 c:/logicielge1/altera/13.0sp1/nios2eds/bin/gnu/h-i686-mingw32/bin/../lib/gcc/nios2-elf/4.1.2/../../../../nios2-elf/lib\libstdc++.a(pbase_type_info.o)
 .debug_info    0x0000d6fa      0xaac c:/logicielge1/altera/13.0sp1/nios2eds/bin/gnu/h-i686-mingw32/bin/../lib/gcc/nios2-elf/4.1.2\libgcc.a(unwind-sjlj.o)
 .debug_info    0x0000e1a6       0x8f c:/logicielge1/altera/13.0sp1/nios2eds/bin/gnu/h-i686-mingw32/bin/../lib/gcc/nios2-elf/4.1.2/../../../../nios2-elf/lib\libc.a(lib_a-abort.o)
 .debug_info    0x0000e235      0x96e c:/logicielge1/altera/13.0sp1/nios2eds/bin/gnu/h-i686-mingw32/bin/../lib/gcc/nios2-elf/4.1.2/../../../../nios2-elf/lib\libc.a(lib_a-malloc.o)
 .debug_info    0x0000eba3      0xcd0 c:/logicielge1/altera/13.0sp1/nios2eds/bin/gnu/h-i686-mingw32/bin/../lib/gcc/nios2-elf/4.1.2/../../../../nios2-elf/lib\libc.a(lib_a-mallocr.o)
 .debug_info    0x0000f873      0x113 c:/logicielge1/altera/13.0sp1/nios2eds/bin/gnu/h-i686-mingw32/bin/../lib/gcc/nios2-elf/4.1.2/../../../../nios2-elf/lib\libc.a(lib_a-memset.o)
 .debug_info    0x0000f986      0x9d1 c:/logicielge1/altera/13.0sp1/nios2eds/bin/gnu/h-i686-mingw32/bin/../lib/gcc/nios2-elf/4.1.2/../../../../nios2-elf/lib\libc.a(lib_a-printf.o)
 .debug_info    0x00010357      0x962 c:/logicielge1/altera/13.0sp1/nios2eds/bin/gnu/h-i686-mingw32/bin/../lib/gcc/nios2-elf/4.1.2/../../../../nios2-elf/lib\libc.a(lib_a-sbrkr.o)
 .debug_info    0x00010cb9      0xae9 c:/logicielge1/altera/13.0sp1/nios2eds/bin/gnu/h-i686-mingw32/bin/../lib/gcc/nios2-elf/4.1.2/../../../../nios2-elf/lib\libc.a(lib_a-signal.o)
 .debug_info    0x000117a2      0x99e c:/logicielge1/altera/13.0sp1/nios2eds/bin/gnu/h-i686-mingw32/bin/../lib/gcc/nios2-elf/4.1.2/../../../../nios2-elf/lib\libc.a(lib_a-signalr.o)
 .debug_info    0x00012140       0xdb c:/logicielge1/altera/13.0sp1/nios2eds/bin/gnu/h-i686-mingw32/bin/../lib/gcc/nios2-elf/4.1.2/../../../../nios2-elf/lib\libc.a(lib_a-strlen.o)
 .debug_info    0x0001221b     0x10d5 c:/logicielge1/altera/13.0sp1/nios2eds/bin/gnu/h-i686-mingw32/bin/../lib/gcc/nios2-elf/4.1.2/../../../../nios2-elf/lib\libc.a(lib_a-vfprintf.o)
 .debug_info    0x000132f0      0xa1b c:/logicielge1/altera/13.0sp1/nios2eds/bin/gnu/h-i686-mingw32/bin/../lib/gcc/nios2-elf/4.1.2/../../../../nios2-elf/lib\libc.a(lib_a-vsnprintf.o)
 .debug_info    0x00013d0b      0x95d c:/logicielge1/altera/13.0sp1/nios2eds/bin/gnu/h-i686-mingw32/bin/../lib/gcc/nios2-elf/4.1.2/../../../../nios2-elf/lib\libc.a(lib_a-wsetup.o)
 .debug_info    0x00014668      0xd6f c:/logicielge1/altera/13.0sp1/nios2eds/bin/gnu/h-i686-mingw32/bin/../lib/gcc/nios2-elf/4.1.2/../../../../nios2-elf/lib\libc.a(lib_a-dtoa.o)
 .debug_info    0x000153d7      0x9fe c:/logicielge1/altera/13.0sp1/nios2eds/bin/gnu/h-i686-mingw32/bin/../lib/gcc/nios2-elf/4.1.2/../../../../nios2-elf/lib\libc.a(lib_a-fflush.o)
 .debug_info    0x00015dd5      0xb72 c:/logicielge1/altera/13.0sp1/nios2eds/bin/gnu/h-i686-mingw32/bin/../lib/gcc/nios2-elf/4.1.2/../../../../nios2-elf/lib\libc.a(lib_a-findfp.o)
 .debug_info    0x00016947      0xbc9 c:/logicielge1/altera/13.0sp1/nios2eds/bin/gnu/h-i686-mingw32/bin/../lib/gcc/nios2-elf/4.1.2/../../../../nios2-elf/lib\libc.a(lib_a-freer.o)
 .debug_info    0x00017510      0xa88 c:/logicielge1/altera/13.0sp1/nios2eds/bin/gnu/h-i686-mingw32/bin/../lib/gcc/nios2-elf/4.1.2/../../../../nios2-elf/lib\libc.a(lib_a-fvwrite.o)
 .debug_info    0x00017f98      0xaed c:/logicielge1/altera/13.0sp1/nios2eds/bin/gnu/h-i686-mingw32/bin/../lib/gcc/nios2-elf/4.1.2/../../../../nios2-elf/lib\libc.a(lib_a-fwalk.o)
 .debug_info    0x00018a85      0x93d c:/logicielge1/altera/13.0sp1/nios2eds/bin/gnu/h-i686-mingw32/bin/../lib/gcc/nios2-elf/4.1.2/../../../../nios2-elf/lib\libc.a(lib_a-impure.o)
 .debug_info    0x000193c2       0x8c c:/logicielge1/altera/13.0sp1/nios2eds/bin/gnu/h-i686-mingw32/bin/../lib/gcc/nios2-elf/4.1.2/../../../../nios2-elf/lib\libc.a(lib_a-int_errno.o)
 .debug_info    0x0001944e      0xb97 c:/logicielge1/altera/13.0sp1/nios2eds/bin/gnu/h-i686-mingw32/bin/../lib/gcc/nios2-elf/4.1.2/../../../../nios2-elf/lib\libc.a(lib_a-locale.o)
 .debug_info    0x00019fe5      0xb1a c:/logicielge1/altera/13.0sp1/nios2eds/bin/gnu/h-i686-mingw32/bin/../lib/gcc/nios2-elf/4.1.2/../../../../nios2-elf/lib\libc.a(lib_a-makebuf.o)
 .debug_info    0x0001aaff      0x138 c:/logicielge1/altera/13.0sp1/nios2eds/bin/gnu/h-i686-mingw32/bin/../lib/gcc/nios2-elf/4.1.2/../../../../nios2-elf/lib\libc.a(lib_a-memchr.o)
 .debug_info    0x0001ac37      0x106 c:/logicielge1/altera/13.0sp1/nios2eds/bin/gnu/h-i686-mingw32/bin/../lib/gcc/nios2-elf/4.1.2/../../../../nios2-elf/lib\libc.a(lib_a-memcpy.o)
 .debug_info    0x0001ad3d      0x13e c:/logicielge1/altera/13.0sp1/nios2eds/bin/gnu/h-i686-mingw32/bin/../lib/gcc/nios2-elf/4.1.2/../../../../nios2-elf/lib\libc.a(lib_a-memmove.o)
 .debug_info    0x0001ae7b     0x1437 c:/logicielge1/altera/13.0sp1/nios2eds/bin/gnu/h-i686-mingw32/bin/../lib/gcc/nios2-elf/4.1.2/../../../../nios2-elf/lib\libc.a(lib_a-mprec.o)
 .debug_info    0x0001c2b2      0xbd7 c:/logicielge1/altera/13.0sp1/nios2eds/bin/gnu/h-i686-mingw32/bin/../lib/gcc/nios2-elf/4.1.2/../../../../nios2-elf/lib\libc.a(lib_a-reallocr.o)
 .debug_info    0x0001ce89       0xd7 c:/logicielge1/altera/13.0sp1/nios2eds/bin/gnu/h-i686-mingw32/bin/../lib/gcc/nios2-elf/4.1.2/../../../../nios2-elf/lib\libc.a(lib_a-s_isinfd.o)
 .debug_info    0x0001cf60       0xd5 c:/logicielge1/altera/13.0sp1/nios2eds/bin/gnu/h-i686-mingw32/bin/../lib/gcc/nios2-elf/4.1.2/../../../../nios2-elf/lib\libc.a(lib_a-s_isnand.o)
 .debug_info    0x0001d035      0xaac c:/logicielge1/altera/13.0sp1/nios2eds/bin/gnu/h-i686-mingw32/bin/../lib/gcc/nios2-elf/4.1.2/../../../../nios2-elf/lib\libc.a(lib_a-stdio.o)
 .debug_info    0x0001dae1       0xdd c:/logicielge1/altera/13.0sp1/nios2eds/bin/gnu/h-i686-mingw32/bin/../lib/gcc/nios2-elf/4.1.2/../../../../nios2-elf/lib\libc.a(lib_a-strcmp.o)
 .debug_info    0x0001dbbe      0x993 c:/logicielge1/altera/13.0sp1/nios2eds/bin/gnu/h-i686-mingw32/bin/../lib/gcc/nios2-elf/4.1.2/../../../../nios2-elf/lib\libc.a(lib_a-writer.o)
 .debug_info    0x0001e551      0xa1b c:/logicielge1/altera/13.0sp1/nios2eds/bin/gnu/h-i686-mingw32/bin/../lib/gcc/nios2-elf/4.1.2/../../../../nios2-elf/lib\libc.a(lib_a-callocr.o)
 .debug_info    0x0001ef6c      0x958 c:/logicielge1/altera/13.0sp1/nios2eds/bin/gnu/h-i686-mingw32/bin/../lib/gcc/nios2-elf/4.1.2/../../../../nios2-elf/lib\libc.a(lib_a-closer.o)
 .debug_info    0x0001f8c4      0x994 c:/logicielge1/altera/13.0sp1/nios2eds/bin/gnu/h-i686-mingw32/bin/../lib/gcc/nios2-elf/4.1.2/../../../../nios2-elf/lib\libc.a(lib_a-fclose.o)
 .debug_info    0x00020258      0xafc c:/logicielge1/altera/13.0sp1/nios2eds/bin/gnu/h-i686-mingw32/bin/../lib/gcc/nios2-elf/4.1.2/../../../../nios2-elf/lib\libc.a(lib_a-fstatr.o)
 .debug_info    0x00020d54      0x958 c:/logicielge1/altera/13.0sp1/nios2eds/bin/gnu/h-i686-mingw32/bin/../lib/gcc/nios2-elf/4.1.2/../../../../nios2-elf/lib\libc.a(lib_a-isattyr.o)
 .debug_info    0x000216ac      0x981 c:/logicielge1/altera/13.0sp1/nios2eds/bin/gnu/h-i686-mingw32/bin/../lib/gcc/nios2-elf/4.1.2/../../../../nios2-elf/lib\libc.a(lib_a-lseekr.o)
 .debug_info    0x0002202d      0x98c c:/logicielge1/altera/13.0sp1/nios2eds/bin/gnu/h-i686-mingw32/bin/../lib/gcc/nios2-elf/4.1.2/../../../../nios2-elf/lib\libc.a(lib_a-readr.o)
 .debug_info    0x000229b9      0x724 c:/logicielge1/altera/13.0sp1/nios2eds/bin/gnu/h-i686-mingw32/bin/../lib/gcc/nios2-elf/4.1.2\libgcc.a(_udivdi3.o)
 .debug_info    0x000230dd      0x751 c:/logicielge1/altera/13.0sp1/nios2eds/bin/gnu/h-i686-mingw32/bin/../lib/gcc/nios2-elf/4.1.2\libgcc.a(_umoddi3.o)
 .debug_info    0x0002382e      0x493 c:/logicielge1/altera/13.0sp1/nios2eds/bin/gnu/h-i686-mingw32/bin/../lib/gcc/nios2-elf/4.1.2\libgcc.a(_addsub_df.o)
 .debug_info    0x00023cc1      0x488 c:/logicielge1/altera/13.0sp1/nios2eds/bin/gnu/h-i686-mingw32/bin/../lib/gcc/nios2-elf/4.1.2\libgcc.a(_mul_df.o)
 .debug_info    0x00024149      0x39b c:/logicielge1/altera/13.0sp1/nios2eds/bin/gnu/h-i686-mingw32/bin/../lib/gcc/nios2-elf/4.1.2\libgcc.a(_div_df.o)
 .debug_info    0x000244e4      0x29d c:/logicielge1/altera/13.0sp1/nios2eds/bin/gnu/h-i686-mingw32/bin/../lib/gcc/nios2-elf/4.1.2\libgcc.a(_eq_df.o)
 .debug_info    0x00024781      0x29d c:/logicielge1/altera/13.0sp1/nios2eds/bin/gnu/h-i686-mingw32/bin/../lib/gcc/nios2-elf/4.1.2\libgcc.a(_ne_df.o)
 .debug_info    0x00024a1e      0x29d c:/logicielge1/altera/13.0sp1/nios2eds/bin/gnu/h-i686-mingw32/bin/../lib/gcc/nios2-elf/4.1.2\libgcc.a(_gt_df.o)
 .debug_info    0x00024cbb      0x29d c:/logicielge1/altera/13.0sp1/nios2eds/bin/gnu/h-i686-mingw32/bin/../lib/gcc/nios2-elf/4.1.2\libgcc.a(_ge_df.o)
 .debug_info    0x00024f58      0x29d c:/logicielge1/altera/13.0sp1/nios2eds/bin/gnu/h-i686-mingw32/bin/../lib/gcc/nios2-elf/4.1.2\libgcc.a(_lt_df.o)
 .debug_info    0x000251f5      0x218 c:/logicielge1/altera/13.0sp1/nios2eds/bin/gnu/h-i686-mingw32/bin/../lib/gcc/nios2-elf/4.1.2\libgcc.a(_si_to_df.o)
 .debug_info    0x0002540d      0x2cd c:/logicielge1/altera/13.0sp1/nios2eds/bin/gnu/h-i686-mingw32/bin/../lib/gcc/nios2-elf/4.1.2\libgcc.a(_df_to_si.o)
 .debug_info    0x000256da      0x164 c:/logicielge1/altera/13.0sp1/nios2eds/bin/gnu/h-i686-mingw32/bin/../lib/gcc/nios2-elf/4.1.2\libgcc.a(_thenan_df.o)
 .debug_info    0x0002583e      0x213 c:/logicielge1/altera/13.0sp1/nios2eds/bin/gnu/h-i686-mingw32/bin/../lib/gcc/nios2-elf/4.1.2\libgcc.a(_usi_to_df.o)
 .debug_info    0x00025a51      0x21c c:/logicielge1/altera/13.0sp1/nios2eds/bin/gnu/h-i686-mingw32/bin/../lib/gcc/nios2-elf/4.1.2\libgcc.a(lib2-divmod.o)
 .debug_info    0x00025c6d      0x215 c:/logicielge1/altera/13.0sp1/nios2eds/bin/gnu/h-i686-mingw32/bin/../lib/gcc/nios2-elf/4.1.2\libgcc.a(_muldi3.o)
 .debug_info    0x00025e82       0xc9 c:/logicielge1/altera/13.0sp1/nios2eds/bin/gnu/h-i686-mingw32/bin/../lib/gcc/nios2-elf/4.1.2\libgcc.a(_clz.o)
 .debug_info    0x00025f4b      0x130 c:/logicielge1/altera/13.0sp1/nios2eds/bin/gnu/h-i686-mingw32/bin/../lib/gcc/nios2-elf/4.1.2\libgcc.a(_clzsi2.o)
 .debug_info    0x0002607b      0x2fc c:/logicielge1/altera/13.0sp1/nios2eds/bin/gnu/h-i686-mingw32/bin/../lib/gcc/nios2-elf/4.1.2\libgcc.a(_pack_df.o)
 .debug_info    0x00026377      0x268 c:/logicielge1/altera/13.0sp1/nios2eds/bin/gnu/h-i686-mingw32/bin/../lib/gcc/nios2-elf/4.1.2\libgcc.a(_unpack_df.o)
 .debug_info    0x000265df      0x21b c:/logicielge1/altera/13.0sp1/nios2eds/bin/gnu/h-i686-mingw32/bin/../lib/gcc/nios2-elf/4.1.2\libgcc.a(_fpcmp_parts_df.o)
 .debug_info    0x000267fa      0x48d ../cmv_controller_bsp/\libhal_bsp.a(alt_close.o)
 .debug_info    0x00026c87      0x6a5 ../cmv_controller_bsp/\libhal_bsp.a(alt_dev.o)
 .debug_info    0x0002732c      0x18a ../cmv_controller_bsp/\libhal_bsp.a(alt_errno.o)
 .debug_info    0x000274b6      0x1b3 ../cmv_controller_bsp/\libhal_bsp.a(alt_exit.o)
 .debug_info    0x00027669      0x686 ../cmv_controller_bsp/\libhal_bsp.a(alt_fstat.o)
 .debug_info    0x00027cef       0xce ../cmv_controller_bsp/\libhal_bsp.a(alt_getpid.o)
 .debug_info    0x00027dbd      0x450 ../cmv_controller_bsp/\libhal_bsp.a(alt_irq_register.o)
 .debug_info    0x0002820d      0x18d ../cmv_controller_bsp/\libhal_bsp.a(alt_irq_vars.o)
 .debug_info    0x0002839a      0x68c ../cmv_controller_bsp/\libhal_bsp.a(alt_isatty.o)
 .debug_info    0x00028a26      0x1f2 ../cmv_controller_bsp/\libhal_bsp.a(alt_kill.o)
 .debug_info    0x00028c18      0x2b3 ../cmv_controller_bsp/\libhal_bsp.a(alt_load.o)
 .debug_info    0x00028ecb      0x4c0 ../cmv_controller_bsp/\libhal_bsp.a(alt_lseek.o)
 .debug_info    0x0002938b      0x24b ../cmv_controller_bsp/\libhal_bsp.a(alt_main.o)
 .debug_info    0x000295d6      0xc3e ../cmv_controller_bsp/\libhal_bsp.a(alt_malloc_lock.o)
 .debug_info    0x0002a214      0x6b0 ../cmv_controller_bsp/\libhal_bsp.a(alt_read.o)
 .debug_info    0x0002a8c4      0x418 ../cmv_controller_bsp/\libhal_bsp.a(alt_release_fd.o)
 .debug_info    0x0002acdc      0x2dd ../cmv_controller_bsp/\libhal_bsp.a(alt_sbrk.o)
 .debug_info    0x0002afb9      0x18e ../cmv_controller_bsp/\libhal_bsp.a(alt_usleep.o)
 .debug_info    0x0002b147      0x6b9 ../cmv_controller_bsp/\libhal_bsp.a(alt_write.o)
 .debug_info    0x0002b800      0x858 ../cmv_controller_bsp/\libhal_bsp.a(alt_sys_init.o)
 .debug_info    0x0002c058      0x7ff ../cmv_controller_bsp/\libhal_bsp.a(altera_avalon_jtag_uart_fd.o)
 .debug_info    0x0002c857      0x627 ../cmv_controller_bsp/\libhal_bsp.a(altera_avalon_jtag_uart_init.o)
 .debug_info    0x0002ce7e      0x469 ../cmv_controller_bsp/\libhal_bsp.a(altera_avalon_jtag_uart_ioctl.o)
 .debug_info    0x0002d2e7      0x56c ../cmv_controller_bsp/\libhal_bsp.a(altera_avalon_jtag_uart_read.o)
 .debug_info    0x0002d853      0x564 ../cmv_controller_bsp/\libhal_bsp.a(altera_avalon_jtag_uart_write.o)
 .debug_info    0x0002ddb7      0x2cf ../cmv_controller_bsp/\libhal_bsp.a(altera_avalon_spi.o)
 .debug_info    0x0002e086      0x662 ../cmv_controller_bsp/\libhal_bsp.a(altera_avalon_uart_fd.o)
 .debug_info    0x0002e6e8      0x534 ../cmv_controller_bsp/\libhal_bsp.a(altera_avalon_uart_init.o)
 .debug_info    0x0002ec1c      0x4e8 ../cmv_controller_bsp/\libhal_bsp.a(altera_avalon_uart_read.o)
 .debug_info    0x0002f104      0x4e6 ../cmv_controller_bsp/\libhal_bsp.a(altera_avalon_uart_write.o)
 .debug_info    0x0002f5ea      0x468 ../cmv_controller_bsp/\libhal_bsp.a(alt_alarm_start.o)
 .debug_info    0x0002fa52      0x1d1 ../cmv_controller_bsp/\libhal_bsp.a(alt_busy_sleep.o)
 .debug_info    0x0002fc23      0x195 ../cmv_controller_bsp/\libhal_bsp.a(alt_dcache_flush_all.o)
 .debug_info    0x0002fdb8      0x2dd ../cmv_controller_bsp/\libhal_bsp.a(alt_dev_llist_insert.o)
 .debug_info    0x00030095      0x135 ../cmv_controller_bsp/\libhal_bsp.a(alt_do_ctors.o)
 .debug_info    0x000301ca      0x134 ../cmv_controller_bsp/\libhal_bsp.a(alt_do_dtors.o)
 .debug_info    0x000302fe      0x182 ../cmv_controller_bsp/\libhal_bsp.a(alt_icache_flush_all.o)
 .debug_info    0x00030480      0x4b9 ../cmv_controller_bsp/\libhal_bsp.a(alt_iic.o)
 .debug_info    0x00030939      0x33a ../cmv_controller_bsp/\libhal_bsp.a(alt_iic_isr_register.o)
 .debug_info    0x00030c73      0x6bb ../cmv_controller_bsp/\libhal_bsp.a(alt_io_redirect.o)
 .debug_info    0x0003132e       0xaa ../cmv_controller_bsp/\libhal_bsp.a(alt_irq_entry.o)
 .debug_info    0x000313d8      0x29b ../cmv_controller_bsp/\libhal_bsp.a(alt_irq_handler.o)
 .debug_info    0x00031673      0x54b ../cmv_controller_bsp/\libhal_bsp.a(alt_open.o)
 .debug_info    0x00031bbe      0x424 ../cmv_controller_bsp/\libhal_bsp.a(alt_tick.o)
 .debug_info    0x00031fe2      0x189 ../cmv_controller_bsp/\libhal_bsp.a(altera_nios2_qsys_irq.o)
 .debug_info    0x0003216b       0xb0 ../cmv_controller_bsp/\libhal_bsp.a(alt_exception_entry.o)
 .debug_info    0x0003221b      0x43e ../cmv_controller_bsp/\libhal_bsp.a(alt_find_dev.o)
 .debug_info    0x00032659      0x445 ../cmv_controller_bsp/\libhal_bsp.a(alt_find_file.o)
 .debug_info    0x00032a9e      0x486 ../cmv_controller_bsp/\libhal_bsp.a(alt_get_fd.o)
 .debug_info    0x00032f24      0x1ca ../cmv_controller_bsp/\libhal_bsp.a(alt_icache_flush.o)
 .debug_info    0x000330ee      0x181 c:/logicielge1/altera/13.0sp1/nios2eds/bin/gnu/h-i686-mingw32/bin/../lib/gcc/nios2-elf/4.1.2/../../../../nios2-elf/lib\libc.a(lib_a-atexit.o)
 .debug_info    0x0003326f      0x93f c:/logicielge1/altera/13.0sp1/nios2eds/bin/gnu/h-i686-mingw32/bin/../lib/gcc/nios2-elf/4.1.2/../../../../nios2-elf/lib\libc.a(lib_a-exit.o)
 .debug_info    0x00033bae      0x115 c:/logicielge1/altera/13.0sp1/nios2eds/bin/gnu/h-i686-mingw32/bin/../lib/gcc/nios2-elf/4.1.2/../../../../nios2-elf/lib\libc.a(lib_a-memcmp.o)
 .debug_info    0x00033cc3      0x99c c:/logicielge1/altera/13.0sp1/nios2eds/bin/gnu/h-i686-mingw32/bin/../lib/gcc/nios2-elf/4.1.2/../../../../nios2-elf/lib\libc.a(lib_a-__atexit.o)
 .debug_info    0x0003465f      0x9e2 c:/logicielge1/altera/13.0sp1/nios2eds/bin/gnu/h-i686-mingw32/bin/../lib/gcc/nios2-elf/4.1.2/../../../../nios2-elf/lib\libc.a(lib_a-__call_atexit.o)

.debug_abbrev   0x00000000     0xcd24
 *(.debug_abbrev)
 .debug_abbrev  0x00000000       0x12 ../cmv_controller_bsp//obj/HAL/src/crt0.o
 .debug_abbrev  0x00000012      0x246 obj/default/FSM.o
 .debug_abbrev  0x00000258      0x179 obj/default/controller/PIO.o
 .debug_abbrev  0x000003d1      0x1b3 obj/default/controller/PIO_Bus.o
 .debug_abbrev  0x00000584      0x1a7 obj/default/controller/PIO_Pin.o
 .debug_abbrev  0x0000072b      0x182 obj/default/controller/SPI.o
 .debug_abbrev  0x000008ad      0x252 obj/default/controller/UART.o
 .debug_abbrev  0x00000aff      0x132 obj/default/main.o
 .debug_abbrev  0x00000c31      0x2a1 c:/logicielge1/altera/13.0sp1/nios2eds/bin/gnu/h-i686-mingw32/bin/../lib/gcc/nios2-elf/4.1.2/../../../../nios2-elf/lib\libstdc++.a(eh_throw.o)
 .debug_abbrev  0x00000ed2      0x1fc c:/logicielge1/altera/13.0sp1/nios2eds/bin/gnu/h-i686-mingw32/bin/../lib/gcc/nios2-elf/4.1.2/../../../../nios2-elf/lib\libstdc++.a(eh_term_handler.o)
 .debug_abbrev  0x000010ce       0xa2 c:/logicielge1/altera/13.0sp1/nios2eds/bin/gnu/h-i686-mingw32/bin/../lib/gcc/nios2-elf/4.1.2/../../../../nios2-elf/lib\libstdc++.a(new_opv.o)
 .debug_abbrev  0x00001170      0x31f c:/logicielge1/altera/13.0sp1/nios2eds/bin/gnu/h-i686-mingw32/bin/../lib/gcc/nios2-elf/4.1.2/../../../../nios2-elf/lib\libstdc++.a(eh_catch.o)
 .debug_abbrev  0x0000148f      0x13d c:/logicielge1/altera/13.0sp1/nios2eds/bin/gnu/h-i686-mingw32/bin/../lib/gcc/nios2-elf/4.1.2/../../../../nios2-elf/lib\libstdc++.a(del_op.o)
 .debug_abbrev  0x000015cc       0xa0 c:/logicielge1/altera/13.0sp1/nios2eds/bin/gnu/h-i686-mingw32/bin/../lib/gcc/nios2-elf/4.1.2/../../../../nios2-elf/lib\libstdc++.a(del_opv.o)
 .debug_abbrev  0x0000166c      0x1e6 c:/logicielge1/altera/13.0sp1/nios2eds/bin/gnu/h-i686-mingw32/bin/../lib/gcc/nios2-elf/4.1.2/../../../../nios2-elf/lib\libstdc++.a(eh_unex_handler.o)
 .debug_abbrev  0x00001852      0x52a c:/logicielge1/altera/13.0sp1/nios2eds/bin/gnu/h-i686-mingw32/bin/../lib/gcc/nios2-elf/4.1.2/../../../../nios2-elf/lib\libstdc++.a(eh_personality.o)
 .debug_abbrev  0x00001d7c      0x3cb c:/logicielge1/altera/13.0sp1/nios2eds/bin/gnu/h-i686-mingw32/bin/../lib/gcc/nios2-elf/4.1.2/../../../../nios2-elf/lib\libstdc++.a(class_type_info.o)
 .debug_abbrev  0x00002147      0x3e2 c:/logicielge1/altera/13.0sp1/nios2eds/bin/gnu/h-i686-mingw32/bin/../lib/gcc/nios2-elf/4.1.2/../../../../nios2-elf/lib\libstdc++.a(si_class_type_info.o)
 .debug_abbrev  0x00002529      0x340 c:/logicielge1/altera/13.0sp1/nios2eds/bin/gnu/h-i686-mingw32/bin/../lib/gcc/nios2-elf/4.1.2/../../../../nios2-elf/lib\libstdc++.a(eh_globals.o)
 .debug_abbrev  0x00002869      0x2dc c:/logicielge1/altera/13.0sp1/nios2eds/bin/gnu/h-i686-mingw32/bin/../lib/gcc/nios2-elf/4.1.2/../../../../nios2-elf/lib\libstdc++.a(eh_terminate.o)
 .debug_abbrev  0x00002b45      0x227 c:/logicielge1/altera/13.0sp1/nios2eds/bin/gnu/h-i686-mingw32/bin/../lib/gcc/nios2-elf/4.1.2/../../../../nios2-elf/lib\libstdc++.a(new_op.o)
 .debug_abbrev  0x00002d6c      0x2ad c:/logicielge1/altera/13.0sp1/nios2eds/bin/gnu/h-i686-mingw32/bin/../lib/gcc/nios2-elf/4.1.2/../../../../nios2-elf/lib\libstdc++.a(eh_call.o)
 .debug_abbrev  0x00003019      0x21c c:/logicielge1/altera/13.0sp1/nios2eds/bin/gnu/h-i686-mingw32/bin/../lib/gcc/nios2-elf/4.1.2/../../../../nios2-elf/lib\libstdc++.a(eh_exception.o)
 .debug_abbrev  0x00003235      0x30d c:/logicielge1/altera/13.0sp1/nios2eds/bin/gnu/h-i686-mingw32/bin/../lib/gcc/nios2-elf/4.1.2/../../../../nios2-elf/lib\libstdc++.a(fundamental_type_info.o)
 .debug_abbrev  0x00003542      0x1c6 c:/logicielge1/altera/13.0sp1/nios2eds/bin/gnu/h-i686-mingw32/bin/../lib/gcc/nios2-elf/4.1.2/../../../../nios2-elf/lib\libstdc++.a(new_handler.o)
 .debug_abbrev  0x00003708      0x2f8 c:/logicielge1/altera/13.0sp1/nios2eds/bin/gnu/h-i686-mingw32/bin/../lib/gcc/nios2-elf/4.1.2/../../../../nios2-elf/lib\libstdc++.a(eh_alloc.o)
 .debug_abbrev  0x00003a00      0x34f c:/logicielge1/altera/13.0sp1/nios2eds/bin/gnu/h-i686-mingw32/bin/../lib/gcc/nios2-elf/4.1.2/../../../../nios2-elf/lib\libstdc++.a(tinfo.o)
 .debug_abbrev  0x00003d4f      0x3cb c:/logicielge1/altera/13.0sp1/nios2eds/bin/gnu/h-i686-mingw32/bin/../lib/gcc/nios2-elf/4.1.2/../../../../nios2-elf/lib\libstdc++.a(pointer_type_info.o)
 .debug_abbrev  0x0000411a      0x389 c:/logicielge1/altera/13.0sp1/nios2eds/bin/gnu/h-i686-mingw32/bin/../lib/gcc/nios2-elf/4.1.2/../../../../nios2-elf/lib\libstdc++.a(pbase_type_info.o)
 .debug_abbrev  0x000044a3      0x363 c:/logicielge1/altera/13.0sp1/nios2eds/bin/gnu/h-i686-mingw32/bin/../lib/gcc/nios2-elf/4.1.2\libgcc.a(unwind-sjlj.o)
 .debug_abbrev  0x00004806       0x3f c:/logicielge1/altera/13.0sp1/nios2eds/bin/gnu/h-i686-mingw32/bin/../lib/gcc/nios2-elf/4.1.2/../../../../nios2-elf/lib\libc.a(lib_a-abort.o)
 .debug_abbrev  0x00004845      0x187 c:/logicielge1/altera/13.0sp1/nios2eds/bin/gnu/h-i686-mingw32/bin/../lib/gcc/nios2-elf/4.1.2/../../../../nios2-elf/lib\libc.a(lib_a-malloc.o)
 .debug_abbrev  0x000049cc      0x216 c:/logicielge1/altera/13.0sp1/nios2eds/bin/gnu/h-i686-mingw32/bin/../lib/gcc/nios2-elf/4.1.2/../../../../nios2-elf/lib\libc.a(lib_a-mallocr.o)
 .debug_abbrev  0x00004be2       0xb8 c:/logicielge1/altera/13.0sp1/nios2eds/bin/gnu/h-i686-mingw32/bin/../lib/gcc/nios2-elf/4.1.2/../../../../nios2-elf/lib\libc.a(lib_a-memset.o)
 .debug_abbrev  0x00004c9a      0x191 c:/logicielge1/altera/13.0sp1/nios2eds/bin/gnu/h-i686-mingw32/bin/../lib/gcc/nios2-elf/4.1.2/../../../../nios2-elf/lib\libc.a(lib_a-printf.o)
 .debug_abbrev  0x00004e2b      0x18c c:/logicielge1/altera/13.0sp1/nios2eds/bin/gnu/h-i686-mingw32/bin/../lib/gcc/nios2-elf/4.1.2/../../../../nios2-elf/lib\libc.a(lib_a-sbrkr.o)
 .debug_abbrev  0x00004fb7      0x1cb c:/logicielge1/altera/13.0sp1/nios2eds/bin/gnu/h-i686-mingw32/bin/../lib/gcc/nios2-elf/4.1.2/../../../../nios2-elf/lib\libc.a(lib_a-signal.o)
 .debug_abbrev  0x00005182      0x1a5 c:/logicielge1/altera/13.0sp1/nios2eds/bin/gnu/h-i686-mingw32/bin/../lib/gcc/nios2-elf/4.1.2/../../../../nios2-elf/lib\libc.a(lib_a-signalr.o)
 .debug_abbrev  0x00005327       0x8b c:/logicielge1/altera/13.0sp1/nios2eds/bin/gnu/h-i686-mingw32/bin/../lib/gcc/nios2-elf/4.1.2/../../../../nios2-elf/lib\libc.a(lib_a-strlen.o)
 .debug_abbrev  0x000053b2      0x30a c:/logicielge1/altera/13.0sp1/nios2eds/bin/gnu/h-i686-mingw32/bin/../lib/gcc/nios2-elf/4.1.2/../../../../nios2-elf/lib\libc.a(lib_a-vfprintf.o)
 .debug_abbrev  0x000056bc      0x1ac c:/logicielge1/altera/13.0sp1/nios2eds/bin/gnu/h-i686-mingw32/bin/../lib/gcc/nios2-elf/4.1.2/../../../../nios2-elf/lib\libc.a(lib_a-vsnprintf.o)
 .debug_abbrev  0x00005868      0x170 c:/logicielge1/altera/13.0sp1/nios2eds/bin/gnu/h-i686-mingw32/bin/../lib/gcc/nios2-elf/4.1.2/../../../../nios2-elf/lib\libc.a(lib_a-wsetup.o)
 .debug_abbrev  0x000059d8      0x232 c:/logicielge1/altera/13.0sp1/nios2eds/bin/gnu/h-i686-mingw32/bin/../lib/gcc/nios2-elf/4.1.2/../../../../nios2-elf/lib\libc.a(lib_a-dtoa.o)
 .debug_abbrev  0x00005c0a      0x1c6 c:/logicielge1/altera/13.0sp1/nios2eds/bin/gnu/h-i686-mingw32/bin/../lib/gcc/nios2-elf/4.1.2/../../../../nios2-elf/lib\libc.a(lib_a-fflush.o)
 .debug_abbrev  0x00005dd0      0x24c c:/logicielge1/altera/13.0sp1/nios2eds/bin/gnu/h-i686-mingw32/bin/../lib/gcc/nios2-elf/4.1.2/../../../../nios2-elf/lib\libc.a(lib_a-findfp.o)
 .debug_abbrev  0x0000601c      0x1d9 c:/logicielge1/altera/13.0sp1/nios2eds/bin/gnu/h-i686-mingw32/bin/../lib/gcc/nios2-elf/4.1.2/../../../../nios2-elf/lib\libc.a(lib_a-freer.o)
 .debug_abbrev  0x000061f5      0x1a3 c:/logicielge1/altera/13.0sp1/nios2eds/bin/gnu/h-i686-mingw32/bin/../lib/gcc/nios2-elf/4.1.2/../../../../nios2-elf/lib\libc.a(lib_a-fvwrite.o)
 .debug_abbrev  0x00006398      0x1e3 c:/logicielge1/altera/13.0sp1/nios2eds/bin/gnu/h-i686-mingw32/bin/../lib/gcc/nios2-elf/4.1.2/../../../../nios2-elf/lib\libc.a(lib_a-fwalk.o)
 .debug_abbrev  0x0000657b      0x157 c:/logicielge1/altera/13.0sp1/nios2eds/bin/gnu/h-i686-mingw32/bin/../lib/gcc/nios2-elf/4.1.2/../../../../nios2-elf/lib\libc.a(lib_a-impure.o)
 .debug_abbrev  0x000066d2       0x3b c:/logicielge1/altera/13.0sp1/nios2eds/bin/gnu/h-i686-mingw32/bin/../lib/gcc/nios2-elf/4.1.2/../../../../nios2-elf/lib\libc.a(lib_a-int_errno.o)
 .debug_abbrev  0x0000670d      0x1ed c:/logicielge1/altera/13.0sp1/nios2eds/bin/gnu/h-i686-mingw32/bin/../lib/gcc/nios2-elf/4.1.2/../../../../nios2-elf/lib\libc.a(lib_a-locale.o)
 .debug_abbrev  0x000068fa      0x197 c:/logicielge1/altera/13.0sp1/nios2eds/bin/gnu/h-i686-mingw32/bin/../lib/gcc/nios2-elf/4.1.2/../../../../nios2-elf/lib\libc.a(lib_a-makebuf.o)
 .debug_abbrev  0x00006a91       0xb5 c:/logicielge1/altera/13.0sp1/nios2eds/bin/gnu/h-i686-mingw32/bin/../lib/gcc/nios2-elf/4.1.2/../../../../nios2-elf/lib\libc.a(lib_a-memchr.o)
 .debug_abbrev  0x00006b46       0xb5 c:/logicielge1/altera/13.0sp1/nios2eds/bin/gnu/h-i686-mingw32/bin/../lib/gcc/nios2-elf/4.1.2/../../../../nios2-elf/lib\libc.a(lib_a-memcpy.o)
 .debug_abbrev  0x00006bfb       0xb5 c:/logicielge1/altera/13.0sp1/nios2eds/bin/gnu/h-i686-mingw32/bin/../lib/gcc/nios2-elf/4.1.2/../../../../nios2-elf/lib\libc.a(lib_a-memmove.o)
 .debug_abbrev  0x00006cb0      0x297 c:/logicielge1/altera/13.0sp1/nios2eds/bin/gnu/h-i686-mingw32/bin/../lib/gcc/nios2-elf/4.1.2/../../../../nios2-elf/lib\libc.a(lib_a-mprec.o)
 .debug_abbrev  0x00006f47      0x1c3 c:/logicielge1/altera/13.0sp1/nios2eds/bin/gnu/h-i686-mingw32/bin/../lib/gcc/nios2-elf/4.1.2/../../../../nios2-elf/lib\libc.a(lib_a-reallocr.o)
 .debug_abbrev  0x0000710a       0x79 c:/logicielge1/altera/13.0sp1/nios2eds/bin/gnu/h-i686-mingw32/bin/../lib/gcc/nios2-elf/4.1.2/../../../../nios2-elf/lib\libc.a(lib_a-s_isinfd.o)
 .debug_abbrev  0x00007183       0x79 c:/logicielge1/altera/13.0sp1/nios2eds/bin/gnu/h-i686-mingw32/bin/../lib/gcc/nios2-elf/4.1.2/../../../../nios2-elf/lib\libc.a(lib_a-s_isnand.o)
 .debug_abbrev  0x000071fc      0x1c9 c:/logicielge1/altera/13.0sp1/nios2eds/bin/gnu/h-i686-mingw32/bin/../lib/gcc/nios2-elf/4.1.2/../../../../nios2-elf/lib\libc.a(lib_a-stdio.o)
 .debug_abbrev  0x000073c5       0x80 c:/logicielge1/altera/13.0sp1/nios2eds/bin/gnu/h-i686-mingw32/bin/../lib/gcc/nios2-elf/4.1.2/../../../../nios2-elf/lib\libc.a(lib_a-strcmp.o)
 .debug_abbrev  0x00007445      0x184 c:/logicielge1/altera/13.0sp1/nios2eds/bin/gnu/h-i686-mingw32/bin/../lib/gcc/nios2-elf/4.1.2/../../../../nios2-elf/lib\libc.a(lib_a-writer.o)
 .debug_abbrev  0x000075c9      0x1b8 c:/logicielge1/altera/13.0sp1/nios2eds/bin/gnu/h-i686-mingw32/bin/../lib/gcc/nios2-elf/4.1.2/../../../../nios2-elf/lib\libc.a(lib_a-callocr.o)
 .debug_abbrev  0x00007781      0x17f c:/logicielge1/altera/13.0sp1/nios2eds/bin/gnu/h-i686-mingw32/bin/../lib/gcc/nios2-elf/4.1.2/../../../../nios2-elf/lib\libc.a(lib_a-closer.o)
 .debug_abbrev  0x00007900      0x1a7 c:/logicielge1/altera/13.0sp1/nios2eds/bin/gnu/h-i686-mingw32/bin/../lib/gcc/nios2-elf/4.1.2/../../../../nios2-elf/lib\libc.a(lib_a-fclose.o)
 .debug_abbrev  0x00007aa7      0x18e c:/logicielge1/altera/13.0sp1/nios2eds/bin/gnu/h-i686-mingw32/bin/../lib/gcc/nios2-elf/4.1.2/../../../../nios2-elf/lib\libc.a(lib_a-fstatr.o)
 .debug_abbrev  0x00007c35      0x17f c:/logicielge1/altera/13.0sp1/nios2eds/bin/gnu/h-i686-mingw32/bin/../lib/gcc/nios2-elf/4.1.2/../../../../nios2-elf/lib\libc.a(lib_a-isattyr.o)
 .debug_abbrev  0x00007db4      0x18e c:/logicielge1/altera/13.0sp1/nios2eds/bin/gnu/h-i686-mingw32/bin/../lib/gcc/nios2-elf/4.1.2/../../../../nios2-elf/lib\libc.a(lib_a-lseekr.o)
 .debug_abbrev  0x00007f42      0x17f c:/logicielge1/altera/13.0sp1/nios2eds/bin/gnu/h-i686-mingw32/bin/../lib/gcc/nios2-elf/4.1.2/../../../../nios2-elf/lib\libc.a(lib_a-readr.o)
 .debug_abbrev  0x000080c1      0x16b c:/logicielge1/altera/13.0sp1/nios2eds/bin/gnu/h-i686-mingw32/bin/../lib/gcc/nios2-elf/4.1.2\libgcc.a(_udivdi3.o)
 .debug_abbrev  0x0000822c      0x18e c:/logicielge1/altera/13.0sp1/nios2eds/bin/gnu/h-i686-mingw32/bin/../lib/gcc/nios2-elf/4.1.2\libgcc.a(_umoddi3.o)
 .debug_abbrev  0x000083ba      0x1d2 c:/logicielge1/altera/13.0sp1/nios2eds/bin/gnu/h-i686-mingw32/bin/../lib/gcc/nios2-elf/4.1.2\libgcc.a(_addsub_df.o)
 .debug_abbrev  0x0000858c      0x204 c:/logicielge1/altera/13.0sp1/nios2eds/bin/gnu/h-i686-mingw32/bin/../lib/gcc/nios2-elf/4.1.2\libgcc.a(_mul_df.o)
 .debug_abbrev  0x00008790      0x1e3 c:/logicielge1/altera/13.0sp1/nios2eds/bin/gnu/h-i686-mingw32/bin/../lib/gcc/nios2-elf/4.1.2\libgcc.a(_div_df.o)
 .debug_abbrev  0x00008973      0x151 c:/logicielge1/altera/13.0sp1/nios2eds/bin/gnu/h-i686-mingw32/bin/../lib/gcc/nios2-elf/4.1.2\libgcc.a(_eq_df.o)
 .debug_abbrev  0x00008ac4      0x151 c:/logicielge1/altera/13.0sp1/nios2eds/bin/gnu/h-i686-mingw32/bin/../lib/gcc/nios2-elf/4.1.2\libgcc.a(_ne_df.o)
 .debug_abbrev  0x00008c15      0x151 c:/logicielge1/altera/13.0sp1/nios2eds/bin/gnu/h-i686-mingw32/bin/../lib/gcc/nios2-elf/4.1.2\libgcc.a(_gt_df.o)
 .debug_abbrev  0x00008d66      0x151 c:/logicielge1/altera/13.0sp1/nios2eds/bin/gnu/h-i686-mingw32/bin/../lib/gcc/nios2-elf/4.1.2\libgcc.a(_ge_df.o)
 .debug_abbrev  0x00008eb7      0x151 c:/logicielge1/altera/13.0sp1/nios2eds/bin/gnu/h-i686-mingw32/bin/../lib/gcc/nios2-elf/4.1.2\libgcc.a(_lt_df.o)
 .debug_abbrev  0x00009008      0x13f c:/logicielge1/altera/13.0sp1/nios2eds/bin/gnu/h-i686-mingw32/bin/../lib/gcc/nios2-elf/4.1.2\libgcc.a(_si_to_df.o)
 .debug_abbrev  0x00009147      0x176 c:/logicielge1/altera/13.0sp1/nios2eds/bin/gnu/h-i686-mingw32/bin/../lib/gcc/nios2-elf/4.1.2\libgcc.a(_df_to_si.o)
 .debug_abbrev  0x000092bd       0xba c:/logicielge1/altera/13.0sp1/nios2eds/bin/gnu/h-i686-mingw32/bin/../lib/gcc/nios2-elf/4.1.2\libgcc.a(_thenan_df.o)
 .debug_abbrev  0x00009377      0x155 c:/logicielge1/altera/13.0sp1/nios2eds/bin/gnu/h-i686-mingw32/bin/../lib/gcc/nios2-elf/4.1.2\libgcc.a(_usi_to_df.o)
 .debug_abbrev  0x000094cc       0xe0 c:/logicielge1/altera/13.0sp1/nios2eds/bin/gnu/h-i686-mingw32/bin/../lib/gcc/nios2-elf/4.1.2\libgcc.a(lib2-divmod.o)
 .debug_abbrev  0x000095ac       0xee c:/logicielge1/altera/13.0sp1/nios2eds/bin/gnu/h-i686-mingw32/bin/../lib/gcc/nios2-elf/4.1.2\libgcc.a(_muldi3.o)
 .debug_abbrev  0x0000969a       0x61 c:/logicielge1/altera/13.0sp1/nios2eds/bin/gnu/h-i686-mingw32/bin/../lib/gcc/nios2-elf/4.1.2\libgcc.a(_clz.o)
 .debug_abbrev  0x000096fb       0xb9 c:/logicielge1/altera/13.0sp1/nios2eds/bin/gnu/h-i686-mingw32/bin/../lib/gcc/nios2-elf/4.1.2\libgcc.a(_clzsi2.o)
 .debug_abbrev  0x000097b4      0x1b1 c:/logicielge1/altera/13.0sp1/nios2eds/bin/gnu/h-i686-mingw32/bin/../lib/gcc/nios2-elf/4.1.2\libgcc.a(_pack_df.o)
 .debug_abbrev  0x00009965      0x149 c:/logicielge1/altera/13.0sp1/nios2eds/bin/gnu/h-i686-mingw32/bin/../lib/gcc/nios2-elf/4.1.2\libgcc.a(_unpack_df.o)
 .debug_abbrev  0x00009aae      0x132 c:/logicielge1/altera/13.0sp1/nios2eds/bin/gnu/h-i686-mingw32/bin/../lib/gcc/nios2-elf/4.1.2\libgcc.a(_fpcmp_parts_df.o)
 .debug_abbrev  0x00009be0       0xfb ../cmv_controller_bsp/\libhal_bsp.a(alt_close.o)
 .debug_abbrev  0x00009cdb       0xc7 ../cmv_controller_bsp/\libhal_bsp.a(alt_dev.o)
 .debug_abbrev  0x00009da2       0x5e ../cmv_controller_bsp/\libhal_bsp.a(alt_errno.o)
 .debug_abbrev  0x00009e00       0x72 ../cmv_controller_bsp/\libhal_bsp.a(alt_exit.o)
 .debug_abbrev  0x00009e72       0xfb ../cmv_controller_bsp/\libhal_bsp.a(alt_fstat.o)
 .debug_abbrev  0x00009f6d       0x36 ../cmv_controller_bsp/\libhal_bsp.a(alt_getpid.o)
 .debug_abbrev  0x00009fa3      0x180 ../cmv_controller_bsp/\libhal_bsp.a(alt_irq_register.o)
 .debug_abbrev  0x0000a123       0x44 ../cmv_controller_bsp/\libhal_bsp.a(alt_irq_vars.o)
 .debug_abbrev  0x0000a167       0xfb ../cmv_controller_bsp/\libhal_bsp.a(alt_isatty.o)
 .debug_abbrev  0x0000a262       0x99 ../cmv_controller_bsp/\libhal_bsp.a(alt_kill.o)
 .debug_abbrev  0x0000a2fb       0x88 ../cmv_controller_bsp/\libhal_bsp.a(alt_load.o)
 .debug_abbrev  0x0000a383       0xfb ../cmv_controller_bsp/\libhal_bsp.a(alt_lseek.o)
 .debug_abbrev  0x0000a47e       0xb7 ../cmv_controller_bsp/\libhal_bsp.a(alt_main.o)
 .debug_abbrev  0x0000a535      0x181 ../cmv_controller_bsp/\libhal_bsp.a(alt_malloc_lock.o)
 .debug_abbrev  0x0000a6b6       0xfb ../cmv_controller_bsp/\libhal_bsp.a(alt_read.o)
 .debug_abbrev  0x0000a7b1       0xc1 ../cmv_controller_bsp/\libhal_bsp.a(alt_release_fd.o)
 .debug_abbrev  0x0000a872      0x115 ../cmv_controller_bsp/\libhal_bsp.a(alt_sbrk.o)
 .debug_abbrev  0x0000a987       0x5d ../cmv_controller_bsp/\libhal_bsp.a(alt_usleep.o)
 .debug_abbrev  0x0000a9e4      0x100 ../cmv_controller_bsp/\libhal_bsp.a(alt_write.o)
 .debug_abbrev  0x0000aae4      0x14b ../cmv_controller_bsp/\libhal_bsp.a(alt_sys_init.o)
 .debug_abbrev  0x0000ac2f       0xf7 ../cmv_controller_bsp/\libhal_bsp.a(altera_avalon_jtag_uart_fd.o)
 .debug_abbrev  0x0000ad26      0x17c ../cmv_controller_bsp/\libhal_bsp.a(altera_avalon_jtag_uart_init.o)
 .debug_abbrev  0x0000aea2       0xf0 ../cmv_controller_bsp/\libhal_bsp.a(altera_avalon_jtag_uart_ioctl.o)
 .debug_abbrev  0x0000af92      0x191 ../cmv_controller_bsp/\libhal_bsp.a(altera_avalon_jtag_uart_read.o)
 .debug_abbrev  0x0000b123      0x18d ../cmv_controller_bsp/\libhal_bsp.a(altera_avalon_jtag_uart_write.o)
 .debug_abbrev  0x0000b2b0       0x7c ../cmv_controller_bsp/\libhal_bsp.a(altera_avalon_spi.o)
 .debug_abbrev  0x0000b32c       0xe8 ../cmv_controller_bsp/\libhal_bsp.a(altera_avalon_uart_fd.o)
 .debug_abbrev  0x0000b414      0x148 ../cmv_controller_bsp/\libhal_bsp.a(altera_avalon_uart_init.o)
 .debug_abbrev  0x0000b55c      0x174 ../cmv_controller_bsp/\libhal_bsp.a(altera_avalon_uart_read.o)
 .debug_abbrev  0x0000b6d0      0x17b ../cmv_controller_bsp/\libhal_bsp.a(altera_avalon_uart_write.o)
 .debug_abbrev  0x0000b84b      0x172 ../cmv_controller_bsp/\libhal_bsp.a(alt_alarm_start.o)
 .debug_abbrev  0x0000b9bd       0x6c ../cmv_controller_bsp/\libhal_bsp.a(alt_busy_sleep.o)
 .debug_abbrev  0x0000ba29       0x57 ../cmv_controller_bsp/\libhal_bsp.a(alt_dcache_flush_all.o)
 .debug_abbrev  0x0000ba80       0xf6 ../cmv_controller_bsp/\libhal_bsp.a(alt_dev_llist_insert.o)
 .debug_abbrev  0x0000bb76       0x76 ../cmv_controller_bsp/\libhal_bsp.a(alt_do_ctors.o)
 .debug_abbrev  0x0000bbec       0x76 ../cmv_controller_bsp/\libhal_bsp.a(alt_do_dtors.o)
 .debug_abbrev  0x0000bc62       0x3f ../cmv_controller_bsp/\libhal_bsp.a(alt_icache_flush_all.o)
 .debug_abbrev  0x0000bca1      0x134 ../cmv_controller_bsp/\libhal_bsp.a(alt_iic.o)
 .debug_abbrev  0x0000bdd5      0x14e ../cmv_controller_bsp/\libhal_bsp.a(alt_iic_isr_register.o)
 .debug_abbrev  0x0000bf23       0xf0 ../cmv_controller_bsp/\libhal_bsp.a(alt_io_redirect.o)
 .debug_abbrev  0x0000c013       0x12 ../cmv_controller_bsp/\libhal_bsp.a(alt_irq_entry.o)
 .debug_abbrev  0x0000c025      0x10c ../cmv_controller_bsp/\libhal_bsp.a(alt_irq_handler.o)
 .debug_abbrev  0x0000c131      0x112 ../cmv_controller_bsp/\libhal_bsp.a(alt_open.o)
 .debug_abbrev  0x0000c243      0x150 ../cmv_controller_bsp/\libhal_bsp.a(alt_tick.o)
 .debug_abbrev  0x0000c393       0x3f ../cmv_controller_bsp/\libhal_bsp.a(altera_nios2_qsys_irq.o)
 .debug_abbrev  0x0000c3d2       0x12 ../cmv_controller_bsp/\libhal_bsp.a(alt_exception_entry.o)
 .debug_abbrev  0x0000c3e4       0xcf ../cmv_controller_bsp/\libhal_bsp.a(alt_find_dev.o)
 .debug_abbrev  0x0000c4b3       0xcf ../cmv_controller_bsp/\libhal_bsp.a(alt_find_file.o)
 .debug_abbrev  0x0000c582       0xfb ../cmv_controller_bsp/\libhal_bsp.a(alt_get_fd.o)
 .debug_abbrev  0x0000c67d       0x7a ../cmv_controller_bsp/\libhal_bsp.a(alt_icache_flush.o)
 .debug_abbrev  0x0000c6f7       0xb7 c:/logicielge1/altera/13.0sp1/nios2eds/bin/gnu/h-i686-mingw32/bin/../lib/gcc/nios2-elf/4.1.2/../../../../nios2-elf/lib\libc.a(lib_a-atexit.o)
 .debug_abbrev  0x0000c7ae      0x16e c:/logicielge1/altera/13.0sp1/nios2eds/bin/gnu/h-i686-mingw32/bin/../lib/gcc/nios2-elf/4.1.2/../../../../nios2-elf/lib\libc.a(lib_a-exit.o)
 .debug_abbrev  0x0000c91c       0x7c c:/logicielge1/altera/13.0sp1/nios2eds/bin/gnu/h-i686-mingw32/bin/../lib/gcc/nios2-elf/4.1.2/../../../../nios2-elf/lib\libc.a(lib_a-memcmp.o)
 .debug_abbrev  0x0000c998      0x1ae c:/logicielge1/altera/13.0sp1/nios2eds/bin/gnu/h-i686-mingw32/bin/../lib/gcc/nios2-elf/4.1.2/../../../../nios2-elf/lib\libc.a(lib_a-__atexit.o)
 .debug_abbrev  0x0000cb46      0x1de c:/logicielge1/altera/13.0sp1/nios2eds/bin/gnu/h-i686-mingw32/bin/../lib/gcc/nios2-elf/4.1.2/../../../../nios2-elf/lib\libc.a(lib_a-__call_atexit.o)

.debug_line     0x00000000    0x1c5fb
 *(.debug_line)
 .debug_line    0x00000000       0x72 ../cmv_controller_bsp//obj/HAL/src/crt0.o
 .debug_line    0x00000072      0x599 obj/default/FSM.o
 .debug_line    0x0000060b      0x17a obj/default/controller/PIO.o
 .debug_line    0x00000785      0x165 obj/default/controller/PIO_Bus.o
 .debug_line    0x000008ea      0x14b obj/default/controller/PIO_Pin.o
 .debug_line    0x00000a35      0x1cb obj/default/controller/SPI.o
 .debug_line    0x00000c00      0x6cd obj/default/controller/UART.o
 .debug_line    0x000012cd      0x1fe obj/default/main.o
 .debug_line    0x000014cb      0x401 c:/logicielge1/altera/13.0sp1/nios2eds/bin/gnu/h-i686-mingw32/bin/../lib/gcc/nios2-elf/4.1.2/../../../../nios2-elf/lib\libstdc++.a(eh_throw.o)
 .debug_line    0x000018cc      0x272 c:/logicielge1/altera/13.0sp1/nios2eds/bin/gnu/h-i686-mingw32/bin/../lib/gcc/nios2-elf/4.1.2/../../../../nios2-elf/lib\libstdc++.a(eh_term_handler.o)
 .debug_line    0x00001b3e      0x26b c:/logicielge1/altera/13.0sp1/nios2eds/bin/gnu/h-i686-mingw32/bin/../lib/gcc/nios2-elf/4.1.2/../../../../nios2-elf/lib\libstdc++.a(new_opv.o)
 .debug_line    0x00001da9      0x536 c:/logicielge1/altera/13.0sp1/nios2eds/bin/gnu/h-i686-mingw32/bin/../lib/gcc/nios2-elf/4.1.2/../../../../nios2-elf/lib\libstdc++.a(eh_catch.o)
 .debug_line    0x000022df      0x35d c:/logicielge1/altera/13.0sp1/nios2eds/bin/gnu/h-i686-mingw32/bin/../lib/gcc/nios2-elf/4.1.2/../../../../nios2-elf/lib\libstdc++.a(del_op.o)
 .debug_line    0x0000263c      0x263 c:/logicielge1/altera/13.0sp1/nios2eds/bin/gnu/h-i686-mingw32/bin/../lib/gcc/nios2-elf/4.1.2/../../../../nios2-elf/lib\libstdc++.a(del_opv.o)
 .debug_line    0x0000289f      0x254 c:/logicielge1/altera/13.0sp1/nios2eds/bin/gnu/h-i686-mingw32/bin/../lib/gcc/nios2-elf/4.1.2/../../../../nios2-elf/lib\libstdc++.a(eh_unex_handler.o)
 .debug_line    0x00002af3      0xd75 c:/logicielge1/altera/13.0sp1/nios2eds/bin/gnu/h-i686-mingw32/bin/../lib/gcc/nios2-elf/4.1.2/../../../../nios2-elf/lib\libstdc++.a(eh_personality.o)
 .debug_line    0x00003868      0x42d c:/logicielge1/altera/13.0sp1/nios2eds/bin/gnu/h-i686-mingw32/bin/../lib/gcc/nios2-elf/4.1.2/../../../../nios2-elf/lib\libstdc++.a(class_type_info.o)
 .debug_line    0x00003c95      0x3bd c:/logicielge1/altera/13.0sp1/nios2eds/bin/gnu/h-i686-mingw32/bin/../lib/gcc/nios2-elf/4.1.2/../../../../nios2-elf/lib\libstdc++.a(si_class_type_info.o)
 .debug_line    0x00004052      0x3ae c:/logicielge1/altera/13.0sp1/nios2eds/bin/gnu/h-i686-mingw32/bin/../lib/gcc/nios2-elf/4.1.2/../../../../nios2-elf/lib\libstdc++.a(eh_globals.o)
 .debug_line    0x00004400      0x426 c:/logicielge1/altera/13.0sp1/nios2eds/bin/gnu/h-i686-mingw32/bin/../lib/gcc/nios2-elf/4.1.2/../../../../nios2-elf/lib\libstdc++.a(eh_terminate.o)
 .debug_line    0x00004826      0x3a3 c:/logicielge1/altera/13.0sp1/nios2eds/bin/gnu/h-i686-mingw32/bin/../lib/gcc/nios2-elf/4.1.2/../../../../nios2-elf/lib\libstdc++.a(new_op.o)
 .debug_line    0x00004bc9      0x39f c:/logicielge1/altera/13.0sp1/nios2eds/bin/gnu/h-i686-mingw32/bin/../lib/gcc/nios2-elf/4.1.2/../../../../nios2-elf/lib\libstdc++.a(eh_call.o)
 .debug_line    0x00004f68      0x2cb c:/logicielge1/altera/13.0sp1/nios2eds/bin/gnu/h-i686-mingw32/bin/../lib/gcc/nios2-elf/4.1.2/../../../../nios2-elf/lib\libstdc++.a(eh_exception.o)
 .debug_line    0x00005233      0x297 c:/logicielge1/altera/13.0sp1/nios2eds/bin/gnu/h-i686-mingw32/bin/../lib/gcc/nios2-elf/4.1.2/../../../../nios2-elf/lib\libstdc++.a(fundamental_type_info.o)
 .debug_line    0x000054ca      0x281 c:/logicielge1/altera/13.0sp1/nios2eds/bin/gnu/h-i686-mingw32/bin/../lib/gcc/nios2-elf/4.1.2/../../../../nios2-elf/lib\libstdc++.a(new_handler.o)
 .debug_line    0x0000574b      0x4da c:/logicielge1/altera/13.0sp1/nios2eds/bin/gnu/h-i686-mingw32/bin/../lib/gcc/nios2-elf/4.1.2/../../../../nios2-elf/lib\libstdc++.a(eh_alloc.o)
 .debug_line    0x00005c25      0x2f7 c:/logicielge1/altera/13.0sp1/nios2eds/bin/gnu/h-i686-mingw32/bin/../lib/gcc/nios2-elf/4.1.2/../../../../nios2-elf/lib\libstdc++.a(tinfo.o)
 .debug_line    0x00005f1c      0x305 c:/logicielge1/altera/13.0sp1/nios2eds/bin/gnu/h-i686-mingw32/bin/../lib/gcc/nios2-elf/4.1.2/../../../../nios2-elf/lib\libstdc++.a(pointer_type_info.o)
 .debug_line    0x00006221      0x397 c:/logicielge1/altera/13.0sp1/nios2eds/bin/gnu/h-i686-mingw32/bin/../lib/gcc/nios2-elf/4.1.2/../../../../nios2-elf/lib\libstdc++.a(pbase_type_info.o)
 .debug_line    0x000065b8      0x6ca c:/logicielge1/altera/13.0sp1/nios2eds/bin/gnu/h-i686-mingw32/bin/../lib/gcc/nios2-elf/4.1.2\libgcc.a(unwind-sjlj.o)
 .debug_line    0x00006c82      0x231 c:/logicielge1/altera/13.0sp1/nios2eds/bin/gnu/h-i686-mingw32/bin/../lib/gcc/nios2-elf/4.1.2/../../../../nios2-elf/lib\libc.a(lib_a-abort.o)
 .debug_line    0x00006eb3      0x24b c:/logicielge1/altera/13.0sp1/nios2eds/bin/gnu/h-i686-mingw32/bin/../lib/gcc/nios2-elf/4.1.2/../../../../nios2-elf/lib\libc.a(lib_a-malloc.o)
 .debug_line    0x000070fe      0x80a c:/logicielge1/altera/13.0sp1/nios2eds/bin/gnu/h-i686-mingw32/bin/../lib/gcc/nios2-elf/4.1.2/../../../../nios2-elf/lib\libc.a(lib_a-mallocr.o)
 .debug_line    0x00007908      0x301 c:/logicielge1/altera/13.0sp1/nios2eds/bin/gnu/h-i686-mingw32/bin/../lib/gcc/nios2-elf/4.1.2/../../../../nios2-elf/lib\libc.a(lib_a-memset.o)
 .debug_line    0x00007c09      0x29b c:/logicielge1/altera/13.0sp1/nios2eds/bin/gnu/h-i686-mingw32/bin/../lib/gcc/nios2-elf/4.1.2/../../../../nios2-elf/lib\libc.a(lib_a-printf.o)
 .debug_line    0x00007ea4      0x299 c:/logicielge1/altera/13.0sp1/nios2eds/bin/gnu/h-i686-mingw32/bin/../lib/gcc/nios2-elf/4.1.2/../../../../nios2-elf/lib\libc.a(lib_a-sbrkr.o)
 .debug_line    0x0000813d      0x4de c:/logicielge1/altera/13.0sp1/nios2eds/bin/gnu/h-i686-mingw32/bin/../lib/gcc/nios2-elf/4.1.2/../../../../nios2-elf/lib\libc.a(lib_a-signal.o)
 .debug_line    0x0000861b      0x278 c:/logicielge1/altera/13.0sp1/nios2eds/bin/gnu/h-i686-mingw32/bin/../lib/gcc/nios2-elf/4.1.2/../../../../nios2-elf/lib\libc.a(lib_a-signalr.o)
 .debug_line    0x00008893      0x26d c:/logicielge1/altera/13.0sp1/nios2eds/bin/gnu/h-i686-mingw32/bin/../lib/gcc/nios2-elf/4.1.2/../../../../nios2-elf/lib\libc.a(lib_a-strlen.o)
 .debug_line    0x00008b00     0x110c c:/logicielge1/altera/13.0sp1/nios2eds/bin/gnu/h-i686-mingw32/bin/../lib/gcc/nios2-elf/4.1.2/../../../../nios2-elf/lib\libc.a(lib_a-vfprintf.o)
 .debug_line    0x00009c0c      0x315 c:/logicielge1/altera/13.0sp1/nios2eds/bin/gnu/h-i686-mingw32/bin/../lib/gcc/nios2-elf/4.1.2/../../../../nios2-elf/lib\libc.a(lib_a-vsnprintf.o)
 .debug_line    0x00009f21      0x2f0 c:/logicielge1/altera/13.0sp1/nios2eds/bin/gnu/h-i686-mingw32/bin/../lib/gcc/nios2-elf/4.1.2/../../../../nios2-elf/lib\libc.a(lib_a-wsetup.o)
 .debug_line    0x0000a211     0x12c6 c:/logicielge1/altera/13.0sp1/nios2eds/bin/gnu/h-i686-mingw32/bin/../lib/gcc/nios2-elf/4.1.2/../../../../nios2-elf/lib\libc.a(lib_a-dtoa.o)
 .debug_line    0x0000b4d7      0x40d c:/logicielge1/altera/13.0sp1/nios2eds/bin/gnu/h-i686-mingw32/bin/../lib/gcc/nios2-elf/4.1.2/../../../../nios2-elf/lib\libc.a(lib_a-fflush.o)
 .debug_line    0x0000b8e4      0x601 c:/logicielge1/altera/13.0sp1/nios2eds/bin/gnu/h-i686-mingw32/bin/../lib/gcc/nios2-elf/4.1.2/../../../../nios2-elf/lib\libc.a(lib_a-findfp.o)
 .debug_line    0x0000bee5      0x5eb c:/logicielge1/altera/13.0sp1/nios2eds/bin/gnu/h-i686-mingw32/bin/../lib/gcc/nios2-elf/4.1.2/../../../../nios2-elf/lib\libc.a(lib_a-freer.o)
 .debug_line    0x0000c4d0      0x641 c:/logicielge1/altera/13.0sp1/nios2eds/bin/gnu/h-i686-mingw32/bin/../lib/gcc/nios2-elf/4.1.2/../../../../nios2-elf/lib\libc.a(lib_a-fvwrite.o)
 .debug_line    0x0000cb11      0x34a c:/logicielge1/altera/13.0sp1/nios2eds/bin/gnu/h-i686-mingw32/bin/../lib/gcc/nios2-elf/4.1.2/../../../../nios2-elf/lib\libc.a(lib_a-fwalk.o)
 .debug_line    0x0000ce5b      0x22d c:/logicielge1/altera/13.0sp1/nios2eds/bin/gnu/h-i686-mingw32/bin/../lib/gcc/nios2-elf/4.1.2/../../../../nios2-elf/lib\libc.a(lib_a-impure.o)
 .debug_line    0x0000d088      0x1df c:/logicielge1/altera/13.0sp1/nios2eds/bin/gnu/h-i686-mingw32/bin/../lib/gcc/nios2-elf/4.1.2/../../../../nios2-elf/lib\libc.a(lib_a-int_errno.o)
 .debug_line    0x0000d267      0x2c8 c:/logicielge1/altera/13.0sp1/nios2eds/bin/gnu/h-i686-mingw32/bin/../lib/gcc/nios2-elf/4.1.2/../../../../nios2-elf/lib\libc.a(lib_a-locale.o)
 .debug_line    0x0000d52f      0x3c3 c:/logicielge1/altera/13.0sp1/nios2eds/bin/gnu/h-i686-mingw32/bin/../lib/gcc/nios2-elf/4.1.2/../../../../nios2-elf/lib\libc.a(lib_a-makebuf.o)
 .debug_line    0x0000d8f2      0x303 c:/logicielge1/altera/13.0sp1/nios2eds/bin/gnu/h-i686-mingw32/bin/../lib/gcc/nios2-elf/4.1.2/../../../../nios2-elf/lib\libc.a(lib_a-memchr.o)
 .debug_line    0x0000dbf5      0x1ac c:/logicielge1/altera/13.0sp1/nios2eds/bin/gnu/h-i686-mingw32/bin/../lib/gcc/nios2-elf/4.1.2/../../../../nios2-elf/lib\libc.a(lib_a-memcpy.o)
 .debug_line    0x0000dda1      0x30a c:/logicielge1/altera/13.0sp1/nios2eds/bin/gnu/h-i686-mingw32/bin/../lib/gcc/nios2-elf/4.1.2/../../../../nios2-elf/lib\libc.a(lib_a-memmove.o)
 .debug_line    0x0000e0ab     0x1243 c:/logicielge1/altera/13.0sp1/nios2eds/bin/gnu/h-i686-mingw32/bin/../lib/gcc/nios2-elf/4.1.2/../../../../nios2-elf/lib\libc.a(lib_a-mprec.o)
 .debug_line    0x0000f2ee      0x58a c:/logicielge1/altera/13.0sp1/nios2eds/bin/gnu/h-i686-mingw32/bin/../lib/gcc/nios2-elf/4.1.2/../../../../nios2-elf/lib\libc.a(lib_a-reallocr.o)
 .debug_line    0x0000f878      0x222 c:/logicielge1/altera/13.0sp1/nios2eds/bin/gnu/h-i686-mingw32/bin/../lib/gcc/nios2-elf/4.1.2/../../../../nios2-elf/lib\libc.a(lib_a-s_isinfd.o)
 .debug_line    0x0000fa9a      0x21a c:/logicielge1/altera/13.0sp1/nios2eds/bin/gnu/h-i686-mingw32/bin/../lib/gcc/nios2-elf/4.1.2/../../../../nios2-elf/lib\libc.a(lib_a-s_isnand.o)
 .debug_line    0x0000fcb4      0x38c c:/logicielge1/altera/13.0sp1/nios2eds/bin/gnu/h-i686-mingw32/bin/../lib/gcc/nios2-elf/4.1.2/../../../../nios2-elf/lib\libc.a(lib_a-stdio.o)
 .debug_line    0x00010040      0x2d5 c:/logicielge1/altera/13.0sp1/nios2eds/bin/gnu/h-i686-mingw32/bin/../lib/gcc/nios2-elf/4.1.2/../../../../nios2-elf/lib\libc.a(lib_a-strcmp.o)
 .debug_line    0x00010315      0x29a c:/logicielge1/altera/13.0sp1/nios2eds/bin/gnu/h-i686-mingw32/bin/../lib/gcc/nios2-elf/4.1.2/../../../../nios2-elf/lib\libc.a(lib_a-writer.o)
 .debug_line    0x000105af      0x25c c:/logicielge1/altera/13.0sp1/nios2eds/bin/gnu/h-i686-mingw32/bin/../lib/gcc/nios2-elf/4.1.2/../../../../nios2-elf/lib\libc.a(lib_a-callocr.o)
 .debug_line    0x0001080b      0x29a c:/logicielge1/altera/13.0sp1/nios2eds/bin/gnu/h-i686-mingw32/bin/../lib/gcc/nios2-elf/4.1.2/../../../../nios2-elf/lib\libc.a(lib_a-closer.o)
 .debug_line    0x00010aa5      0x2e8 c:/logicielge1/altera/13.0sp1/nios2eds/bin/gnu/h-i686-mingw32/bin/../lib/gcc/nios2-elf/4.1.2/../../../../nios2-elf/lib\libc.a(lib_a-fclose.o)
 .debug_line    0x00010d8d      0x264 c:/logicielge1/altera/13.0sp1/nios2eds/bin/gnu/h-i686-mingw32/bin/../lib/gcc/nios2-elf/4.1.2/../../../../nios2-elf/lib\libc.a(lib_a-fstatr.o)
 .debug_line    0x00010ff1      0x29b c:/logicielge1/altera/13.0sp1/nios2eds/bin/gnu/h-i686-mingw32/bin/../lib/gcc/nios2-elf/4.1.2/../../../../nios2-elf/lib\libc.a(lib_a-isattyr.o)
 .debug_line    0x0001128c      0x29a c:/logicielge1/altera/13.0sp1/nios2eds/bin/gnu/h-i686-mingw32/bin/../lib/gcc/nios2-elf/4.1.2/../../../../nios2-elf/lib\libc.a(lib_a-lseekr.o)
 .debug_line    0x00011526      0x299 c:/logicielge1/altera/13.0sp1/nios2eds/bin/gnu/h-i686-mingw32/bin/../lib/gcc/nios2-elf/4.1.2/../../../../nios2-elf/lib\libc.a(lib_a-readr.o)
 .debug_line    0x000117bf      0x2f2 c:/logicielge1/altera/13.0sp1/nios2eds/bin/gnu/h-i686-mingw32/bin/../lib/gcc/nios2-elf/4.1.2\libgcc.a(_udivdi3.o)
 .debug_line    0x00011ab1      0x37d c:/logicielge1/altera/13.0sp1/nios2eds/bin/gnu/h-i686-mingw32/bin/../lib/gcc/nios2-elf/4.1.2\libgcc.a(_umoddi3.o)
 .debug_line    0x00011e2e      0x430 c:/logicielge1/altera/13.0sp1/nios2eds/bin/gnu/h-i686-mingw32/bin/../lib/gcc/nios2-elf/4.1.2\libgcc.a(_addsub_df.o)
 .debug_line    0x0001225e      0x3e5 c:/logicielge1/altera/13.0sp1/nios2eds/bin/gnu/h-i686-mingw32/bin/../lib/gcc/nios2-elf/4.1.2\libgcc.a(_mul_df.o)
 .debug_line    0x00012643      0x301 c:/logicielge1/altera/13.0sp1/nios2eds/bin/gnu/h-i686-mingw32/bin/../lib/gcc/nios2-elf/4.1.2\libgcc.a(_div_df.o)
 .debug_line    0x00012944      0x129 c:/logicielge1/altera/13.0sp1/nios2eds/bin/gnu/h-i686-mingw32/bin/../lib/gcc/nios2-elf/4.1.2\libgcc.a(_eq_df.o)
 .debug_line    0x00012a6d      0x129 c:/logicielge1/altera/13.0sp1/nios2eds/bin/gnu/h-i686-mingw32/bin/../lib/gcc/nios2-elf/4.1.2\libgcc.a(_ne_df.o)
 .debug_line    0x00012b96      0x129 c:/logicielge1/altera/13.0sp1/nios2eds/bin/gnu/h-i686-mingw32/bin/../lib/gcc/nios2-elf/4.1.2\libgcc.a(_gt_df.o)
 .debug_line    0x00012cbf      0x129 c:/logicielge1/altera/13.0sp1/nios2eds/bin/gnu/h-i686-mingw32/bin/../lib/gcc/nios2-elf/4.1.2\libgcc.a(_ge_df.o)
 .debug_line    0x00012de8      0x129 c:/logicielge1/altera/13.0sp1/nios2eds/bin/gnu/h-i686-mingw32/bin/../lib/gcc/nios2-elf/4.1.2\libgcc.a(_lt_df.o)
 .debug_line    0x00012f11      0x175 c:/logicielge1/altera/13.0sp1/nios2eds/bin/gnu/h-i686-mingw32/bin/../lib/gcc/nios2-elf/4.1.2\libgcc.a(_si_to_df.o)
 .debug_line    0x00013086      0x149 c:/logicielge1/altera/13.0sp1/nios2eds/bin/gnu/h-i686-mingw32/bin/../lib/gcc/nios2-elf/4.1.2\libgcc.a(_df_to_si.o)
 .debug_line    0x000131cf       0x94 c:/logicielge1/altera/13.0sp1/nios2eds/bin/gnu/h-i686-mingw32/bin/../lib/gcc/nios2-elf/4.1.2\libgcc.a(_thenan_df.o)
 .debug_line    0x00013263      0x189 c:/logicielge1/altera/13.0sp1/nios2eds/bin/gnu/h-i686-mingw32/bin/../lib/gcc/nios2-elf/4.1.2\libgcc.a(_usi_to_df.o)
 .debug_line    0x000133ec      0x24f c:/logicielge1/altera/13.0sp1/nios2eds/bin/gnu/h-i686-mingw32/bin/../lib/gcc/nios2-elf/4.1.2\libgcc.a(lib2-divmod.o)
 .debug_line    0x0001363b      0x11f c:/logicielge1/altera/13.0sp1/nios2eds/bin/gnu/h-i686-mingw32/bin/../lib/gcc/nios2-elf/4.1.2\libgcc.a(_muldi3.o)
 .debug_line    0x0001375a       0xaa c:/logicielge1/altera/13.0sp1/nios2eds/bin/gnu/h-i686-mingw32/bin/../lib/gcc/nios2-elf/4.1.2\libgcc.a(_clz.o)
 .debug_line    0x00013804      0x105 c:/logicielge1/altera/13.0sp1/nios2eds/bin/gnu/h-i686-mingw32/bin/../lib/gcc/nios2-elf/4.1.2\libgcc.a(_clzsi2.o)
 .debug_line    0x00013909      0x222 c:/logicielge1/altera/13.0sp1/nios2eds/bin/gnu/h-i686-mingw32/bin/../lib/gcc/nios2-elf/4.1.2\libgcc.a(_pack_df.o)
 .debug_line    0x00013b2b      0x1e4 c:/logicielge1/altera/13.0sp1/nios2eds/bin/gnu/h-i686-mingw32/bin/../lib/gcc/nios2-elf/4.1.2\libgcc.a(_unpack_df.o)
 .debug_line    0x00013d0f      0x187 c:/logicielge1/altera/13.0sp1/nios2eds/bin/gnu/h-i686-mingw32/bin/../lib/gcc/nios2-elf/4.1.2\libgcc.a(_fpcmp_parts_df.o)
 .debug_line    0x00013e96      0x2b1 ../cmv_controller_bsp/\libhal_bsp.a(alt_close.o)
 .debug_line    0x00014147      0x26c ../cmv_controller_bsp/\libhal_bsp.a(alt_dev.o)
 .debug_line    0x000143b3      0x1c2 ../cmv_controller_bsp/\libhal_bsp.a(alt_errno.o)
 .debug_line    0x00014575      0x21e ../cmv_controller_bsp/\libhal_bsp.a(alt_exit.o)
 .debug_line    0x00014793      0x2b9 ../cmv_controller_bsp/\libhal_bsp.a(alt_fstat.o)
 .debug_line    0x00014a4c       0x71 ../cmv_controller_bsp/\libhal_bsp.a(alt_getpid.o)
 .debug_line    0x00014abd      0x31b ../cmv_controller_bsp/\libhal_bsp.a(alt_irq_register.o)
 .debug_line    0x00014dd8       0x72 ../cmv_controller_bsp/\libhal_bsp.a(alt_irq_vars.o)
 .debug_line    0x00014e4a      0x2ba ../cmv_controller_bsp/\libhal_bsp.a(alt_isatty.o)
 .debug_line    0x00015104      0x285 ../cmv_controller_bsp/\libhal_bsp.a(alt_kill.o)
 .debug_line    0x00015389      0x22f ../cmv_controller_bsp/\libhal_bsp.a(alt_load.o)
 .debug_line    0x000155b8      0x2b9 ../cmv_controller_bsp/\libhal_bsp.a(alt_lseek.o)
 .debug_line    0x00015871      0x2e2 ../cmv_controller_bsp/\libhal_bsp.a(alt_main.o)
 .debug_line    0x00015b53      0x233 ../cmv_controller_bsp/\libhal_bsp.a(alt_malloc_lock.o)
 .debug_line    0x00015d86      0x2e0 ../cmv_controller_bsp/\libhal_bsp.a(alt_read.o)
 .debug_line    0x00016066       0xed ../cmv_controller_bsp/\libhal_bsp.a(alt_release_fd.o)
 .debug_line    0x00016153      0x279 ../cmv_controller_bsp/\libhal_bsp.a(alt_sbrk.o)
 .debug_line    0x000163cc      0x226 ../cmv_controller_bsp/\libhal_bsp.a(alt_usleep.o)
 .debug_line    0x000165f2      0x2e1 ../cmv_controller_bsp/\libhal_bsp.a(alt_write.o)
 .debug_line    0x000168d3      0x306 ../cmv_controller_bsp/\libhal_bsp.a(alt_sys_init.o)
 .debug_line    0x00016bd9      0x223 ../cmv_controller_bsp/\libhal_bsp.a(altera_avalon_jtag_uart_fd.o)
 .debug_line    0x00016dfc      0x4c3 ../cmv_controller_bsp/\libhal_bsp.a(altera_avalon_jtag_uart_init.o)
 .debug_line    0x000172bf      0x32f ../cmv_controller_bsp/\libhal_bsp.a(altera_avalon_jtag_uart_ioctl.o)
 .debug_line    0x000175ee      0x40f ../cmv_controller_bsp/\libhal_bsp.a(altera_avalon_jtag_uart_read.o)
 .debug_line    0x000179fd      0x41d ../cmv_controller_bsp/\libhal_bsp.a(altera_avalon_jtag_uart_write.o)
 .debug_line    0x00017e1a      0x1fe ../cmv_controller_bsp/\libhal_bsp.a(altera_avalon_spi.o)
 .debug_line    0x00018018      0x1de ../cmv_controller_bsp/\libhal_bsp.a(altera_avalon_uart_fd.o)
 .debug_line    0x000181f6      0x4aa ../cmv_controller_bsp/\libhal_bsp.a(altera_avalon_uart_init.o)
 .debug_line    0x000186a0      0x41c ../cmv_controller_bsp/\libhal_bsp.a(altera_avalon_uart_read.o)
 .debug_line    0x00018abc      0x3fd ../cmv_controller_bsp/\libhal_bsp.a(altera_avalon_uart_write.o)
 .debug_line    0x00018eb9      0x2f4 ../cmv_controller_bsp/\libhal_bsp.a(alt_alarm_start.o)
 .debug_line    0x000191ad      0x280 ../cmv_controller_bsp/\libhal_bsp.a(alt_busy_sleep.o)
 .debug_line    0x0001942d      0x1e5 ../cmv_controller_bsp/\libhal_bsp.a(alt_dcache_flush_all.o)
 .debug_line    0x00019612      0x272 ../cmv_controller_bsp/\libhal_bsp.a(alt_dev_llist_insert.o)
 .debug_line    0x00019884       0x83 ../cmv_controller_bsp/\libhal_bsp.a(alt_do_ctors.o)
 .debug_line    0x00019907       0x83 ../cmv_controller_bsp/\libhal_bsp.a(alt_do_dtors.o)
 .debug_line    0x0001998a      0x1d5 ../cmv_controller_bsp/\libhal_bsp.a(alt_icache_flush_all.o)
 .debug_line    0x00019b5f      0x2e0 ../cmv_controller_bsp/\libhal_bsp.a(alt_iic.o)
 .debug_line    0x00019e3f      0x261 ../cmv_controller_bsp/\libhal_bsp.a(alt_iic_isr_register.o)
 .debug_line    0x0001a0a0      0x2cc ../cmv_controller_bsp/\libhal_bsp.a(alt_io_redirect.o)
 .debug_line    0x0001a36c       0x6b ../cmv_controller_bsp/\libhal_bsp.a(alt_irq_entry.o)
 .debug_line    0x0001a3d7      0x260 ../cmv_controller_bsp/\libhal_bsp.a(alt_irq_handler.o)
 .debug_line    0x0001a637      0x317 ../cmv_controller_bsp/\libhal_bsp.a(alt_open.o)
 .debug_line    0x0001a94e      0x2f4 ../cmv_controller_bsp/\libhal_bsp.a(alt_tick.o)
 .debug_line    0x0001ac42      0x1e6 ../cmv_controller_bsp/\libhal_bsp.a(altera_nios2_qsys_irq.o)
 .debug_line    0x0001ae28       0xab ../cmv_controller_bsp/\libhal_bsp.a(alt_exception_entry.o)
 .debug_line    0x0001aed3      0x283 ../cmv_controller_bsp/\libhal_bsp.a(alt_find_dev.o)
 .debug_line    0x0001b156      0x294 ../cmv_controller_bsp/\libhal_bsp.a(alt_find_file.o)
 .debug_line    0x0001b3ea      0x2af ../cmv_controller_bsp/\libhal_bsp.a(alt_get_fd.o)
 .debug_line    0x0001b699      0x211 ../cmv_controller_bsp/\libhal_bsp.a(alt_icache_flush.o)
 .debug_line    0x0001b8aa      0x200 c:/logicielge1/altera/13.0sp1/nios2eds/bin/gnu/h-i686-mingw32/bin/../lib/gcc/nios2-elf/4.1.2/../../../../nios2-elf/lib\libc.a(lib_a-atexit.o)
 .debug_line    0x0001baaa      0x238 c:/logicielge1/altera/13.0sp1/nios2eds/bin/gnu/h-i686-mingw32/bin/../lib/gcc/nios2-elf/4.1.2/../../../../nios2-elf/lib\libc.a(lib_a-exit.o)
 .debug_line    0x0001bce2      0x29f c:/logicielge1/altera/13.0sp1/nios2eds/bin/gnu/h-i686-mingw32/bin/../lib/gcc/nios2-elf/4.1.2/../../../../nios2-elf/lib\libc.a(lib_a-memcmp.o)
 .debug_line    0x0001bf81      0x313 c:/logicielge1/altera/13.0sp1/nios2eds/bin/gnu/h-i686-mingw32/bin/../lib/gcc/nios2-elf/4.1.2/../../../../nios2-elf/lib\libc.a(lib_a-__atexit.o)
 .debug_line    0x0001c294      0x367 c:/logicielge1/altera/13.0sp1/nios2eds/bin/gnu/h-i686-mingw32/bin/../lib/gcc/nios2-elf/4.1.2/../../../../nios2-elf/lib\libc.a(lib_a-__call_atexit.o)

.debug_frame    0x00000000     0x2df0
 *(.debug_frame)
 .debug_frame   0x00000000      0x1ac obj/default/FSM.o
 .debug_frame   0x000001ac       0xf0 obj/default/controller/PIO.o
 .debug_frame   0x0000029c      0x12c obj/default/controller/PIO_Bus.o
 .debug_frame   0x000003c8      0x118 obj/default/controller/PIO_Pin.o
 .debug_frame   0x000004e0       0xd4 obj/default/controller/SPI.o
 .debug_frame   0x000005b4      0x30c obj/default/controller/UART.o
 .debug_frame   0x000008c0       0x3c obj/default/main.o
 .debug_frame   0x000008fc       0x58 c:/logicielge1/altera/13.0sp1/nios2eds/bin/gnu/h-i686-mingw32/bin/../lib/gcc/nios2-elf/4.1.2/../../../../nios2-elf/lib\libstdc++.a(eh_throw.o)
 .debug_frame   0x00000954       0x2c c:/logicielge1/altera/13.0sp1/nios2eds/bin/gnu/h-i686-mingw32/bin/../lib/gcc/nios2-elf/4.1.2/../../../../nios2-elf/lib\libstdc++.a(new_opv.o)
 .debug_frame   0x00000980       0x6c c:/logicielge1/altera/13.0sp1/nios2eds/bin/gnu/h-i686-mingw32/bin/../lib/gcc/nios2-elf/4.1.2/../../../../nios2-elf/lib\libstdc++.a(eh_catch.o)
 .debug_frame   0x000009ec       0x20 c:/logicielge1/altera/13.0sp1/nios2eds/bin/gnu/h-i686-mingw32/bin/../lib/gcc/nios2-elf/4.1.2/../../../../nios2-elf/lib\libstdc++.a(del_op.o)
 .debug_frame   0x00000a0c       0x20 c:/logicielge1/altera/13.0sp1/nios2eds/bin/gnu/h-i686-mingw32/bin/../lib/gcc/nios2-elf/4.1.2/../../../../nios2-elf/lib\libstdc++.a(del_opv.o)
 .debug_frame   0x00000a2c      0x114 c:/logicielge1/altera/13.0sp1/nios2eds/bin/gnu/h-i686-mingw32/bin/../lib/gcc/nios2-elf/4.1.2/../../../../nios2-elf/lib\libstdc++.a(eh_personality.o)
 .debug_frame   0x00000b40       0xb0 c:/logicielge1/altera/13.0sp1/nios2eds/bin/gnu/h-i686-mingw32/bin/../lib/gcc/nios2-elf/4.1.2/../../../../nios2-elf/lib\libstdc++.a(class_type_info.o)
 .debug_frame   0x00000bf0       0x94 c:/logicielge1/altera/13.0sp1/nios2eds/bin/gnu/h-i686-mingw32/bin/../lib/gcc/nios2-elf/4.1.2/../../../../nios2-elf/lib\libstdc++.a(si_class_type_info.o)
 .debug_frame   0x00000c84       0x30 c:/logicielge1/altera/13.0sp1/nios2eds/bin/gnu/h-i686-mingw32/bin/../lib/gcc/nios2-elf/4.1.2/../../../../nios2-elf/lib\libstdc++.a(eh_globals.o)
 .debug_frame   0x00000cb4       0x94 c:/logicielge1/altera/13.0sp1/nios2eds/bin/gnu/h-i686-mingw32/bin/../lib/gcc/nios2-elf/4.1.2/../../../../nios2-elf/lib\libstdc++.a(eh_terminate.o)
 .debug_frame   0x00000d48       0x2c c:/logicielge1/altera/13.0sp1/nios2eds/bin/gnu/h-i686-mingw32/bin/../lib/gcc/nios2-elf/4.1.2/../../../../nios2-elf/lib\libstdc++.a(new_op.o)
 .debug_frame   0x00000d74       0x28 c:/logicielge1/altera/13.0sp1/nios2eds/bin/gnu/h-i686-mingw32/bin/../lib/gcc/nios2-elf/4.1.2/../../../../nios2-elf/lib\libstdc++.a(eh_call.o)
 .debug_frame   0x00000d9c       0x8c c:/logicielge1/altera/13.0sp1/nios2eds/bin/gnu/h-i686-mingw32/bin/../lib/gcc/nios2-elf/4.1.2/../../../../nios2-elf/lib\libstdc++.a(eh_exception.o)
 .debug_frame   0x00000e28       0x4c c:/logicielge1/altera/13.0sp1/nios2eds/bin/gnu/h-i686-mingw32/bin/../lib/gcc/nios2-elf/4.1.2/../../../../nios2-elf/lib\libstdc++.a(fundamental_type_info.o)
 .debug_frame   0x00000e74       0x5c c:/logicielge1/altera/13.0sp1/nios2eds/bin/gnu/h-i686-mingw32/bin/../lib/gcc/nios2-elf/4.1.2/../../../../nios2-elf/lib\libstdc++.a(new_handler.o)
 .debug_frame   0x00000ed0       0x3c c:/logicielge1/altera/13.0sp1/nios2eds/bin/gnu/h-i686-mingw32/bin/../lib/gcc/nios2-elf/4.1.2/../../../../nios2-elf/lib\libstdc++.a(eh_alloc.o)
 .debug_frame   0x00000f0c       0x80 c:/logicielge1/altera/13.0sp1/nios2eds/bin/gnu/h-i686-mingw32/bin/../lib/gcc/nios2-elf/4.1.2/../../../../nios2-elf/lib\libstdc++.a(tinfo.o)
 .debug_frame   0x00000f8c       0x74 c:/logicielge1/altera/13.0sp1/nios2eds/bin/gnu/h-i686-mingw32/bin/../lib/gcc/nios2-elf/4.1.2/../../../../nios2-elf/lib\libstdc++.a(pointer_type_info.o)
 .debug_frame   0x00001000       0x7c c:/logicielge1/altera/13.0sp1/nios2eds/bin/gnu/h-i686-mingw32/bin/../lib/gcc/nios2-elf/4.1.2/../../../../nios2-elf/lib\libstdc++.a(pbase_type_info.o)
 .debug_frame   0x0000107c      0x1d8 c:/logicielge1/altera/13.0sp1/nios2eds/bin/gnu/h-i686-mingw32/bin/../lib/gcc/nios2-elf/4.1.2\libgcc.a(unwind-sjlj.o)
 .debug_frame   0x00001254       0x28 c:/logicielge1/altera/13.0sp1/nios2eds/bin/gnu/h-i686-mingw32/bin/../lib/gcc/nios2-elf/4.1.2/../../../../nios2-elf/lib\libc.a(lib_a-abort.o)
 .debug_frame   0x0000127c       0x30 c:/logicielge1/altera/13.0sp1/nios2eds/bin/gnu/h-i686-mingw32/bin/../lib/gcc/nios2-elf/4.1.2/../../../../nios2-elf/lib\libc.a(lib_a-malloc.o)
 .debug_frame   0x000012ac       0x38 c:/logicielge1/altera/13.0sp1/nios2eds/bin/gnu/h-i686-mingw32/bin/../lib/gcc/nios2-elf/4.1.2/../../../../nios2-elf/lib\libc.a(lib_a-mallocr.o)
 .debug_frame   0x000012e4       0x20 c:/logicielge1/altera/13.0sp1/nios2eds/bin/gnu/h-i686-mingw32/bin/../lib/gcc/nios2-elf/4.1.2/../../../../nios2-elf/lib\libc.a(lib_a-memset.o)
 .debug_frame   0x00001304       0x40 c:/logicielge1/altera/13.0sp1/nios2eds/bin/gnu/h-i686-mingw32/bin/../lib/gcc/nios2-elf/4.1.2/../../../../nios2-elf/lib\libc.a(lib_a-printf.o)
 .debug_frame   0x00001344       0x2c c:/logicielge1/altera/13.0sp1/nios2eds/bin/gnu/h-i686-mingw32/bin/../lib/gcc/nios2-elf/4.1.2/../../../../nios2-elf/lib\libc.a(lib_a-sbrkr.o)
 .debug_frame   0x00001370       0xb8 c:/logicielge1/altera/13.0sp1/nios2eds/bin/gnu/h-i686-mingw32/bin/../lib/gcc/nios2-elf/4.1.2/../../../../nios2-elf/lib\libc.a(lib_a-signal.o)
 .debug_frame   0x00001428       0x3c c:/logicielge1/altera/13.0sp1/nios2eds/bin/gnu/h-i686-mingw32/bin/../lib/gcc/nios2-elf/4.1.2/../../../../nios2-elf/lib\libc.a(lib_a-signalr.o)
 .debug_frame   0x00001464       0x20 c:/logicielge1/altera/13.0sp1/nios2eds/bin/gnu/h-i686-mingw32/bin/../lib/gcc/nios2-elf/4.1.2/../../../../nios2-elf/lib\libc.a(lib_a-strlen.o)
 .debug_frame   0x00001484       0x64 c:/logicielge1/altera/13.0sp1/nios2eds/bin/gnu/h-i686-mingw32/bin/../lib/gcc/nios2-elf/4.1.2/../../../../nios2-elf/lib\libc.a(lib_a-vfprintf.o)
 .debug_frame   0x000014e8       0x44 c:/logicielge1/altera/13.0sp1/nios2eds/bin/gnu/h-i686-mingw32/bin/../lib/gcc/nios2-elf/4.1.2/../../../../nios2-elf/lib\libc.a(lib_a-vsnprintf.o)
 .debug_frame   0x0000152c       0x2c c:/logicielge1/altera/13.0sp1/nios2eds/bin/gnu/h-i686-mingw32/bin/../lib/gcc/nios2-elf/4.1.2/../../../../nios2-elf/lib\libc.a(lib_a-wsetup.o)
 .debug_frame   0x00001558       0x64 c:/logicielge1/altera/13.0sp1/nios2eds/bin/gnu/h-i686-mingw32/bin/../lib/gcc/nios2-elf/4.1.2/../../../../nios2-elf/lib\libc.a(lib_a-dtoa.o)
 .debug_frame   0x000015bc       0x40 c:/logicielge1/altera/13.0sp1/nios2eds/bin/gnu/h-i686-mingw32/bin/../lib/gcc/nios2-elf/4.1.2/../../../../nios2-elf/lib\libc.a(lib_a-fflush.o)
 .debug_frame   0x000015fc      0x118 c:/logicielge1/altera/13.0sp1/nios2eds/bin/gnu/h-i686-mingw32/bin/../lib/gcc/nios2-elf/4.1.2/../../../../nios2-elf/lib\libc.a(lib_a-findfp.o)
 .debug_frame   0x00001714       0x4c c:/logicielge1/altera/13.0sp1/nios2eds/bin/gnu/h-i686-mingw32/bin/../lib/gcc/nios2-elf/4.1.2/../../../../nios2-elf/lib\libc.a(lib_a-freer.o)
 .debug_frame   0x00001760       0x38 c:/logicielge1/altera/13.0sp1/nios2eds/bin/gnu/h-i686-mingw32/bin/../lib/gcc/nios2-elf/4.1.2/../../../../nios2-elf/lib\libc.a(lib_a-fvwrite.o)
 .debug_frame   0x00001798       0x60 c:/logicielge1/altera/13.0sp1/nios2eds/bin/gnu/h-i686-mingw32/bin/../lib/gcc/nios2-elf/4.1.2/../../../../nios2-elf/lib\libc.a(lib_a-fwalk.o)
 .debug_frame   0x000017f8       0x70 c:/logicielge1/altera/13.0sp1/nios2eds/bin/gnu/h-i686-mingw32/bin/../lib/gcc/nios2-elf/4.1.2/../../../../nios2-elf/lib\libc.a(lib_a-locale.o)
 .debug_frame   0x00001868       0x2c c:/logicielge1/altera/13.0sp1/nios2eds/bin/gnu/h-i686-mingw32/bin/../lib/gcc/nios2-elf/4.1.2/../../../../nios2-elf/lib\libc.a(lib_a-makebuf.o)
 .debug_frame   0x00001894       0x20 c:/logicielge1/altera/13.0sp1/nios2eds/bin/gnu/h-i686-mingw32/bin/../lib/gcc/nios2-elf/4.1.2/../../../../nios2-elf/lib\libc.a(lib_a-memchr.o)
 .debug_frame   0x000018b4       0x20 c:/logicielge1/altera/13.0sp1/nios2eds/bin/gnu/h-i686-mingw32/bin/../lib/gcc/nios2-elf/4.1.2/../../../../nios2-elf/lib\libc.a(lib_a-memcpy.o)
 .debug_frame   0x000018d4       0x20 c:/logicielge1/altera/13.0sp1/nios2eds/bin/gnu/h-i686-mingw32/bin/../lib/gcc/nios2-elf/4.1.2/../../../../nios2-elf/lib\libc.a(lib_a-memmove.o)
 .debug_frame   0x000018f4      0x218 c:/logicielge1/altera/13.0sp1/nios2eds/bin/gnu/h-i686-mingw32/bin/../lib/gcc/nios2-elf/4.1.2/../../../../nios2-elf/lib\libc.a(lib_a-mprec.o)
 .debug_frame   0x00001b0c       0x38 c:/logicielge1/altera/13.0sp1/nios2eds/bin/gnu/h-i686-mingw32/bin/../lib/gcc/nios2-elf/4.1.2/../../../../nios2-elf/lib\libc.a(lib_a-reallocr.o)
 .debug_frame   0x00001b44       0x20 c:/logicielge1/altera/13.0sp1/nios2eds/bin/gnu/h-i686-mingw32/bin/../lib/gcc/nios2-elf/4.1.2/../../../../nios2-elf/lib\libc.a(lib_a-s_isinfd.o)
 .debug_frame   0x00001b64       0x20 c:/logicielge1/altera/13.0sp1/nios2eds/bin/gnu/h-i686-mingw32/bin/../lib/gcc/nios2-elf/4.1.2/../../../../nios2-elf/lib\libc.a(lib_a-s_isnand.o)
 .debug_frame   0x00001b84       0x78 c:/logicielge1/altera/13.0sp1/nios2eds/bin/gnu/h-i686-mingw32/bin/../lib/gcc/nios2-elf/4.1.2/../../../../nios2-elf/lib\libc.a(lib_a-stdio.o)
 .debug_frame   0x00001bfc       0x20 c:/logicielge1/altera/13.0sp1/nios2eds/bin/gnu/h-i686-mingw32/bin/../lib/gcc/nios2-elf/4.1.2/../../../../nios2-elf/lib\libc.a(lib_a-strcmp.o)
 .debug_frame   0x00001c1c       0x2c c:/logicielge1/altera/13.0sp1/nios2eds/bin/gnu/h-i686-mingw32/bin/../lib/gcc/nios2-elf/4.1.2/../../../../nios2-elf/lib\libc.a(lib_a-writer.o)
 .debug_frame   0x00001c48       0x28 c:/logicielge1/altera/13.0sp1/nios2eds/bin/gnu/h-i686-mingw32/bin/../lib/gcc/nios2-elf/4.1.2/../../../../nios2-elf/lib\libc.a(lib_a-callocr.o)
 .debug_frame   0x00001c70       0x2c c:/logicielge1/altera/13.0sp1/nios2eds/bin/gnu/h-i686-mingw32/bin/../lib/gcc/nios2-elf/4.1.2/../../../../nios2-elf/lib\libc.a(lib_a-closer.o)
 .debug_frame   0x00001c9c       0x3c c:/logicielge1/altera/13.0sp1/nios2eds/bin/gnu/h-i686-mingw32/bin/../lib/gcc/nios2-elf/4.1.2/../../../../nios2-elf/lib\libc.a(lib_a-fclose.o)
 .debug_frame   0x00001cd8       0x2c c:/logicielge1/altera/13.0sp1/nios2eds/bin/gnu/h-i686-mingw32/bin/../lib/gcc/nios2-elf/4.1.2/../../../../nios2-elf/lib\libc.a(lib_a-fstatr.o)
 .debug_frame   0x00001d04       0x2c c:/logicielge1/altera/13.0sp1/nios2eds/bin/gnu/h-i686-mingw32/bin/../lib/gcc/nios2-elf/4.1.2/../../../../nios2-elf/lib\libc.a(lib_a-isattyr.o)
 .debug_frame   0x00001d30       0x2c c:/logicielge1/altera/13.0sp1/nios2eds/bin/gnu/h-i686-mingw32/bin/../lib/gcc/nios2-elf/4.1.2/../../../../nios2-elf/lib\libc.a(lib_a-lseekr.o)
 .debug_frame   0x00001d5c       0x2c c:/logicielge1/altera/13.0sp1/nios2eds/bin/gnu/h-i686-mingw32/bin/../lib/gcc/nios2-elf/4.1.2/../../../../nios2-elf/lib\libc.a(lib_a-readr.o)
 .debug_frame   0x00001d88       0x38 c:/logicielge1/altera/13.0sp1/nios2eds/bin/gnu/h-i686-mingw32/bin/../lib/gcc/nios2-elf/4.1.2\libgcc.a(_udivdi3.o)
 .debug_frame   0x00001dc0       0x38 c:/logicielge1/altera/13.0sp1/nios2eds/bin/gnu/h-i686-mingw32/bin/../lib/gcc/nios2-elf/4.1.2\libgcc.a(_umoddi3.o)
 .debug_frame   0x00001df8       0x70 c:/logicielge1/altera/13.0sp1/nios2eds/bin/gnu/h-i686-mingw32/bin/../lib/gcc/nios2-elf/4.1.2\libgcc.a(_addsub_df.o)
 .debug_frame   0x00001e68       0x3c c:/logicielge1/altera/13.0sp1/nios2eds/bin/gnu/h-i686-mingw32/bin/../lib/gcc/nios2-elf/4.1.2\libgcc.a(_mul_df.o)
 .debug_frame   0x00001ea4       0x30 c:/logicielge1/altera/13.0sp1/nios2eds/bin/gnu/h-i686-mingw32/bin/../lib/gcc/nios2-elf/4.1.2\libgcc.a(_div_df.o)
 .debug_frame   0x00001ed4       0x2c c:/logicielge1/altera/13.0sp1/nios2eds/bin/gnu/h-i686-mingw32/bin/../lib/gcc/nios2-elf/4.1.2\libgcc.a(_eq_df.o)
 .debug_frame   0x00001f00       0x2c c:/logicielge1/altera/13.0sp1/nios2eds/bin/gnu/h-i686-mingw32/bin/../lib/gcc/nios2-elf/4.1.2\libgcc.a(_ne_df.o)
 .debug_frame   0x00001f2c       0x2c c:/logicielge1/altera/13.0sp1/nios2eds/bin/gnu/h-i686-mingw32/bin/../lib/gcc/nios2-elf/4.1.2\libgcc.a(_gt_df.o)
 .debug_frame   0x00001f58       0x2c c:/logicielge1/altera/13.0sp1/nios2eds/bin/gnu/h-i686-mingw32/bin/../lib/gcc/nios2-elf/4.1.2\libgcc.a(_ge_df.o)
 .debug_frame   0x00001f84       0x2c c:/logicielge1/altera/13.0sp1/nios2eds/bin/gnu/h-i686-mingw32/bin/../lib/gcc/nios2-elf/4.1.2\libgcc.a(_lt_df.o)
 .debug_frame   0x00001fb0       0x30 c:/logicielge1/altera/13.0sp1/nios2eds/bin/gnu/h-i686-mingw32/bin/../lib/gcc/nios2-elf/4.1.2\libgcc.a(_si_to_df.o)
 .debug_frame   0x00001fe0       0x28 c:/logicielge1/altera/13.0sp1/nios2eds/bin/gnu/h-i686-mingw32/bin/../lib/gcc/nios2-elf/4.1.2\libgcc.a(_df_to_si.o)
 .debug_frame   0x00002008       0x38 c:/logicielge1/altera/13.0sp1/nios2eds/bin/gnu/h-i686-mingw32/bin/../lib/gcc/nios2-elf/4.1.2\libgcc.a(_usi_to_df.o)
 .debug_frame   0x00002040       0x70 c:/logicielge1/altera/13.0sp1/nios2eds/bin/gnu/h-i686-mingw32/bin/../lib/gcc/nios2-elf/4.1.2\libgcc.a(lib2-divmod.o)
 .debug_frame   0x000020b0       0x2c c:/logicielge1/altera/13.0sp1/nios2eds/bin/gnu/h-i686-mingw32/bin/../lib/gcc/nios2-elf/4.1.2\libgcc.a(_muldi3.o)
 .debug_frame   0x000020dc       0x20 c:/logicielge1/altera/13.0sp1/nios2eds/bin/gnu/h-i686-mingw32/bin/../lib/gcc/nios2-elf/4.1.2\libgcc.a(_clzsi2.o)
 .debug_frame   0x000020fc       0x2c c:/logicielge1/altera/13.0sp1/nios2eds/bin/gnu/h-i686-mingw32/bin/../lib/gcc/nios2-elf/4.1.2\libgcc.a(_pack_df.o)
 .debug_frame   0x00002128       0x20 c:/logicielge1/altera/13.0sp1/nios2eds/bin/gnu/h-i686-mingw32/bin/../lib/gcc/nios2-elf/4.1.2\libgcc.a(_unpack_df.o)
 .debug_frame   0x00002148       0x20 c:/logicielge1/altera/13.0sp1/nios2eds/bin/gnu/h-i686-mingw32/bin/../lib/gcc/nios2-elf/4.1.2\libgcc.a(_fpcmp_parts_df.o)
 .debug_frame   0x00002168       0x48 ../cmv_controller_bsp/\libhal_bsp.a(alt_close.o)
 .debug_frame   0x000021b0       0x2c ../cmv_controller_bsp/\libhal_bsp.a(alt_dev.o)
 .debug_frame   0x000021dc       0x48 ../cmv_controller_bsp/\libhal_bsp.a(alt_exit.o)
 .debug_frame   0x00002224       0x48 ../cmv_controller_bsp/\libhal_bsp.a(alt_fstat.o)
 .debug_frame   0x0000226c       0x2c ../cmv_controller_bsp/\libhal_bsp.a(alt_getpid.o)
 .debug_frame   0x00002298       0x2c ../cmv_controller_bsp/\libhal_bsp.a(alt_irq_register.o)
 .debug_frame   0x000022c4       0x48 ../cmv_controller_bsp/\libhal_bsp.a(alt_isatty.o)
 .debug_frame   0x0000230c       0x48 ../cmv_controller_bsp/\libhal_bsp.a(alt_kill.o)
 .debug_frame   0x00002354       0x48 ../cmv_controller_bsp/\libhal_bsp.a(alt_load.o)
 .debug_frame   0x0000239c       0x48 ../cmv_controller_bsp/\libhal_bsp.a(alt_lseek.o)
 .debug_frame   0x000023e4       0x2c ../cmv_controller_bsp/\libhal_bsp.a(alt_main.o)
 .debug_frame   0x00002410       0x48 ../cmv_controller_bsp/\libhal_bsp.a(alt_malloc_lock.o)
 .debug_frame   0x00002458       0x48 ../cmv_controller_bsp/\libhal_bsp.a(alt_read.o)
 .debug_frame   0x000024a0       0x2c ../cmv_controller_bsp/\libhal_bsp.a(alt_release_fd.o)
 .debug_frame   0x000024cc       0x2c ../cmv_controller_bsp/\libhal_bsp.a(alt_sbrk.o)
 .debug_frame   0x000024f8       0x2c ../cmv_controller_bsp/\libhal_bsp.a(alt_usleep.o)
 .debug_frame   0x00002524       0x48 ../cmv_controller_bsp/\libhal_bsp.a(alt_write.o)
 .debug_frame   0x0000256c       0x64 ../cmv_controller_bsp/\libhal_bsp.a(alt_sys_init.o)
 .debug_frame   0x000025d0       0x80 ../cmv_controller_bsp/\libhal_bsp.a(altera_avalon_jtag_uart_fd.o)
 .debug_frame   0x00002650       0x80 ../cmv_controller_bsp/\libhal_bsp.a(altera_avalon_jtag_uart_init.o)
 .debug_frame   0x000026d0       0x2c ../cmv_controller_bsp/\libhal_bsp.a(altera_avalon_jtag_uart_ioctl.o)
 .debug_frame   0x000026fc       0x2c ../cmv_controller_bsp/\libhal_bsp.a(altera_avalon_jtag_uart_read.o)
 .debug_frame   0x00002728       0x2c ../cmv_controller_bsp/\libhal_bsp.a(altera_avalon_jtag_uart_write.o)
 .debug_frame   0x00002754       0x2c ../cmv_controller_bsp/\libhal_bsp.a(altera_avalon_spi.o)
 .debug_frame   0x00002780       0x64 ../cmv_controller_bsp/\libhal_bsp.a(altera_avalon_uart_fd.o)
 .debug_frame   0x000027e4       0x9c ../cmv_controller_bsp/\libhal_bsp.a(altera_avalon_uart_init.o)
 .debug_frame   0x00002880       0x48 ../cmv_controller_bsp/\libhal_bsp.a(altera_avalon_uart_read.o)
 .debug_frame   0x000028c8       0x48 ../cmv_controller_bsp/\libhal_bsp.a(altera_avalon_uart_write.o)
 .debug_frame   0x00002910       0x2c ../cmv_controller_bsp/\libhal_bsp.a(alt_alarm_start.o)
 .debug_frame   0x0000293c       0x2c ../cmv_controller_bsp/\libhal_bsp.a(alt_busy_sleep.o)
 .debug_frame   0x00002968       0x2c ../cmv_controller_bsp/\libhal_bsp.a(alt_dcache_flush_all.o)
 .debug_frame   0x00002994       0x48 ../cmv_controller_bsp/\libhal_bsp.a(alt_dev_llist_insert.o)
 .debug_frame   0x000029dc       0x2c ../cmv_controller_bsp/\libhal_bsp.a(alt_do_ctors.o)
 .debug_frame   0x00002a08       0x2c ../cmv_controller_bsp/\libhal_bsp.a(alt_do_dtors.o)
 .debug_frame   0x00002a34       0x2c ../cmv_controller_bsp/\libhal_bsp.a(alt_icache_flush_all.o)
 .debug_frame   0x00002a60       0x80 ../cmv_controller_bsp/\libhal_bsp.a(alt_iic.o)
 .debug_frame   0x00002ae0       0x2c ../cmv_controller_bsp/\libhal_bsp.a(alt_iic_isr_register.o)
 .debug_frame   0x00002b0c       0x48 ../cmv_controller_bsp/\libhal_bsp.a(alt_io_redirect.o)
 .debug_frame   0x00002b54       0x2c ../cmv_controller_bsp/\libhal_bsp.a(alt_irq_handler.o)
 .debug_frame   0x00002b80       0x64 ../cmv_controller_bsp/\libhal_bsp.a(alt_open.o)
 .debug_frame   0x00002be4       0x48 ../cmv_controller_bsp/\libhal_bsp.a(alt_tick.o)
 .debug_frame   0x00002c2c       0x2c ../cmv_controller_bsp/\libhal_bsp.a(altera_nios2_qsys_irq.o)
 .debug_frame   0x00002c58       0x2c ../cmv_controller_bsp/\libhal_bsp.a(alt_find_dev.o)
 .debug_frame   0x00002c84       0x2c ../cmv_controller_bsp/\libhal_bsp.a(alt_find_file.o)
 .debug_frame   0x00002cb0       0x2c ../cmv_controller_bsp/\libhal_bsp.a(alt_get_fd.o)
 .debug_frame   0x00002cdc       0x2c ../cmv_controller_bsp/\libhal_bsp.a(alt_icache_flush.o)
 .debug_frame   0x00002d08       0x20 c:/logicielge1/altera/13.0sp1/nios2eds/bin/gnu/h-i686-mingw32/bin/../lib/gcc/nios2-elf/4.1.2/../../../../nios2-elf/lib\libc.a(lib_a-atexit.o)
 .debug_frame   0x00002d28       0x28 c:/logicielge1/altera/13.0sp1/nios2eds/bin/gnu/h-i686-mingw32/bin/../lib/gcc/nios2-elf/4.1.2/../../../../nios2-elf/lib\libc.a(lib_a-exit.o)
 .debug_frame   0x00002d50       0x20 c:/logicielge1/altera/13.0sp1/nios2eds/bin/gnu/h-i686-mingw32/bin/../lib/gcc/nios2-elf/4.1.2/../../../../nios2-elf/lib\libc.a(lib_a-memcmp.o)
 .debug_frame   0x00002d70       0x34 c:/logicielge1/altera/13.0sp1/nios2eds/bin/gnu/h-i686-mingw32/bin/../lib/gcc/nios2-elf/4.1.2/../../../../nios2-elf/lib\libc.a(lib_a-__atexit.o)
 .debug_frame   0x00002da4       0x4c c:/logicielge1/altera/13.0sp1/nios2eds/bin/gnu/h-i686-mingw32/bin/../lib/gcc/nios2-elf/4.1.2/../../../../nios2-elf/lib\libc.a(lib_a-__call_atexit.o)

.debug_str      0x00000000     0x41bf
 *(.debug_str)
 .debug_str     0x00000000       0x4f obj/default/FSM.o
 .debug_str     0x0000004f       0x17 obj/default/controller/PIO_Bus.o
 .debug_str     0x00000066        0xe obj/default/controller/PIO_Pin.o
 .debug_str     0x00000074       0x1d obj/default/controller/SPI.o
 .debug_str     0x00000091       0x39 obj/default/controller/UART.o
 .debug_str     0x000000ca       0x12 obj/default/main.o
 .debug_str     0x000000dc      0x61c c:/logicielge1/altera/13.0sp1/nios2eds/bin/gnu/h-i686-mingw32/bin/../lib/gcc/nios2-elf/4.1.2/../../../../nios2-elf/lib\libstdc++.a(eh_throw.o)
                                0x6dd (size before relaxing)
 .debug_str     0x000006f8       0x42 c:/logicielge1/altera/13.0sp1/nios2eds/bin/gnu/h-i686-mingw32/bin/../lib/gcc/nios2-elf/4.1.2/../../../../nios2-elf/lib\libstdc++.a(eh_term_handler.o)
                                0x5ca (size before relaxing)
 .debug_str     0x0000073a       0x50 c:/logicielge1/altera/13.0sp1/nios2eds/bin/gnu/h-i686-mingw32/bin/../lib/gcc/nios2-elf/4.1.2/../../../../nios2-elf/lib\libstdc++.a(new_opv.o)
                                0x138 (size before relaxing)
 .debug_str     0x0000078a      0x180 c:/logicielge1/altera/13.0sp1/nios2eds/bin/gnu/h-i686-mingw32/bin/../lib/gcc/nios2-elf/4.1.2/../../../../nios2-elf/lib\libstdc++.a(eh_catch.o)
                                0x774 (size before relaxing)
 .debug_str     0x0000090a       0x50 c:/logicielge1/altera/13.0sp1/nios2eds/bin/gnu/h-i686-mingw32/bin/../lib/gcc/nios2-elf/4.1.2/../../../../nios2-elf/lib\libstdc++.a(del_op.o)
                                0x230 (size before relaxing)
 .debug_str     0x0000095a       0x54 c:/logicielge1/altera/13.0sp1/nios2eds/bin/gnu/h-i686-mingw32/bin/../lib/gcc/nios2-elf/4.1.2/../../../../nios2-elf/lib\libstdc++.a(del_opv.o)
                                0x13c (size before relaxing)
 .debug_str     0x000009ae       0x42 c:/logicielge1/altera/13.0sp1/nios2eds/bin/gnu/h-i686-mingw32/bin/../lib/gcc/nios2-elf/4.1.2/../../../../nios2-elf/lib\libstdc++.a(eh_unex_handler.o)
                                0x5b0 (size before relaxing)
 .debug_str     0x000009f0      0x46d c:/logicielge1/altera/13.0sp1/nios2eds/bin/gnu/h-i686-mingw32/bin/../lib/gcc/nios2-elf/4.1.2/../../../../nios2-elf/lib\libstdc++.a(eh_personality.o)
                                0xb69 (size before relaxing)
 .debug_str     0x00000e5d      0x405 c:/logicielge1/altera/13.0sp1/nios2eds/bin/gnu/h-i686-mingw32/bin/../lib/gcc/nios2-elf/4.1.2/../../../../nios2-elf/lib\libstdc++.a(class_type_info.o)
                                0x6dc (size before relaxing)
 .debug_str     0x00001262      0x1f8 c:/logicielge1/altera/13.0sp1/nios2eds/bin/gnu/h-i686-mingw32/bin/../lib/gcc/nios2-elf/4.1.2/../../../../nios2-elf/lib\libstdc++.a(si_class_type_info.o)
                                0x889 (size before relaxing)
 .debug_str     0x0000145a       0x66 c:/logicielge1/altera/13.0sp1/nios2eds/bin/gnu/h-i686-mingw32/bin/../lib/gcc/nios2-elf/4.1.2/../../../../nios2-elf/lib\libstdc++.a(eh_globals.o)
                                0x98d (size before relaxing)
 .debug_str     0x000014c0      0x111 c:/logicielge1/altera/13.0sp1/nios2eds/bin/gnu/h-i686-mingw32/bin/../lib/gcc/nios2-elf/4.1.2/../../../../nios2-elf/lib\libstdc++.a(eh_terminate.o)
                                0x7bd (size before relaxing)
 .debug_str     0x000015d1       0x65 c:/logicielge1/altera/13.0sp1/nios2eds/bin/gnu/h-i686-mingw32/bin/../lib/gcc/nios2-elf/4.1.2/../../../../nios2-elf/lib\libstdc++.a(new_op.o)
                                0x2b1 (size before relaxing)
 .debug_str     0x00001636       0x4f c:/logicielge1/altera/13.0sp1/nios2eds/bin/gnu/h-i686-mingw32/bin/../lib/gcc/nios2-elf/4.1.2/../../../../nios2-elf/lib\libstdc++.a(eh_call.o)
                                0x6a5 (size before relaxing)
 .debug_str     0x00001685       0x3f c:/logicielge1/altera/13.0sp1/nios2eds/bin/gnu/h-i686-mingw32/bin/../lib/gcc/nios2-elf/4.1.2/../../../../nios2-elf/lib\libstdc++.a(eh_exception.o)
                                0x3b7 (size before relaxing)
 .debug_str     0x000016c4       0x61 c:/logicielge1/altera/13.0sp1/nios2eds/bin/gnu/h-i686-mingw32/bin/../lib/gcc/nios2-elf/4.1.2/../../../../nios2-elf/lib\libstdc++.a(fundamental_type_info.o)
                                0x6ae (size before relaxing)
 .debug_str     0x00001725       0x8d c:/logicielge1/altera/13.0sp1/nios2eds/bin/gnu/h-i686-mingw32/bin/../lib/gcc/nios2-elf/4.1.2/../../../../nios2-elf/lib\libstdc++.a(new_handler.o)
                                0x1e9 (size before relaxing)
 .debug_str     0x000017b2       0xdb c:/logicielge1/altera/13.0sp1/nios2eds/bin/gnu/h-i686-mingw32/bin/../lib/gcc/nios2-elf/4.1.2/../../../../nios2-elf/lib\libstdc++.a(eh_alloc.o)
                                0x73f (size before relaxing)
 .debug_str     0x0000188d       0x38 c:/logicielge1/altera/13.0sp1/nios2eds/bin/gnu/h-i686-mingw32/bin/../lib/gcc/nios2-elf/4.1.2/../../../../nios2-elf/lib\libstdc++.a(tinfo.o)
                                0x698 (size before relaxing)
 .debug_str     0x000018c5      0x1d4 c:/logicielge1/altera/13.0sp1/nios2eds/bin/gnu/h-i686-mingw32/bin/../lib/gcc/nios2-elf/4.1.2/../../../../nios2-elf/lib\libstdc++.a(pointer_type_info.o)
                                0x843 (size before relaxing)
 .debug_str     0x00001a99       0x42 c:/logicielge1/altera/13.0sp1/nios2eds/bin/gnu/h-i686-mingw32/bin/../lib/gcc/nios2-elf/4.1.2/../../../../nios2-elf/lib\libstdc++.a(pbase_type_info.o)
                                0x794 (size before relaxing)
 .debug_str     0x00001adb      0x412 c:/logicielge1/altera/13.0sp1/nios2eds/bin/gnu/h-i686-mingw32/bin/../lib/gcc/nios2-elf/4.1.2\libgcc.a(unwind-sjlj.o)
                                0x606 (size before relaxing)
 .debug_str     0x00001eed       0xcc c:/logicielge1/altera/13.0sp1/nios2eds/bin/gnu/h-i686-mingw32/bin/../lib/gcc/nios2-elf/4.1.2/../../../../nios2-elf/lib\libc.a(lib_a-abort.o)
                                0x161 (size before relaxing)
 .debug_str     0x00001fb9      0x399 c:/logicielge1/altera/13.0sp1/nios2eds/bin/gnu/h-i686-mingw32/bin/../lib/gcc/nios2-elf/4.1.2/../../../../nios2-elf/lib\libc.a(lib_a-malloc.o)
                                0x51c (size before relaxing)
 .debug_str     0x00002352      0x208 c:/logicielge1/altera/13.0sp1/nios2eds/bin/gnu/h-i686-mingw32/bin/../lib/gcc/nios2-elf/4.1.2/../../../../nios2-elf/lib\libc.a(lib_a-mallocr.o)
                                0x6f1 (size before relaxing)
 .debug_str     0x0000255a       0xdb c:/logicielge1/altera/13.0sp1/nios2eds/bin/gnu/h-i686-mingw32/bin/../lib/gcc/nios2-elf/4.1.2/../../../../nios2-elf/lib\libc.a(lib_a-memset.o)
                                0x17e (size before relaxing)
 .debug_str     0x00002635       0xde c:/logicielge1/altera/13.0sp1/nios2eds/bin/gnu/h-i686-mingw32/bin/../lib/gcc/nios2-elf/4.1.2/../../../../nios2-elf/lib\libc.a(lib_a-printf.o)
                                0x523 (size before relaxing)
 .debug_str     0x00002713       0xd1 c:/logicielge1/altera/13.0sp1/nios2eds/bin/gnu/h-i686-mingw32/bin/../lib/gcc/nios2-elf/4.1.2/../../../../nios2-elf/lib\libc.a(lib_a-sbrkr.o)
                                0x50b (size before relaxing)
 .debug_str     0x000027e4      0x121 c:/logicielge1/altera/13.0sp1/nios2eds/bin/gnu/h-i686-mingw32/bin/../lib/gcc/nios2-elf/4.1.2/../../../../nios2-elf/lib\libc.a(lib_a-signal.o)
                                0x56d (size before relaxing)
 .debug_str     0x00002905       0x4d c:/logicielge1/altera/13.0sp1/nios2eds/bin/gnu/h-i686-mingw32/bin/../lib/gcc/nios2-elf/4.1.2/../../../../nios2-elf/lib\libc.a(lib_a-signalr.o)
                                0x508 (size before relaxing)
 .debug_str     0x00002952       0x42 c:/logicielge1/altera/13.0sp1/nios2eds/bin/gnu/h-i686-mingw32/bin/../lib/gcc/nios2-elf/4.1.2/../../../../nios2-elf/lib\libc.a(lib_a-strlen.o)
                                0x17d (size before relaxing)
 .debug_str     0x00002994      0x1bb c:/logicielge1/altera/13.0sp1/nios2eds/bin/gnu/h-i686-mingw32/bin/../lib/gcc/nios2-elf/4.1.2/../../../../nios2-elf/lib\libc.a(lib_a-vfprintf.o)
                                0x6f8 (size before relaxing)
 .debug_str     0x00002b4f       0x54 c:/logicielge1/altera/13.0sp1/nios2eds/bin/gnu/h-i686-mingw32/bin/../lib/gcc/nios2-elf/4.1.2/../../../../nios2-elf/lib\libc.a(lib_a-vsnprintf.o)
                                0x53d (size before relaxing)
 .debug_str     0x00002ba3       0x46 c:/logicielge1/altera/13.0sp1/nios2eds/bin/gnu/h-i686-mingw32/bin/../lib/gcc/nios2-elf/4.1.2/../../../../nios2-elf/lib\libc.a(lib_a-wsetup.o)
                                0x50c (size before relaxing)
 .debug_str     0x00002be9      0x102 c:/logicielge1/altera/13.0sp1/nios2eds/bin/gnu/h-i686-mingw32/bin/../lib/gcc/nios2-elf/4.1.2/../../../../nios2-elf/lib\libc.a(lib_a-dtoa.o)
                                0x601 (size before relaxing)
 .debug_str     0x00002ceb       0x65 c:/logicielge1/altera/13.0sp1/nios2eds/bin/gnu/h-i686-mingw32/bin/../lib/gcc/nios2-elf/4.1.2/../../../../nios2-elf/lib\libc.a(lib_a-fflush.o)
                                0x532 (size before relaxing)
 .debug_str     0x00002d50      0x102 c:/logicielge1/altera/13.0sp1/nios2eds/bin/gnu/h-i686-mingw32/bin/../lib/gcc/nios2-elf/4.1.2/../../../../nios2-elf/lib\libc.a(lib_a-findfp.o)
                                0x5f4 (size before relaxing)
 .debug_str     0x00002e52       0x3c c:/logicielge1/altera/13.0sp1/nios2eds/bin/gnu/h-i686-mingw32/bin/../lib/gcc/nios2-elf/4.1.2/../../../../nios2-elf/lib\libc.a(lib_a-freer.o)
                                0x643 (size before relaxing)
 .debug_str     0x00002e8e       0x66 c:/logicielge1/altera/13.0sp1/nios2eds/bin/gnu/h-i686-mingw32/bin/../lib/gcc/nios2-elf/4.1.2/../../../../nios2-elf/lib\libc.a(lib_a-fvwrite.o)
                                0x563 (size before relaxing)
 .debug_str     0x00002ef4       0x5e c:/logicielge1/altera/13.0sp1/nios2eds/bin/gnu/h-i686-mingw32/bin/../lib/gcc/nios2-elf/4.1.2/../../../../nios2-elf/lib\libc.a(lib_a-fwalk.o)
                                0x535 (size before relaxing)
 .debug_str     0x00002f52       0x46 c:/logicielge1/altera/13.0sp1/nios2eds/bin/gnu/h-i686-mingw32/bin/../lib/gcc/nios2-elf/4.1.2/../../../../nios2-elf/lib\libc.a(lib_a-impure.o)
                                0x51a (size before relaxing)
 .debug_str     0x00002f98       0x3d c:/logicielge1/altera/13.0sp1/nios2eds/bin/gnu/h-i686-mingw32/bin/../lib/gcc/nios2-elf/4.1.2/../../../../nios2-elf/lib\libc.a(lib_a-int_errno.o)
                                0x163 (size before relaxing)
 .debug_str     0x00002fd5      0x225 c:/logicielge1/altera/13.0sp1/nios2eds/bin/gnu/h-i686-mingw32/bin/../lib/gcc/nios2-elf/4.1.2/../../../../nios2-elf/lib\libc.a(lib_a-locale.o)
                                0x6a9 (size before relaxing)
 .debug_str     0x000031fa      0x123 c:/logicielge1/altera/13.0sp1/nios2eds/bin/gnu/h-i686-mingw32/bin/../lib/gcc/nios2-elf/4.1.2/../../../../nios2-elf/lib\libc.a(lib_a-makebuf.o)
                                0x606 (size before relaxing)
 .debug_str     0x0000331d       0x49 c:/logicielge1/altera/13.0sp1/nios2eds/bin/gnu/h-i686-mingw32/bin/../lib/gcc/nios2-elf/4.1.2/../../../../nios2-elf/lib\libc.a(lib_a-memchr.o)
                                0x18b (size before relaxing)
 .debug_str     0x00003366       0x62 c:/logicielge1/altera/13.0sp1/nios2eds/bin/gnu/h-i686-mingw32/bin/../lib/gcc/nios2-elf/4.1.2/../../../../nios2-elf/lib\libc.a(lib_a-memcpy.o)
                                0x128 (size before relaxing)
 .debug_str     0x000033c8       0x4d c:/logicielge1/altera/13.0sp1/nios2eds/bin/gnu/h-i686-mingw32/bin/../lib/gcc/nios2-elf/4.1.2/../../../../nios2-elf/lib\libc.a(lib_a-memmove.o)
                                0x19d (size before relaxing)
 .debug_str     0x00003415       0xf8 c:/logicielge1/altera/13.0sp1/nios2eds/bin/gnu/h-i686-mingw32/bin/../lib/gcc/nios2-elf/4.1.2/../../../../nios2-elf/lib\libc.a(lib_a-mprec.o)
                                0x60e (size before relaxing)
 .debug_str     0x0000350d       0x54 c:/logicielge1/altera/13.0sp1/nios2eds/bin/gnu/h-i686-mingw32/bin/../lib/gcc/nios2-elf/4.1.2/../../../../nios2-elf/lib\libc.a(lib_a-reallocr.o)
                                0x5c3 (size before relaxing)
 .debug_str     0x00003561       0xdc c:/logicielge1/altera/13.0sp1/nios2eds/bin/gnu/h-i686-mingw32/bin/../lib/gcc/nios2-elf/4.1.2/../../../../nios2-elf/lib\libc.a(lib_a-s_isinfd.o)
                                0x18a (size before relaxing)
 .debug_str     0x0000363d       0x46 c:/logicielge1/altera/13.0sp1/nios2eds/bin/gnu/h-i686-mingw32/bin/../lib/gcc/nios2-elf/4.1.2/../../../../nios2-elf/lib\libc.a(lib_a-s_isnand.o)
                                0x18a (size before relaxing)
 .debug_str     0x00003683       0x62 c:/logicielge1/altera/13.0sp1/nios2eds/bin/gnu/h-i686-mingw32/bin/../lib/gcc/nios2-elf/4.1.2/../../../../nios2-elf/lib\libc.a(lib_a-stdio.o)
                                0x531 (size before relaxing)
 .debug_str     0x000036e5       0x42 c:/logicielge1/altera/13.0sp1/nios2eds/bin/gnu/h-i686-mingw32/bin/../lib/gcc/nios2-elf/4.1.2/../../../../nios2-elf/lib\libc.a(lib_a-strcmp.o)
                                0x163 (size before relaxing)
 .debug_str     0x00003727       0x4c c:/logicielge1/altera/13.0sp1/nios2eds/bin/gnu/h-i686-mingw32/bin/../lib/gcc/nios2-elf/4.1.2/../../../../nios2-elf/lib\libc.a(lib_a-writer.o)
                                0x50e (size before relaxing)
 .debug_str     0x00003773       0x19 c:/logicielge1/altera/13.0sp1/nios2eds/bin/gnu/h-i686-mingw32/bin/../lib/gcc/nios2-elf/4.1.2/../../../../nios2-elf/lib\libc.a(lib_a-callocr.o)
                                0x542 (size before relaxing)
 .debug_str     0x0000378c       0x43 c:/logicielge1/altera/13.0sp1/nios2eds/bin/gnu/h-i686-mingw32/bin/../lib/gcc/nios2-elf/4.1.2/../../../../nios2-elf/lib\libc.a(lib_a-closer.o)
                                0x4fe (size before relaxing)
 .debug_str     0x000037cf       0x4b c:/logicielge1/altera/13.0sp1/nios2eds/bin/gnu/h-i686-mingw32/bin/../lib/gcc/nios2-elf/4.1.2/../../../../nios2-elf/lib\libc.a(lib_a-fclose.o)
                                0x516 (size before relaxing)
 .debug_str     0x0000381a       0x49 c:/logicielge1/altera/13.0sp1/nios2eds/bin/gnu/h-i686-mingw32/bin/../lib/gcc/nios2-elf/4.1.2/../../../../nios2-elf/lib\libc.a(lib_a-fstatr.o)
                                0x5f1 (size before relaxing)
 .debug_str     0x00003863       0x45 c:/logicielge1/altera/13.0sp1/nios2eds/bin/gnu/h-i686-mingw32/bin/../lib/gcc/nios2-elf/4.1.2/../../../../nios2-elf/lib\libc.a(lib_a-isattyr.o)
                                0x500 (size before relaxing)
 .debug_str     0x000038a8       0x43 c:/logicielge1/altera/13.0sp1/nios2eds/bin/gnu/h-i686-mingw32/bin/../lib/gcc/nios2-elf/4.1.2/../../../../nios2-elf/lib\libc.a(lib_a-lseekr.o)
                                0x50c (size before relaxing)
 .debug_str     0x000038eb       0x41 c:/logicielge1/altera/13.0sp1/nios2eds/bin/gnu/h-i686-mingw32/bin/../lib/gcc/nios2-elf/4.1.2/../../../../nios2-elf/lib\libc.a(lib_a-readr.o)
                                0x50c (size before relaxing)
 .debug_str     0x0000392c       0xd7 c:/logicielge1/altera/13.0sp1/nios2eds/bin/gnu/h-i686-mingw32/bin/../lib/gcc/nios2-elf/4.1.2\libgcc.a(_udivdi3.o)
                                0x1f7 (size before relaxing)
 .debug_str     0x00003a03        0xa c:/logicielge1/altera/13.0sp1/nios2eds/bin/gnu/h-i686-mingw32/bin/../lib/gcc/nios2-elf/4.1.2\libgcc.a(_umoddi3.o)
                                0x1f7 (size before relaxing)
 .debug_str     0x00003a0d      0x131 c:/logicielge1/altera/13.0sp1/nios2eds/bin/gnu/h-i686-mingw32/bin/../lib/gcc/nios2-elf/4.1.2\libgcc.a(_addsub_df.o)
                                0x26f (size before relaxing)
 .debug_str     0x00003b3e       0x40 c:/logicielge1/altera/13.0sp1/nios2eds/bin/gnu/h-i686-mingw32/bin/../lib/gcc/nios2-elf/4.1.2\libgcc.a(_mul_df.o)
                                0x241 (size before relaxing)
 .debug_str     0x00003b7e       0x35 c:/logicielge1/altera/13.0sp1/nios2eds/bin/gnu/h-i686-mingw32/bin/../lib/gcc/nios2-elf/4.1.2\libgcc.a(_div_df.o)
                                0x231 (size before relaxing)
 .debug_str     0x00003bb3        0x8 c:/logicielge1/altera/13.0sp1/nios2eds/bin/gnu/h-i686-mingw32/bin/../lib/gcc/nios2-elf/4.1.2\libgcc.a(_eq_df.o)
                                0x1fe (size before relaxing)
 .debug_str     0x00003bbb        0x8 c:/logicielge1/altera/13.0sp1/nios2eds/bin/gnu/h-i686-mingw32/bin/../lib/gcc/nios2-elf/4.1.2\libgcc.a(_ne_df.o)
                                0x1fe (size before relaxing)
 .debug_str     0x00003bc3        0x8 c:/logicielge1/altera/13.0sp1/nios2eds/bin/gnu/h-i686-mingw32/bin/../lib/gcc/nios2-elf/4.1.2\libgcc.a(_gt_df.o)
                                0x1fe (size before relaxing)
 .debug_str     0x00003bcb        0x8 c:/logicielge1/altera/13.0sp1/nios2eds/bin/gnu/h-i686-mingw32/bin/../lib/gcc/nios2-elf/4.1.2\libgcc.a(_ge_df.o)
                                0x1fe (size before relaxing)
 .debug_str     0x00003bd3        0x8 c:/logicielge1/altera/13.0sp1/nios2eds/bin/gnu/h-i686-mingw32/bin/../lib/gcc/nios2-elf/4.1.2\libgcc.a(_lt_df.o)
                                0x1fe (size before relaxing)
 .debug_str     0x00003bdb       0x18 c:/logicielge1/altera/13.0sp1/nios2eds/bin/gnu/h-i686-mingw32/bin/../lib/gcc/nios2-elf/4.1.2\libgcc.a(_si_to_df.o)
                                0x1de (size before relaxing)
 .debug_str     0x00003bf3        0xa c:/logicielge1/altera/13.0sp1/nios2eds/bin/gnu/h-i686-mingw32/bin/../lib/gcc/nios2-elf/4.1.2\libgcc.a(_df_to_si.o)
                                0x207 (size before relaxing)
 .debug_str     0x00000000      0x1a3 c:/logicielge1/altera/13.0sp1/nios2eds/bin/gnu/h-i686-mingw32/bin/../lib/gcc/nios2-elf/4.1.2\libgcc.a(_thenan_df.o)
 .debug_str     0x00003bfd       0x14 c:/logicielge1/altera/13.0sp1/nios2eds/bin/gnu/h-i686-mingw32/bin/../lib/gcc/nios2-elf/4.1.2\libgcc.a(_usi_to_df.o)
                                0x1da (size before relaxing)
 .debug_str     0x00003c11       0x76 c:/logicielge1/altera/13.0sp1/nios2eds/bin/gnu/h-i686-mingw32/bin/../lib/gcc/nios2-elf/4.1.2\libgcc.a(lib2-divmod.o)
                                0x1b4 (size before relaxing)
 .debug_str     0x00003c87        0x9 c:/logicielge1/altera/13.0sp1/nios2eds/bin/gnu/h-i686-mingw32/bin/../lib/gcc/nios2-elf/4.1.2\libgcc.a(_muldi3.o)
                                0x1ac (size before relaxing)
 .debug_str     0x00000000      0x161 c:/logicielge1/altera/13.0sp1/nios2eds/bin/gnu/h-i686-mingw32/bin/../lib/gcc/nios2-elf/4.1.2\libgcc.a(_clz.o)
 .debug_str     0x00003c90        0x9 c:/logicielge1/altera/13.0sp1/nios2eds/bin/gnu/h-i686-mingw32/bin/../lib/gcc/nios2-elf/4.1.2\libgcc.a(_clzsi2.o)
                                0x17e (size before relaxing)
 .debug_str     0x00003c99       0x10 c:/logicielge1/altera/13.0sp1/nios2eds/bin/gnu/h-i686-mingw32/bin/../lib/gcc/nios2-elf/4.1.2\libgcc.a(_pack_df.o)
                                0x206 (size before relaxing)
 .debug_str     0x00003ca9        0xb c:/logicielge1/altera/13.0sp1/nios2eds/bin/gnu/h-i686-mingw32/bin/../lib/gcc/nios2-elf/4.1.2\libgcc.a(_unpack_df.o)
                                0x1e8 (size before relaxing)
 .debug_str     0x00003cb4       0x10 c:/logicielge1/altera/13.0sp1/nios2eds/bin/gnu/h-i686-mingw32/bin/../lib/gcc/nios2-elf/4.1.2\libgcc.a(_fpcmp_parts_df.o)
                                0x1c6 (size before relaxing)
 .debug_str     0x00003cc4       0x12 ../cmv_controller_bsp/\libhal_bsp.a(alt_close.o)
 .debug_str     0x00003cd6       0x12 ../cmv_controller_bsp/\libhal_bsp.a(alt_dev.o)
 .debug_str     0x00003ce8       0x12 ../cmv_controller_bsp/\libhal_bsp.a(alt_errno.o)
 .debug_str     0x00003cfa       0x1c ../cmv_controller_bsp/\libhal_bsp.a(alt_exit.o)
 .debug_str     0x00003d16       0x12 ../cmv_controller_bsp/\libhal_bsp.a(alt_fstat.o)
 .debug_str     0x00003d28       0x21 ../cmv_controller_bsp/\libhal_bsp.a(alt_irq_register.o)
 .debug_str     0x00003d49       0x12 ../cmv_controller_bsp/\libhal_bsp.a(alt_isatty.o)
 .debug_str     0x00003d5b       0x12 ../cmv_controller_bsp/\libhal_bsp.a(alt_kill.o)
 .debug_str     0x00003d6d       0x12 ../cmv_controller_bsp/\libhal_bsp.a(alt_load.o)
 .debug_str     0x00003d7f       0x12 ../cmv_controller_bsp/\libhal_bsp.a(alt_lseek.o)
 .debug_str     0x00003d91       0x12 ../cmv_controller_bsp/\libhal_bsp.a(alt_main.o)
 .debug_str     0x00003da3       0x20 ../cmv_controller_bsp/\libhal_bsp.a(alt_malloc_lock.o)
 .debug_str     0x00003dc3       0x12 ../cmv_controller_bsp/\libhal_bsp.a(alt_read.o)
 .debug_str     0x00003dd5       0x1a ../cmv_controller_bsp/\libhal_bsp.a(alt_sbrk.o)
 .debug_str     0x00003def       0x12 ../cmv_controller_bsp/\libhal_bsp.a(alt_usleep.o)
 .debug_str     0x00003e01       0x12 ../cmv_controller_bsp/\libhal_bsp.a(alt_write.o)
 .debug_str     0x00003e13       0x12 ../cmv_controller_bsp/\libhal_bsp.a(alt_sys_init.o)
 .debug_str     0x00003e25       0x12 ../cmv_controller_bsp/\libhal_bsp.a(altera_avalon_jtag_uart_fd.o)
 .debug_str     0x00003e37       0x1a ../cmv_controller_bsp/\libhal_bsp.a(altera_avalon_jtag_uart_init.o)
 .debug_str     0x00003e51       0x12 ../cmv_controller_bsp/\libhal_bsp.a(altera_avalon_jtag_uart_ioctl.o)
 .debug_str     0x00003e63       0x1a ../cmv_controller_bsp/\libhal_bsp.a(altera_avalon_jtag_uart_read.o)
 .debug_str     0x00003e7d       0x1a ../cmv_controller_bsp/\libhal_bsp.a(altera_avalon_jtag_uart_write.o)
 .debug_str     0x00003e97       0x12 ../cmv_controller_bsp/\libhal_bsp.a(altera_avalon_uart_fd.o)
 .debug_str     0x00003ea9       0x19 ../cmv_controller_bsp/\libhal_bsp.a(altera_avalon_uart_init.o)
 .debug_str     0x00003ec2       0x1a ../cmv_controller_bsp/\libhal_bsp.a(altera_avalon_uart_read.o)
 .debug_str     0x00003edc       0x1a ../cmv_controller_bsp/\libhal_bsp.a(altera_avalon_uart_write.o)
 .debug_str     0x00003ef6       0x23 ../cmv_controller_bsp/\libhal_bsp.a(alt_alarm_start.o)
 .debug_str     0x00003f19       0x12 ../cmv_controller_bsp/\libhal_bsp.a(alt_busy_sleep.o)
 .debug_str     0x00003f2b       0x12 ../cmv_controller_bsp/\libhal_bsp.a(alt_dcache_flush_all.o)
 .debug_str     0x00003f3d       0x12 ../cmv_controller_bsp/\libhal_bsp.a(alt_dev_llist_insert.o)
 .debug_str     0x00003f4f       0x12 ../cmv_controller_bsp/\libhal_bsp.a(alt_icache_flush_all.o)
 .debug_str     0x00003f61       0x18 ../cmv_controller_bsp/\libhal_bsp.a(alt_iic.o)
 .debug_str     0x00003f79       0x1a ../cmv_controller_bsp/\libhal_bsp.a(alt_iic_isr_register.o)
 .debug_str     0x00003f93       0x12 ../cmv_controller_bsp/\libhal_bsp.a(alt_io_redirect.o)
 .debug_str     0x00003fa5       0x12 ../cmv_controller_bsp/\libhal_bsp.a(alt_irq_handler.o)
 .debug_str     0x00003fb7       0x12 ../cmv_controller_bsp/\libhal_bsp.a(alt_open.o)
 .debug_str     0x00003fc9       0x1a ../cmv_controller_bsp/\libhal_bsp.a(alt_tick.o)
 .debug_str     0x00003fe3       0x12 ../cmv_controller_bsp/\libhal_bsp.a(altera_nios2_qsys_irq.o)
 .debug_str     0x00003ff5       0x12 ../cmv_controller_bsp/\libhal_bsp.a(alt_find_dev.o)
 .debug_str     0x00004007       0x12 ../cmv_controller_bsp/\libhal_bsp.a(alt_find_file.o)
 .debug_str     0x00004019       0x12 ../cmv_controller_bsp/\libhal_bsp.a(alt_get_fd.o)
 .debug_str     0x0000402b       0x12 ../cmv_controller_bsp/\libhal_bsp.a(alt_icache_flush.o)
 .debug_str     0x0000403d       0x3b c:/logicielge1/altera/13.0sp1/nios2eds/bin/gnu/h-i686-mingw32/bin/../lib/gcc/nios2-elf/4.1.2/../../../../nios2-elf/lib\libc.a(lib_a-atexit.o)
                                0x1bf (size before relaxing)
 .debug_str     0x00004078       0x39 c:/logicielge1/altera/13.0sp1/nios2eds/bin/gnu/h-i686-mingw32/bin/../lib/gcc/nios2-elf/4.1.2/../../../../nios2-elf/lib\libc.a(lib_a-exit.o)
                                0x50c (size before relaxing)
 .debug_str     0x000040b1       0x42 c:/logicielge1/altera/13.0sp1/nios2eds/bin/gnu/h-i686-mingw32/bin/../lib/gcc/nios2-elf/4.1.2/../../../../nios2-elf/lib\libc.a(lib_a-memcmp.o)
                                0x16a (size before relaxing)
 .debug_str     0x000040f3       0x51 c:/logicielge1/altera/13.0sp1/nios2eds/bin/gnu/h-i686-mingw32/bin/../lib/gcc/nios2-elf/4.1.2/../../../../nios2-elf/lib\libc.a(lib_a-__atexit.o)
                                0x524 (size before relaxing)
 .debug_str     0x00004144       0x7b c:/logicielge1/altera/13.0sp1/nios2eds/bin/gnu/h-i686-mingw32/bin/../lib/gcc/nios2-elf/4.1.2/../../../../nios2-elf/lib\libc.a(lib_a-__call_atexit.o)
                                0x54e (size before relaxing)

.debug_loc      0x00000000     0xf428
 *(.debug_loc)
 .debug_loc     0x00000000      0x25b obj/default/FSM.o
 .debug_loc     0x0000025b      0x158 obj/default/controller/PIO.o
 .debug_loc     0x000003b3      0x1ae obj/default/controller/PIO_Bus.o
 .debug_loc     0x00000561      0x183 obj/default/controller/PIO_Pin.o
 .debug_loc     0x000006e4      0x12d obj/default/controller/SPI.o
 .debug_loc     0x00000811      0x436 obj/default/controller/UART.o
 .debug_loc     0x00000c47       0x2c obj/default/main.o
 .debug_loc     0x00000c73      0x16b c:/logicielge1/altera/13.0sp1/nios2eds/bin/gnu/h-i686-mingw32/bin/../lib/gcc/nios2-elf/4.1.2/../../../../nios2-elf/lib\libstdc++.a(eh_throw.o)
 .debug_loc     0x00000dde       0x3f c:/logicielge1/altera/13.0sp1/nios2eds/bin/gnu/h-i686-mingw32/bin/../lib/gcc/nios2-elf/4.1.2/../../../../nios2-elf/lib\libstdc++.a(new_opv.o)
 .debug_loc     0x00000e1d      0x1f3 c:/logicielge1/altera/13.0sp1/nios2eds/bin/gnu/h-i686-mingw32/bin/../lib/gcc/nios2-elf/4.1.2/../../../../nios2-elf/lib\libstdc++.a(eh_catch.o)
 .debug_loc     0x00001010       0x1e c:/logicielge1/altera/13.0sp1/nios2eds/bin/gnu/h-i686-mingw32/bin/../lib/gcc/nios2-elf/4.1.2/../../../../nios2-elf/lib\libstdc++.a(del_op.o)
 .debug_loc     0x0000102e       0x13 c:/logicielge1/altera/13.0sp1/nios2eds/bin/gnu/h-i686-mingw32/bin/../lib/gcc/nios2-elf/4.1.2/../../../../nios2-elf/lib\libstdc++.a(del_opv.o)
 .debug_loc     0x00001041      0xd34 c:/logicielge1/altera/13.0sp1/nios2eds/bin/gnu/h-i686-mingw32/bin/../lib/gcc/nios2-elf/4.1.2/../../../../nios2-elf/lib\libstdc++.a(eh_personality.o)
 .debug_loc     0x00001d75      0x26f c:/logicielge1/altera/13.0sp1/nios2eds/bin/gnu/h-i686-mingw32/bin/../lib/gcc/nios2-elf/4.1.2/../../../../nios2-elf/lib\libstdc++.a(class_type_info.o)
 .debug_loc     0x00001fe4      0x390 c:/logicielge1/altera/13.0sp1/nios2eds/bin/gnu/h-i686-mingw32/bin/../lib/gcc/nios2-elf/4.1.2/../../../../nios2-elf/lib\libstdc++.a(si_class_type_info.o)
 .debug_loc     0x00002374       0xd5 c:/logicielge1/altera/13.0sp1/nios2eds/bin/gnu/h-i686-mingw32/bin/../lib/gcc/nios2-elf/4.1.2/../../../../nios2-elf/lib\libstdc++.a(eh_terminate.o)
 .debug_loc     0x00002449       0x5d c:/logicielge1/altera/13.0sp1/nios2eds/bin/gnu/h-i686-mingw32/bin/../lib/gcc/nios2-elf/4.1.2/../../../../nios2-elf/lib\libstdc++.a(new_op.o)
 .debug_loc     0x000024a6       0x3d c:/logicielge1/altera/13.0sp1/nios2eds/bin/gnu/h-i686-mingw32/bin/../lib/gcc/nios2-elf/4.1.2/../../../../nios2-elf/lib\libstdc++.a(eh_call.o)
 .debug_loc     0x000024e3       0x81 c:/logicielge1/altera/13.0sp1/nios2eds/bin/gnu/h-i686-mingw32/bin/../lib/gcc/nios2-elf/4.1.2/../../../../nios2-elf/lib\libstdc++.a(eh_exception.o)
 .debug_loc     0x00002564       0x6e c:/logicielge1/altera/13.0sp1/nios2eds/bin/gnu/h-i686-mingw32/bin/../lib/gcc/nios2-elf/4.1.2/../../../../nios2-elf/lib\libstdc++.a(fundamental_type_info.o)
 .debug_loc     0x000025d2       0x81 c:/logicielge1/altera/13.0sp1/nios2eds/bin/gnu/h-i686-mingw32/bin/../lib/gcc/nios2-elf/4.1.2/../../../../nios2-elf/lib\libstdc++.a(new_handler.o)
 .debug_loc     0x00002653       0xd5 c:/logicielge1/altera/13.0sp1/nios2eds/bin/gnu/h-i686-mingw32/bin/../lib/gcc/nios2-elf/4.1.2/../../../../nios2-elf/lib\libstdc++.a(eh_alloc.o)
 .debug_loc     0x00002728       0x13 c:/logicielge1/altera/13.0sp1/nios2eds/bin/gnu/h-i686-mingw32/bin/../lib/gcc/nios2-elf/4.1.2/../../../../nios2-elf/lib\libstdc++.a(tinfo.o)
 .debug_loc     0x0000273b      0x11b c:/logicielge1/altera/13.0sp1/nios2eds/bin/gnu/h-i686-mingw32/bin/../lib/gcc/nios2-elf/4.1.2/../../../../nios2-elf/lib\libstdc++.a(pointer_type_info.o)
 .debug_loc     0x00002856      0x17b c:/logicielge1/altera/13.0sp1/nios2eds/bin/gnu/h-i686-mingw32/bin/../lib/gcc/nios2-elf/4.1.2/../../../../nios2-elf/lib\libstdc++.a(pbase_type_info.o)
 .debug_loc     0x000029d1      0x4c8 c:/logicielge1/altera/13.0sp1/nios2eds/bin/gnu/h-i686-mingw32/bin/../lib/gcc/nios2-elf/4.1.2\libgcc.a(unwind-sjlj.o)
 .debug_loc     0x00002e99       0x1f c:/logicielge1/altera/13.0sp1/nios2eds/bin/gnu/h-i686-mingw32/bin/../lib/gcc/nios2-elf/4.1.2/../../../../nios2-elf/lib\libc.a(lib_a-abort.o)
 .debug_loc     0x00002eb8       0x3c c:/logicielge1/altera/13.0sp1/nios2eds/bin/gnu/h-i686-mingw32/bin/../lib/gcc/nios2-elf/4.1.2/../../../../nios2-elf/lib\libc.a(lib_a-malloc.o)
 .debug_loc     0x00002ef4      0xaeb c:/logicielge1/altera/13.0sp1/nios2eds/bin/gnu/h-i686-mingw32/bin/../lib/gcc/nios2-elf/4.1.2/../../../../nios2-elf/lib\libc.a(lib_a-mallocr.o)
 .debug_loc     0x000039df       0xa1 c:/logicielge1/altera/13.0sp1/nios2eds/bin/gnu/h-i686-mingw32/bin/../lib/gcc/nios2-elf/4.1.2/../../../../nios2-elf/lib\libc.a(lib_a-memset.o)
 .debug_loc     0x00003a80       0xcb c:/logicielge1/altera/13.0sp1/nios2eds/bin/gnu/h-i686-mingw32/bin/../lib/gcc/nios2-elf/4.1.2/../../../../nios2-elf/lib\libc.a(lib_a-printf.o)
 .debug_loc     0x00003b4b       0x5b c:/logicielge1/altera/13.0sp1/nios2eds/bin/gnu/h-i686-mingw32/bin/../lib/gcc/nios2-elf/4.1.2/../../../../nios2-elf/lib\libc.a(lib_a-sbrkr.o)
 .debug_loc     0x00003ba6      0x3b4 c:/logicielge1/altera/13.0sp1/nios2eds/bin/gnu/h-i686-mingw32/bin/../lib/gcc/nios2-elf/4.1.2/../../../../nios2-elf/lib\libc.a(lib_a-signal.o)
 .debug_loc     0x00003f5a       0x8c c:/logicielge1/altera/13.0sp1/nios2eds/bin/gnu/h-i686-mingw32/bin/../lib/gcc/nios2-elf/4.1.2/../../../../nios2-elf/lib\libc.a(lib_a-signalr.o)
 .debug_loc     0x00003fe6       0x3c c:/logicielge1/altera/13.0sp1/nios2eds/bin/gnu/h-i686-mingw32/bin/../lib/gcc/nios2-elf/4.1.2/../../../../nios2-elf/lib\libc.a(lib_a-strlen.o)
 .debug_loc     0x00004022     0x1e0d c:/logicielge1/altera/13.0sp1/nios2eds/bin/gnu/h-i686-mingw32/bin/../lib/gcc/nios2-elf/4.1.2/../../../../nios2-elf/lib\libc.a(lib_a-vfprintf.o)
 .debug_loc     0x00005e2f      0x1a5 c:/logicielge1/altera/13.0sp1/nios2eds/bin/gnu/h-i686-mingw32/bin/../lib/gcc/nios2-elf/4.1.2/../../../../nios2-elf/lib\libc.a(lib_a-vsnprintf.o)
 .debug_loc     0x00005fd4       0x7c c:/logicielge1/altera/13.0sp1/nios2eds/bin/gnu/h-i686-mingw32/bin/../lib/gcc/nios2-elf/4.1.2/../../../../nios2-elf/lib\libc.a(lib_a-wsetup.o)
 .debug_loc     0x00006050     0x1dfa c:/logicielge1/altera/13.0sp1/nios2eds/bin/gnu/h-i686-mingw32/bin/../lib/gcc/nios2-elf/4.1.2/../../../../nios2-elf/lib\libc.a(lib_a-dtoa.o)
 .debug_loc     0x00007e4a      0x1f6 c:/logicielge1/altera/13.0sp1/nios2eds/bin/gnu/h-i686-mingw32/bin/../lib/gcc/nios2-elf/4.1.2/../../../../nios2-elf/lib\libc.a(lib_a-fflush.o)
 .debug_loc     0x00008040      0x19f c:/logicielge1/altera/13.0sp1/nios2eds/bin/gnu/h-i686-mingw32/bin/../lib/gcc/nios2-elf/4.1.2/../../../../nios2-elf/lib\libc.a(lib_a-findfp.o)
 .debug_loc     0x000081df      0x4a7 c:/logicielge1/altera/13.0sp1/nios2eds/bin/gnu/h-i686-mingw32/bin/../lib/gcc/nios2-elf/4.1.2/../../../../nios2-elf/lib\libc.a(lib_a-freer.o)
 .debug_loc     0x00008686      0x4e4 c:/logicielge1/altera/13.0sp1/nios2eds/bin/gnu/h-i686-mingw32/bin/../lib/gcc/nios2-elf/4.1.2/../../../../nios2-elf/lib\libc.a(lib_a-fvwrite.o)
 .debug_loc     0x00008b6a      0x1d2 c:/logicielge1/altera/13.0sp1/nios2eds/bin/gnu/h-i686-mingw32/bin/../lib/gcc/nios2-elf/4.1.2/../../../../nios2-elf/lib\libc.a(lib_a-fwalk.o)
 .debug_loc     0x00008d3c       0xe1 c:/logicielge1/altera/13.0sp1/nios2eds/bin/gnu/h-i686-mingw32/bin/../lib/gcc/nios2-elf/4.1.2/../../../../nios2-elf/lib\libc.a(lib_a-locale.o)
 .debug_loc     0x00008e1d      0x11c c:/logicielge1/altera/13.0sp1/nios2eds/bin/gnu/h-i686-mingw32/bin/../lib/gcc/nios2-elf/4.1.2/../../../../nios2-elf/lib\libc.a(lib_a-makebuf.o)
 .debug_loc     0x00008f39      0x106 c:/logicielge1/altera/13.0sp1/nios2eds/bin/gnu/h-i686-mingw32/bin/../lib/gcc/nios2-elf/4.1.2/../../../../nios2-elf/lib\libc.a(lib_a-memchr.o)
 .debug_loc     0x0000903f       0xca c:/logicielge1/altera/13.0sp1/nios2eds/bin/gnu/h-i686-mingw32/bin/../lib/gcc/nios2-elf/4.1.2/../../../../nios2-elf/lib\libc.a(lib_a-memcpy.o)
 .debug_loc     0x00009109      0x117 c:/logicielge1/altera/13.0sp1/nios2eds/bin/gnu/h-i686-mingw32/bin/../lib/gcc/nios2-elf/4.1.2/../../../../nios2-elf/lib\libc.a(lib_a-memmove.o)
 .debug_loc     0x00009220     0x14d6 c:/logicielge1/altera/13.0sp1/nios2eds/bin/gnu/h-i686-mingw32/bin/../lib/gcc/nios2-elf/4.1.2/../../../../nios2-elf/lib\libc.a(lib_a-mprec.o)
 .debug_loc     0x0000a6f6      0x8c0 c:/logicielge1/altera/13.0sp1/nios2eds/bin/gnu/h-i686-mingw32/bin/../lib/gcc/nios2-elf/4.1.2/../../../../nios2-elf/lib\libc.a(lib_a-reallocr.o)
 .debug_loc     0x0000afb6       0x36 c:/logicielge1/altera/13.0sp1/nios2eds/bin/gnu/h-i686-mingw32/bin/../lib/gcc/nios2-elf/4.1.2/../../../../nios2-elf/lib\libc.a(lib_a-s_isinfd.o)
 .debug_loc     0x0000afec       0x18 c:/logicielge1/altera/13.0sp1/nios2eds/bin/gnu/h-i686-mingw32/bin/../lib/gcc/nios2-elf/4.1.2/../../../../nios2-elf/lib\libc.a(lib_a-s_isnand.o)
 .debug_loc     0x0000b004      0x21f c:/logicielge1/altera/13.0sp1/nios2eds/bin/gnu/h-i686-mingw32/bin/../lib/gcc/nios2-elf/4.1.2/../../../../nios2-elf/lib\libc.a(lib_a-stdio.o)
 .debug_loc     0x0000b223       0x65 c:/logicielge1/altera/13.0sp1/nios2eds/bin/gnu/h-i686-mingw32/bin/../lib/gcc/nios2-elf/4.1.2/../../../../nios2-elf/lib\libc.a(lib_a-strcmp.o)
 .debug_loc     0x0000b288       0x97 c:/logicielge1/altera/13.0sp1/nios2eds/bin/gnu/h-i686-mingw32/bin/../lib/gcc/nios2-elf/4.1.2/../../../../nios2-elf/lib\libc.a(lib_a-writer.o)
 .debug_loc     0x0000b31f       0xe9 c:/logicielge1/altera/13.0sp1/nios2eds/bin/gnu/h-i686-mingw32/bin/../lib/gcc/nios2-elf/4.1.2/../../../../nios2-elf/lib\libc.a(lib_a-callocr.o)
 .debug_loc     0x0000b408       0x5b c:/logicielge1/altera/13.0sp1/nios2eds/bin/gnu/h-i686-mingw32/bin/../lib/gcc/nios2-elf/4.1.2/../../../../nios2-elf/lib\libc.a(lib_a-closer.o)
 .debug_loc     0x0000b463       0xe4 c:/logicielge1/altera/13.0sp1/nios2eds/bin/gnu/h-i686-mingw32/bin/../lib/gcc/nios2-elf/4.1.2/../../../../nios2-elf/lib\libc.a(lib_a-fclose.o)
 .debug_loc     0x0000b547       0x79 c:/logicielge1/altera/13.0sp1/nios2eds/bin/gnu/h-i686-mingw32/bin/../lib/gcc/nios2-elf/4.1.2/../../../../nios2-elf/lib\libc.a(lib_a-fstatr.o)
 .debug_loc     0x0000b5c0       0x5b c:/logicielge1/altera/13.0sp1/nios2eds/bin/gnu/h-i686-mingw32/bin/../lib/gcc/nios2-elf/4.1.2/../../../../nios2-elf/lib\libc.a(lib_a-isattyr.o)
 .debug_loc     0x0000b61b       0x97 c:/logicielge1/altera/13.0sp1/nios2eds/bin/gnu/h-i686-mingw32/bin/../lib/gcc/nios2-elf/4.1.2/../../../../nios2-elf/lib\libc.a(lib_a-lseekr.o)
 .debug_loc     0x0000b6b2       0x97 c:/logicielge1/altera/13.0sp1/nios2eds/bin/gnu/h-i686-mingw32/bin/../lib/gcc/nios2-elf/4.1.2/../../../../nios2-elf/lib\libc.a(lib_a-readr.o)
 .debug_loc     0x0000b749      0xc12 c:/logicielge1/altera/13.0sp1/nios2eds/bin/gnu/h-i686-mingw32/bin/../lib/gcc/nios2-elf/4.1.2\libgcc.a(_udivdi3.o)
 .debug_loc     0x0000c35b      0xc26 c:/logicielge1/altera/13.0sp1/nios2eds/bin/gnu/h-i686-mingw32/bin/../lib/gcc/nios2-elf/4.1.2\libgcc.a(_umoddi3.o)
 .debug_loc     0x0000cf81      0x47a c:/logicielge1/altera/13.0sp1/nios2eds/bin/gnu/h-i686-mingw32/bin/../lib/gcc/nios2-elf/4.1.2\libgcc.a(_addsub_df.o)
 .debug_loc     0x0000d3fb      0x3b4 c:/logicielge1/altera/13.0sp1/nios2eds/bin/gnu/h-i686-mingw32/bin/../lib/gcc/nios2-elf/4.1.2\libgcc.a(_mul_df.o)
 .debug_loc     0x0000d7af      0x1df c:/logicielge1/altera/13.0sp1/nios2eds/bin/gnu/h-i686-mingw32/bin/../lib/gcc/nios2-elf/4.1.2\libgcc.a(_div_df.o)
 .debug_loc     0x0000d98e       0x70 c:/logicielge1/altera/13.0sp1/nios2eds/bin/gnu/h-i686-mingw32/bin/../lib/gcc/nios2-elf/4.1.2\libgcc.a(_eq_df.o)
 .debug_loc     0x0000d9fe       0x70 c:/logicielge1/altera/13.0sp1/nios2eds/bin/gnu/h-i686-mingw32/bin/../lib/gcc/nios2-elf/4.1.2\libgcc.a(_ne_df.o)
 .debug_loc     0x0000da6e       0x70 c:/logicielge1/altera/13.0sp1/nios2eds/bin/gnu/h-i686-mingw32/bin/../lib/gcc/nios2-elf/4.1.2\libgcc.a(_gt_df.o)
 .debug_loc     0x0000dade       0x70 c:/logicielge1/altera/13.0sp1/nios2eds/bin/gnu/h-i686-mingw32/bin/../lib/gcc/nios2-elf/4.1.2\libgcc.a(_ge_df.o)
 .debug_loc     0x0000db4e       0x70 c:/logicielge1/altera/13.0sp1/nios2eds/bin/gnu/h-i686-mingw32/bin/../lib/gcc/nios2-elf/4.1.2\libgcc.a(_lt_df.o)
 .debug_loc     0x0000dbbe       0x9a c:/logicielge1/altera/13.0sp1/nios2eds/bin/gnu/h-i686-mingw32/bin/../lib/gcc/nios2-elf/4.1.2\libgcc.a(_si_to_df.o)
 .debug_loc     0x0000dc58       0x8b c:/logicielge1/altera/13.0sp1/nios2eds/bin/gnu/h-i686-mingw32/bin/../lib/gcc/nios2-elf/4.1.2\libgcc.a(_df_to_si.o)
 .debug_loc     0x0000dce3       0x5b c:/logicielge1/altera/13.0sp1/nios2eds/bin/gnu/h-i686-mingw32/bin/../lib/gcc/nios2-elf/4.1.2\libgcc.a(_usi_to_df.o)
 .debug_loc     0x0000dd3e      0x1d2 c:/logicielge1/altera/13.0sp1/nios2eds/bin/gnu/h-i686-mingw32/bin/../lib/gcc/nios2-elf/4.1.2\libgcc.a(lib2-divmod.o)
 .debug_loc     0x0000df10       0xc4 c:/logicielge1/altera/13.0sp1/nios2eds/bin/gnu/h-i686-mingw32/bin/../lib/gcc/nios2-elf/4.1.2\libgcc.a(_muldi3.o)
 .debug_loc     0x0000dfd4       0x1e c:/logicielge1/altera/13.0sp1/nios2eds/bin/gnu/h-i686-mingw32/bin/../lib/gcc/nios2-elf/4.1.2\libgcc.a(_clzsi2.o)
 .debug_loc     0x0000dff2      0x184 c:/logicielge1/altera/13.0sp1/nios2eds/bin/gnu/h-i686-mingw32/bin/../lib/gcc/nios2-elf/4.1.2\libgcc.a(_pack_df.o)
 .debug_loc     0x0000e176       0xe5 c:/logicielge1/altera/13.0sp1/nios2eds/bin/gnu/h-i686-mingw32/bin/../lib/gcc/nios2-elf/4.1.2\libgcc.a(_unpack_df.o)
 .debug_loc     0x0000e25b       0x56 ../cmv_controller_bsp/\libhal_bsp.a(alt_close.o)
 .debug_loc     0x0000e2b1       0x2b ../cmv_controller_bsp/\libhal_bsp.a(alt_dev.o)
 .debug_loc     0x0000e2dc       0x56 ../cmv_controller_bsp/\libhal_bsp.a(alt_exit.o)
 .debug_loc     0x0000e332       0x56 ../cmv_controller_bsp/\libhal_bsp.a(alt_fstat.o)
 .debug_loc     0x0000e388       0x2b ../cmv_controller_bsp/\libhal_bsp.a(alt_getpid.o)
 .debug_loc     0x0000e3b3       0x2c ../cmv_controller_bsp/\libhal_bsp.a(alt_irq_register.o)
 .debug_loc     0x0000e3df       0x57 ../cmv_controller_bsp/\libhal_bsp.a(alt_isatty.o)
 .debug_loc     0x0000e436       0x56 ../cmv_controller_bsp/\libhal_bsp.a(alt_kill.o)
 .debug_loc     0x0000e48c       0x56 ../cmv_controller_bsp/\libhal_bsp.a(alt_load.o)
 .debug_loc     0x0000e4e2       0x56 ../cmv_controller_bsp/\libhal_bsp.a(alt_lseek.o)
 .debug_loc     0x0000e538       0x2b ../cmv_controller_bsp/\libhal_bsp.a(alt_main.o)
 .debug_loc     0x0000e563       0x56 ../cmv_controller_bsp/\libhal_bsp.a(alt_malloc_lock.o)
 .debug_loc     0x0000e5b9       0x56 ../cmv_controller_bsp/\libhal_bsp.a(alt_read.o)
 .debug_loc     0x0000e60f       0x2b ../cmv_controller_bsp/\libhal_bsp.a(alt_release_fd.o)
 .debug_loc     0x0000e63a       0x2b ../cmv_controller_bsp/\libhal_bsp.a(alt_sbrk.o)
 .debug_loc     0x0000e665       0x2b ../cmv_controller_bsp/\libhal_bsp.a(alt_usleep.o)
 .debug_loc     0x0000e690       0x56 ../cmv_controller_bsp/\libhal_bsp.a(alt_write.o)
 .debug_loc     0x0000e6e6       0x81 ../cmv_controller_bsp/\libhal_bsp.a(alt_sys_init.o)
 .debug_loc     0x0000e767       0xac ../cmv_controller_bsp/\libhal_bsp.a(altera_avalon_jtag_uart_fd.o)
 .debug_loc     0x0000e813       0xac ../cmv_controller_bsp/\libhal_bsp.a(altera_avalon_jtag_uart_init.o)
 .debug_loc     0x0000e8bf       0x2b ../cmv_controller_bsp/\libhal_bsp.a(altera_avalon_jtag_uart_ioctl.o)
 .debug_loc     0x0000e8ea       0x2b ../cmv_controller_bsp/\libhal_bsp.a(altera_avalon_jtag_uart_read.o)
 .debug_loc     0x0000e915       0x2b ../cmv_controller_bsp/\libhal_bsp.a(altera_avalon_jtag_uart_write.o)
 .debug_loc     0x0000e940       0x2b ../cmv_controller_bsp/\libhal_bsp.a(altera_avalon_spi.o)
 .debug_loc     0x0000e96b       0x81 ../cmv_controller_bsp/\libhal_bsp.a(altera_avalon_uart_fd.o)
 .debug_loc     0x0000e9ec       0xd7 ../cmv_controller_bsp/\libhal_bsp.a(altera_avalon_uart_init.o)
 .debug_loc     0x0000eac3       0x57 ../cmv_controller_bsp/\libhal_bsp.a(altera_avalon_uart_read.o)
 .debug_loc     0x0000eb1a       0x56 ../cmv_controller_bsp/\libhal_bsp.a(altera_avalon_uart_write.o)
 .debug_loc     0x0000eb70       0x2b ../cmv_controller_bsp/\libhal_bsp.a(alt_alarm_start.o)
 .debug_loc     0x0000eb9b       0x2b ../cmv_controller_bsp/\libhal_bsp.a(alt_busy_sleep.o)
 .debug_loc     0x0000ebc6       0x2b ../cmv_controller_bsp/\libhal_bsp.a(alt_dcache_flush_all.o)
 .debug_loc     0x0000ebf1       0x56 ../cmv_controller_bsp/\libhal_bsp.a(alt_dev_llist_insert.o)
 .debug_loc     0x0000ec47       0x2b ../cmv_controller_bsp/\libhal_bsp.a(alt_do_ctors.o)
 .debug_loc     0x0000ec72       0x2b ../cmv_controller_bsp/\libhal_bsp.a(alt_do_dtors.o)
 .debug_loc     0x0000ec9d       0x2b ../cmv_controller_bsp/\libhal_bsp.a(alt_icache_flush_all.o)
 .debug_loc     0x0000ecc8       0xac ../cmv_controller_bsp/\libhal_bsp.a(alt_iic.o)
 .debug_loc     0x0000ed74       0x2b ../cmv_controller_bsp/\libhal_bsp.a(alt_iic_isr_register.o)
 .debug_loc     0x0000ed9f       0x56 ../cmv_controller_bsp/\libhal_bsp.a(alt_io_redirect.o)
 .debug_loc     0x0000edf5       0x2b ../cmv_controller_bsp/\libhal_bsp.a(alt_irq_handler.o)
 .debug_loc     0x0000ee20       0x81 ../cmv_controller_bsp/\libhal_bsp.a(alt_open.o)
 .debug_loc     0x0000eea1       0x56 ../cmv_controller_bsp/\libhal_bsp.a(alt_tick.o)
 .debug_loc     0x0000eef7       0x2b ../cmv_controller_bsp/\libhal_bsp.a(altera_nios2_qsys_irq.o)
 .debug_loc     0x0000ef22       0x2b ../cmv_controller_bsp/\libhal_bsp.a(alt_find_dev.o)
 .debug_loc     0x0000ef4d       0x2b ../cmv_controller_bsp/\libhal_bsp.a(alt_find_file.o)
 .debug_loc     0x0000ef78       0x2b ../cmv_controller_bsp/\libhal_bsp.a(alt_get_fd.o)
 .debug_loc     0x0000efa3       0x2b ../cmv_controller_bsp/\libhal_bsp.a(alt_icache_flush.o)
 .debug_loc     0x0000efce       0x1e c:/logicielge1/altera/13.0sp1/nios2eds/bin/gnu/h-i686-mingw32/bin/../lib/gcc/nios2-elf/4.1.2/../../../../nios2-elf/lib\libc.a(lib_a-atexit.o)
 .debug_loc     0x0000efec       0x3d c:/logicielge1/altera/13.0sp1/nios2eds/bin/gnu/h-i686-mingw32/bin/../lib/gcc/nios2-elf/4.1.2/../../../../nios2-elf/lib\libc.a(lib_a-exit.o)
 .debug_loc     0x0000f029      0x114 c:/logicielge1/altera/13.0sp1/nios2eds/bin/gnu/h-i686-mingw32/bin/../lib/gcc/nios2-elf/4.1.2/../../../../nios2-elf/lib\libc.a(lib_a-memcmp.o)
 .debug_loc     0x0000f13d      0x120 c:/logicielge1/altera/13.0sp1/nios2eds/bin/gnu/h-i686-mingw32/bin/../lib/gcc/nios2-elf/4.1.2/../../../../nios2-elf/lib\libc.a(lib_a-__atexit.o)
 .debug_loc     0x0000f25d      0x1cb c:/logicielge1/altera/13.0sp1/nios2eds/bin/gnu/h-i686-mingw32/bin/../lib/gcc/nios2-elf/4.1.2/../../../../nios2-elf/lib\libc.a(lib_a-__call_atexit.o)

.debug_macinfo
 *(.debug_macinfo)

.debug_weaknames
 *(.debug_weaknames)

.debug_funcnames
 *(.debug_funcnames)

.debug_typenames
 *(.debug_typenames)

.debug_varnames
 *(.debug_varnames)

.debug_alt_sim_info
                0x00000000       0x60
 *(.debug_alt_sim_info)
 .debug_alt_sim_info
                0x00000000       0x30 ../cmv_controller_bsp//obj/HAL/src/crt0.o
 .debug_alt_sim_info
                0x00000030       0x30 ../cmv_controller_bsp/\libhal_bsp.a(alt_busy_sleep.o)
                0x01000000                __alt_data_end = 0x1000000
                0x01000000                PROVIDE (__alt_stack_pointer, __alt_data_end)
                0x00816eb0                PROVIDE (__alt_stack_limit, __alt_stack_base)
                0x00816eb0                PROVIDE (__alt_heap_start, end)
                0x01000000                PROVIDE (__alt_heap_limit, 0x1000000)
OUTPUT(cmv_controller.elf elf32-littlenios2)

.debug_ranges   0x00000000      0xc08
 .debug_ranges  0x00000000       0x20 ../cmv_controller_bsp//obj/HAL/src/crt0.o
 .debug_ranges  0x00000020       0x18 c:/logicielge1/altera/13.0sp1/nios2eds/bin/gnu/h-i686-mingw32/bin/../lib/gcc/nios2-elf/4.1.2/../../../../nios2-elf/lib\libstdc++.a(eh_catch.o)
 .debug_ranges  0x00000038       0x80 c:/logicielge1/altera/13.0sp1/nios2eds/bin/gnu/h-i686-mingw32/bin/../lib/gcc/nios2-elf/4.1.2/../../../../nios2-elf/lib\libstdc++.a(eh_personality.o)
 .debug_ranges  0x000000b8       0x18 c:/logicielge1/altera/13.0sp1/nios2eds/bin/gnu/h-i686-mingw32/bin/../lib/gcc/nios2-elf/4.1.2/../../../../nios2-elf/lib\libstdc++.a(class_type_info.o)
 .debug_ranges  0x000000d0       0x18 c:/logicielge1/altera/13.0sp1/nios2eds/bin/gnu/h-i686-mingw32/bin/../lib/gcc/nios2-elf/4.1.2/../../../../nios2-elf/lib\libstdc++.a(new_op.o)
 .debug_ranges  0x000000e8       0x30 c:/logicielge1/altera/13.0sp1/nios2eds/bin/gnu/h-i686-mingw32/bin/../lib/gcc/nios2-elf/4.1.2/../../../../nios2-elf/lib\libstdc++.a(eh_alloc.o)
 .debug_ranges  0x00000118       0x18 c:/logicielge1/altera/13.0sp1/nios2eds/bin/gnu/h-i686-mingw32/bin/../lib/gcc/nios2-elf/4.1.2/../../../../nios2-elf/lib\libstdc++.a(pointer_type_info.o)
 .debug_ranges  0x00000130      0x168 c:/logicielge1/altera/13.0sp1/nios2eds/bin/gnu/h-i686-mingw32/bin/../lib/gcc/nios2-elf/4.1.2\libgcc.a(unwind-sjlj.o)
 .debug_ranges  0x00000298       0x70 c:/logicielge1/altera/13.0sp1/nios2eds/bin/gnu/h-i686-mingw32/bin/../lib/gcc/nios2-elf/4.1.2/../../../../nios2-elf/lib\libc.a(lib_a-mallocr.o)
 .debug_ranges  0x00000308      0x168 c:/logicielge1/altera/13.0sp1/nios2eds/bin/gnu/h-i686-mingw32/bin/../lib/gcc/nios2-elf/4.1.2/../../../../nios2-elf/lib\libc.a(lib_a-vfprintf.o)
 .debug_ranges  0x00000470       0x20 c:/logicielge1/altera/13.0sp1/nios2eds/bin/gnu/h-i686-mingw32/bin/../lib/gcc/nios2-elf/4.1.2/../../../../nios2-elf/lib\libc.a(lib_a-fflush.o)
 .debug_ranges  0x00000490       0x28 c:/logicielge1/altera/13.0sp1/nios2eds/bin/gnu/h-i686-mingw32/bin/../lib/gcc/nios2-elf/4.1.2/../../../../nios2-elf/lib\libc.a(lib_a-fvwrite.o)
 .debug_ranges  0x000004b8       0xa0 c:/logicielge1/altera/13.0sp1/nios2eds/bin/gnu/h-i686-mingw32/bin/../lib/gcc/nios2-elf/4.1.2/../../../../nios2-elf/lib\libc.a(lib_a-fwalk.o)
 .debug_ranges  0x00000558      0x110 c:/logicielge1/altera/13.0sp1/nios2eds/bin/gnu/h-i686-mingw32/bin/../lib/gcc/nios2-elf/4.1.2/../../../../nios2-elf/lib\libc.a(lib_a-reallocr.o)
 .debug_ranges  0x00000668       0x38 c:/logicielge1/altera/13.0sp1/nios2eds/bin/gnu/h-i686-mingw32/bin/../lib/gcc/nios2-elf/4.1.2/../../../../nios2-elf/lib\libc.a(lib_a-callocr.o)
 .debug_ranges  0x000006a0      0x188 c:/logicielge1/altera/13.0sp1/nios2eds/bin/gnu/h-i686-mingw32/bin/../lib/gcc/nios2-elf/4.1.2\libgcc.a(_udivdi3.o)
 .debug_ranges  0x00000828      0x198 c:/logicielge1/altera/13.0sp1/nios2eds/bin/gnu/h-i686-mingw32/bin/../lib/gcc/nios2-elf/4.1.2\libgcc.a(_umoddi3.o)
 .debug_ranges  0x000009c0       0x30 c:/logicielge1/altera/13.0sp1/nios2eds/bin/gnu/h-i686-mingw32/bin/../lib/gcc/nios2-elf/4.1.2\libgcc.a(_addsub_df.o)
 .debug_ranges  0x000009f0       0x88 c:/logicielge1/altera/13.0sp1/nios2eds/bin/gnu/h-i686-mingw32/bin/../lib/gcc/nios2-elf/4.1.2\libgcc.a(_mul_df.o)
 .debug_ranges  0x00000a78       0x50 c:/logicielge1/altera/13.0sp1/nios2eds/bin/gnu/h-i686-mingw32/bin/../lib/gcc/nios2-elf/4.1.2\libgcc.a(_div_df.o)
 .debug_ranges  0x00000ac8       0x18 c:/logicielge1/altera/13.0sp1/nios2eds/bin/gnu/h-i686-mingw32/bin/../lib/gcc/nios2-elf/4.1.2\libgcc.a(_usi_to_df.o)
 .debug_ranges  0x00000ae0       0x68 c:/logicielge1/altera/13.0sp1/nios2eds/bin/gnu/h-i686-mingw32/bin/../lib/gcc/nios2-elf/4.1.2\libgcc.a(_muldi3.o)
 .debug_ranges  0x00000b48       0x28 c:/logicielge1/altera/13.0sp1/nios2eds/bin/gnu/h-i686-mingw32/bin/../lib/gcc/nios2-elf/4.1.2\libgcc.a(_clzsi2.o)
 .debug_ranges  0x00000b70       0x28 c:/logicielge1/altera/13.0sp1/nios2eds/bin/gnu/h-i686-mingw32/bin/../lib/gcc/nios2-elf/4.1.2\libgcc.a(_pack_df.o)
 .debug_ranges  0x00000b98       0x28 ../cmv_controller_bsp/\libhal_bsp.a(alt_irq_entry.o)
 .debug_ranges  0x00000bc0       0x30 ../cmv_controller_bsp/\libhal_bsp.a(alt_exception_entry.o)
 .debug_ranges  0x00000bf0       0x18 c:/logicielge1/altera/13.0sp1/nios2eds/bin/gnu/h-i686-mingw32/bin/../lib/gcc/nios2-elf/4.1.2/../../../../nios2-elf/lib\libc.a(lib_a-__call_atexit.o)
