
cmv_controller.elf:     file format elf32-littlenios2
cmv_controller.elf
architecture: nios2, flags 0x00000112:
EXEC_P, HAS_SYMS, D_PAGED
start address 0x00800194

Program Header:
    LOAD off    0x00001020 vaddr 0x01004020 paddr 0x00800000 align 2**12
         filesz 0x00000194 memsz 0x00000194 flags r-x
    LOAD off    0x00002194 vaddr 0x00800194 paddr 0x00800194 align 2**12
         filesz 0x0005b118 memsz 0x0005b118 flags r-x
    LOAD off    0x0005d2ac vaddr 0x0085b2ac paddr 0x0085d184 align 2**12
         filesz 0x00001ed8 memsz 0x00001ed8 flags rw-
    LOAD off    0x0006005c vaddr 0x0085f05c paddr 0x0085f05c align 2**12
         filesz 0x00000000 memsz 0x000015fc flags rw-
    LOAD off    0x00060000 vaddr 0x01004000 paddr 0x01004000 align 2**12
         filesz 0x00000020 memsz 0x00000020 flags r-x

Sections:
Idx Name          Size      VMA       LMA       File off  Algn
  0 .entry        00000020  01004000  01004000  00060000  2**5
                  CONTENTS, ALLOC, LOAD, READONLY, CODE
  1 .exceptions   00000194  01004020  00800000  00001020  2**2
                  CONTENTS, ALLOC, LOAD, READONLY, CODE
  2 .text         00058918  00800194  00800194  00002194  2**2
                  CONTENTS, ALLOC, LOAD, READONLY, CODE
  3 .rodata       00002800  00858aac  00858aac  0005aaac  2**2
                  CONTENTS, ALLOC, LOAD, READONLY, DATA
  4 .rwdata       00001ed8  0085b2ac  0085d184  0005d2ac  2**2
                  CONTENTS, ALLOC, LOAD, DATA, SMALL_DATA
  5 .bss          000015fc  0085f05c  0085f05c  0006005c  2**2
                  ALLOC, SMALL_DATA
  6 .comment      00000026  00000000  00000000  00060020  2**0
                  CONTENTS, READONLY
  7 .debug_aranges 000036c8  00000000  00000000  00060048  2**3
                  CONTENTS, READONLY, DEBUGGING
  8 .debug_pubnames 000139c2  00000000  00000000  00063710  2**0
                  CONTENTS, READONLY, DEBUGGING
  9 .debug_info   00151f86  00000000  00000000  000770d2  2**0
                  CONTENTS, READONLY, DEBUGGING
 10 .debug_abbrev 00023056  00000000  00000000  001c9058  2**0
                  CONTENTS, READONLY, DEBUGGING
 11 .debug_line   000690b9  00000000  00000000  001ec0ae  2**0
                  CONTENTS, READONLY, DEBUGGING
 12 .debug_frame  0000a2ac  00000000  00000000  00255168  2**2
                  CONTENTS, READONLY, DEBUGGING
 13 .debug_str    0001c1af  00000000  00000000  0025f414  2**0
                  CONTENTS, READONLY, DEBUGGING
 14 .debug_loc    00041f76  00000000  00000000  0027b5c3  2**0
                  CONTENTS, READONLY, DEBUGGING
 15 .debug_alt_sim_info 00000060  00000000  00000000  002bd53c  2**2
                  CONTENTS, READONLY, DEBUGGING
 16 .debug_ranges 0001a8d8  00000000  00000000  002bd5a0  2**3
                  CONTENTS, READONLY, DEBUGGING
 17 .thread_model 00000003  00000000  00000000  002f294a  2**0
                  CONTENTS, READONLY
 18 .cpu          00000003  00000000  00000000  002f294d  2**0
                  CONTENTS, READONLY
 19 .qsys         00000001  00000000  00000000  002f2950  2**0
                  CONTENTS, READONLY
 20 .simulation_enabled 00000001  00000000  00000000  002f2951  2**0
                  CONTENTS, READONLY
 21 .sysid_hash   00000004  00000000  00000000  002f2952  2**0
                  CONTENTS, READONLY
 22 .sysid_base   00000004  00000000  00000000  002f2956  2**0
                  CONTENTS, READONLY
 23 .sysid_time   00000004  00000000  00000000  002f295a  2**0
                  CONTENTS, READONLY
 24 .stderr_dev   00000009  00000000  00000000  002f295e  2**0
                  CONTENTS, READONLY
 25 .stdin_dev    00000009  00000000  00000000  002f2967  2**0
                  CONTENTS, READONLY
 26 .stdout_dev   00000009  00000000  00000000  002f2970  2**0
                  CONTENTS, READONLY
 27 .sopc_system_name 00000004  00000000  00000000  002f2979  2**0
                  CONTENTS, READONLY
 28 .quartus_project_dir 00000053  00000000  00000000  002f297d  2**0
                  CONTENTS, READONLY
 29 .sopcinfo     0004c3f7  00000000  00000000  002f29d0  2**0
                  CONTENTS, READONLY
SYMBOL TABLE:
01004000 l    d  .entry	00000000 .entry
01004020 l    d  .exceptions	00000000 .exceptions
00800194 l    d  .text	00000000 .text
00858aac l    d  .rodata	00000000 .rodata
0085b2ac l    d  .rwdata	00000000 .rwdata
0085f05c l    d  .bss	00000000 .bss
00000000 l    d  .comment	00000000 .comment
00000000 l    d  .debug_aranges	00000000 .debug_aranges
00000000 l    d  .debug_pubnames	00000000 .debug_pubnames
00000000 l    d  .debug_info	00000000 .debug_info
00000000 l    d  .debug_abbrev	00000000 .debug_abbrev
00000000 l    d  .debug_line	00000000 .debug_line
00000000 l    d  .debug_frame	00000000 .debug_frame
00000000 l    d  .debug_str	00000000 .debug_str
00000000 l    d  .debug_loc	00000000 .debug_loc
00000000 l    d  .debug_alt_sim_info	00000000 .debug_alt_sim_info
00000000 l    d  .debug_ranges	00000000 .debug_ranges
008001dc l       .text	00000000 alt_after_alt_main
00000000 l    df *ABS*	00000000 alt_irq_handler.c
00000000 l    df *ABS*	00000000 FSM.cpp
00800658 l     F .text	00000030 _GLOBAL__I__ZN3FSMC2Ev
00800628 l     F .text	00000030 _GLOBAL__D__ZN3FSMC2Ev
008005bc l     F .text	0000006c _Z41__static_initialization_and_destruction_0ii
0085f05c l     O .bss	00000001 _ZSt8__ioinit
00000000 l    df *ABS*	00000000 PIO.cpp
00000000 l    df *ABS*	00000000 PIO_Bus.cpp
00000000 l    df *ABS*	00000000 PIO_LVDS.cpp
0080180c l     F .text	00000030 _GLOBAL__I__ZN8PIO_LVDSC2EmhN3PIO4ModeE
008017dc l     F .text	00000030 _GLOBAL__D__ZN8PIO_LVDSC2EmhN3PIO4ModeE
00801770 l     F .text	0000006c _Z41__static_initialization_and_destruction_0ii
0085f060 l     O .bss	00000001 _ZSt8__ioinit
0080183c l     F .text	0000003c _Z6pio_itPv
0085f064 l     O .bss	00000004 edge_capture_pio
00000000 l    df *ABS*	00000000 PIO_Pin.cpp
00000000 l    df *ABS*	00000000 SPI.cpp
00000000 l    df *ABS*	00000000 UART.cpp
008020d4 l     F .text	00000030 _GLOBAL__I__ZN4UARTC2Emmj
008020a4 l     F .text	00000030 _GLOBAL__D__ZN4UARTC2Emmj
00802038 l     F .text	0000006c _Z41__static_initialization_and_destruction_0ii
0085f068 l     O .bss	00000001 _ZSt8__ioinit
008022f0 l     F .text	00000060 _Z23_UART_receive_interruptPv
00000000 l    df *ABS*	00000000 main.cpp
00000000 l    df *ABS*	00000000 EscapeSequences.cpp
00000000 l    df *ABS*	00000000 ios_init.cc
00000000 l    df *ABS*	00000000 locale.cc
00000000 l    df *ABS*	00000000 locale_init.cc
00000000 l    df *ABS*	00000000 ext-inst.cc
00000000 l    df *ABS*	00000000 ios-inst.cc
00000000 l    df *ABS*	00000000 istream-inst.cc
0080841c l     F .text	00000030 .LTHUNK0
0080869c l     F .text	00000050 .LTHUNK1
00000000 l    df *ABS*	00000000 istream.cc
00000000 l    df *ABS*	00000000 locale-inst.cc
0080e584 l     F .text	0000000c _GLOBAL__I_.._.._.._.._src_gcc_4.1_libstdc___v3_src_locale_inst.cc_6FCA3617_7704438B
0080e04c l     F .text	000000f4 _ZSt17__verify_groupingPKcmRKSs
0080e140 l     F .text	00000444 _Z41__static_initialization_and_destruction_0ii
00000000 l    df *ABS*	00000000 locale-misc-inst.cc
00000000 l    df *ABS*	00000000 misc-inst.cc
00000000 l    df *ABS*	00000000 ostream-inst.cc
0082ce38 l     F .text	0000002c .LTHUNK0
0082ce90 l     F .text	0000004c .LTHUNK1
00000000 l    df *ABS*	00000000 streambuf-inst.cc
00000000 l    df *ABS*	00000000 streambuf.cc
00000000 l    df *ABS*	00000000 string-inst.cc
00000000 l    df *ABS*	00000000 atomicity.cc
00000000 l    df *ABS*	00000000 collate_members.cc
00000000 l    df *ABS*	00000000 messages_members.cc
00000000 l    df *ABS*	00000000 monetary_members.cc
00000000 l    df *ABS*	00000000 numeric_members.cc
00000000 l    df *ABS*	00000000 time_members.cc
00000000 l    df *ABS*	00000000 basic_file.cc
008364c4 l     F .text	00000180 _ZN14__gnu_internal10fopen_modeESt13_Ios_Openmode
0083670c l     F .text	00000090 _ZN14__gnu_internal6xwriteEiPKcl
00000000 l    df *ABS*	00000000 c++locale.cc
00859d64 l     O .rodata	00000018 _ZN9__gnu_cxx14category_namesE
00000000 l    df *ABS*	00000000 eh_throw.cc
00836f6c l     F .text	00000060 _Z23__gxx_exception_cleanup19_Unwind_Reason_CodeP17_Unwind_Exception
00000000 l    df *ABS*	00000000 vmi_class_type_info.cc
00000000 l    df *ABS*	00000000 eh_term_handler.cc
00000000 l    df *ABS*	00000000 new_opv.cc
00000000 l    df *ABS*	00000000 eh_catch.cc
00000000 l    df *ABS*	00000000 del_op.cc
00000000 l    df *ABS*	00000000 del_opv.cc
00000000 l    df *ABS*	00000000 eh_unex_handler.cc
00000000 l    df *ABS*	00000000 tinfo.cc
00000000 l    df *ABS*	00000000 eh_personality.cc
00837b08 l     F .text	00000030 _Z12read_uleb128PKhPj
00837b38 l     F .text	00000054 _Z12read_sleb128PKhPi
00837b8c l     F .text	0000009c _Z16get_adjusted_ptrPKSt9type_infoS1_PPv
00837c28 l     F .text	000001d4 _Z28read_encoded_value_with_basehjPKhPj
00837dfc l     F .text	00000090 _Z21base_of_encoded_valuehP15_Unwind_Context
00837e8c l     F .text	00000100 _Z17parse_lsda_headerP15_Unwind_ContextPKhP16lsda_header_info
00837f8c l     F .text	00000084 _Z15get_ttype_entryP16lsda_header_infoj
00838010 l     F .text	00000084 _Z20check_exception_specP16lsda_header_infoPKSt9type_infoPvi
00000000 l    df *ABS*	00000000 class_type_info.cc
00000000 l    df *ABS*	00000000 si_class_type_info.cc
00000000 l    df *ABS*	00000000 pure.cc
00000000 l    df *ABS*	00000000 eh_globals.cc
0085f110 l     O .bss	00000008 eh_globals
00000000 l    df *ABS*	00000000 eh_terminate.cc
00000000 l    df *ABS*	00000000 new_op.cc
00000000 l    df *ABS*	00000000 eh_call.cc
00000000 l    df *ABS*	00000000 eh_exception.cc
00000000 l    df *ABS*	00000000 fundamental_type_info.cc
00000000 l    df *ABS*	00000000 new_handler.cc
00000000 l    df *ABS*	00000000 eh_alloc.cc
0085f1b8 l     O .bss	00000800 emergency_buffer
0085f11c l     O .bss	00000004 emergency_used
00000000 l    df *ABS*	00000000 codecvt.cc
00839050 l     F .text	0000000c _GLOBAL__I__ZNSt7codecvtIcc10_mbstate_tE2idE
0083904c l     F .text	00000004 _Z41__static_initialization_and_destruction_0ii
00000000 l    df *ABS*	00000000 compatibility.cc
00000000 l    df *ABS*	00000000 ctype.cc
00839b24 l     F .text	0000000c _GLOBAL__I__ZNSt10ctype_base5spaceE
00839b20 l     F .text	00000004 _Z41__static_initialization_and_destruction_0ii
00000000 l    df *ABS*	00000000 functexcept.cc
00000000 l    df *ABS*	00000000 globals_locale.cc
00000000 l    df *ABS*	00000000 globals_io.cc
00000000 l    df *ABS*	00000000 ios.cc
0085f160 l     O .bss	00000004 _ZZNSt8ios_base6xallocEvE6_S_top
00000000 l    df *ABS*	00000000 ios_failure.cc
00000000 l    df *ABS*	00000000 ios_locale.cc
00000000 l    df *ABS*	00000000 locale_facets.cc
00000000 l    df *ABS*	00000000 stdexcept.cc
00000000 l    df *ABS*	00000000 fstream-inst.cc
00840034 l     F .text	00000130 .LTHUNK0
008402f8 l     F .text	00000128 .LTHUNK1
00840bac l     F .text	00000130 .LTHUNK2
00840fb0 l     F .text	00000138 .LTHUNK3
00841100 l     F .text	000001c0 .LTHUNK4
00841100 l     F .text	000001c0 .LTHUNK5
008412d8 l     F .text	000001b8 .LTHUNK6
008412d8 l     F .text	000001b8 .LTHUNK7
00000000 l    df *ABS*	00000000 iostream-inst.cc
00841ce8 l     F .text	0000000c _GLOBAL__I_.._.._.._.._src_gcc_4.1_libstdc___v3_src_iostream_inst.cc_1FD5A050_E79543DC
00841cdc l     F .text	0000000c _GLOBAL__D_.._.._.._.._src_gcc_4.1_libstdc___v3_src_iostream_inst.cc_1FD5A050_E79543DC
00841cac l     F .text	00000030 _Z41__static_initialization_and_destruction_0ii
0085f164 l     O .bss	00000001 _ZSt8__ioinit
00841d14 l     F .text	00000084 .LTHUNK0
00841d14 l     F .text	00000084 .LTHUNK1
008421d8 l     F .text	00000094 .LTHUNK2
008421d8 l     F .text	00000094 .LTHUNK3
00000000 l    df *ABS*	00000000 bad_typeid.cc
00000000 l    df *ABS*	00000000 pointer_type_info.cc
00000000 l    df *ABS*	00000000 bad_cast.cc
00000000 l    df *ABS*	00000000 pbase_type_info.cc
00000000 l    df *ABS*	00000000 libgcc2.c
00000000 l    df *ABS*	00000000 libgcc2.c
00000000 l    df *ABS*	00000000 libgcc2.c
00000000 l    df *ABS*	00000000 fp-bit.c
00000000 l    df *ABS*	00000000 dp-bit.c
00000000 l    df *ABS*	00000000 lib2-divmod.c
00843288 l     F .text	0000007c udivmodsi4
00000000 l    df *ABS*	00000000 unwind-sjlj.c
0085f168 l     O .bss	00000004 fc_static
00843494 l     F .text	00000100 _Unwind_ForcedUnwind_Phase2
008435ac l     F .text	000000cc _Unwind_RaiseException_Phase2
00843678 l     F .text	00000028 uw_install_context
00000000 l    df *ABS*	00000000 libgcc2.c
00000000 l    df *ABS*	00000000 fp-bit.c
00000000 l    df *ABS*	00000000 dp-bit.c
00000000 l    df *ABS*	00000000 abort.c
00000000 l    df *ABS*	00000000 ctype_.c
0085ad61 l     O .rodata	00000180 _ctype_b
00000000 l    df *ABS*	00000000 errno.c
00000000 l    df *ABS*	00000000 fclose.c
00000000 l    df *ABS*	00000000 fdopen.c
00000000 l    df *ABS*	00000000 fflush.c
00000000 l    df *ABS*	00000000 fileno.c
00000000 l    df *ABS*	00000000 findfp.c
00844188 l     F .text	00000058 std
00844294 l     F .text	00000008 __fp_lock
0084429c l     F .text	00000008 __fp_unlock
00000000 l    df *ABS*	00000000 flags.c
00000000 l    df *ABS*	00000000 fopen.c
00000000 l    df *ABS*	00000000 fread.c
00000000 l    df *ABS*	00000000 mallocr.c
00000000 l    df *ABS*	00000000 fseek.c
00000000 l    df *ABS*	00000000 fstatr.c
00000000 l    df *ABS*	00000000 ftell.c
00000000 l    df *ABS*	00000000 fwalk.c
00000000 l    df *ABS*	00000000 fwrite.c
00000000 l    df *ABS*	00000000 getc.c
00000000 l    df *ABS*	00000000 impure.c
0085b2e4 l     O .rwdata	00000400 impure_data
00000000 l    df *ABS*	00000000 int_errno.c
00000000 l    df *ABS*	00000000 locale.c
0085d148 l     O .rwdata	00000004 charset
0085aef4 l     O .rodata	00000030 lconv
00000000 l    df *ABS*	00000000 makebuf.c
00000000 l    df *ABS*	00000000 malloc.c
00000000 l    df *ABS*	00000000 mallocr.c
00000000 l    df *ABS*	00000000 memchr.c
00000000 l    df *ABS*	00000000 memcmp.c
00000000 l    df *ABS*	00000000 memcpy.c
00000000 l    df *ABS*	00000000 memmove.c
00000000 l    df *ABS*	00000000 memset.c
00000000 l    df *ABS*	00000000 openr.c
00000000 l    df *ABS*	00000000 printf.c
00000000 l    df *ABS*	00000000 putc.c
00000000 l    df *ABS*	00000000 refill.c
008467a8 l     F .text	0000001c lflush
00000000 l    df *ABS*	00000000 rget.c
00000000 l    df *ABS*	00000000 sbrkr.c
00000000 l    df *ABS*	00000000 setvbuf.c
00000000 l    df *ABS*	00000000 signal.c
00000000 l    df *ABS*	00000000 signalr.c
00000000 l    df *ABS*	00000000 sprintf.c
00000000 l    df *ABS*	00000000 sscanf.c
00846e88 l     F .text	00000008 eofread
00000000 l    df *ABS*	00000000 stdio.c
00000000 l    df *ABS*	00000000 strcmp.c
00000000 l    df *ABS*	00000000 strcoll.c
00000000 l    df *ABS*	00000000 strcpy.c
00000000 l    df *ABS*	00000000 strdup.c
00000000 l    df *ABS*	00000000 strdup_r.c
00000000 l    df *ABS*	00000000 strftime.c
008472b0 l     F .text	0000018c iso_year_adjust
0085afd0 l     O .rodata	0000001c dname_len
0085afb4 l     O .rodata	0000001c dname
0085b01c l     O .rodata	00000030 mname_len
0085afec l     O .rodata	00000030 mname
00000000 l    df *ABS*	00000000 strlen.c
00000000 l    df *ABS*	00000000 strtod.c
0084836c l     F .text	00000048 match
0085bb0c l     O .rwdata	00000014 fpi.1950
0085b05c l     O .rodata	00000028 tinytens
0085baf8 l     O .rwdata	00000014 fpinan.1986
00000000 l    df *ABS*	00000000 strxfrm.c
00000000 l    df *ABS*	00000000 tzlock.c
00000000 l    df *ABS*	00000000 tzvars.c
00000000 l    df *ABS*	00000000 ungetc.c
00000000 l    df *ABS*	00000000 vfprintf.c
00849cdc l     F .text	00000058 __sprint_r
0085b0de l     O .rodata	00000010 blanks.3452
0085b0ce l     O .rodata	00000010 zeroes.3453
00000000 l    df *ABS*	00000000 vfscanf.c
0085b0f6 l     O .rodata	00000022 basefix.3357
00000000 l    df *ABS*	00000000 vsnprintf.c
00000000 l    df *ABS*	00000000 wbuf.c
00000000 l    df *ABS*	00000000 writer.c
00000000 l    df *ABS*	00000000 wsetup.c
00000000 l    df *ABS*	00000000 abs.c
00000000 l    df *ABS*	00000000 closer.c
00000000 l    df *ABS*	00000000 dtoa.c
0084d800 l     F .text	00000218 quorem
00000000 l    df *ABS*	00000000 fvwrite.c
00000000 l    df *ABS*	00000000 gdtoa-gethex.c
0084f468 l     F .text	00000024 htinit
0084f4f4 l     F .text	000000b0 rshift
00000000 l    df *ABS*	00000000 gdtoa-hexnan.c
0084fd5c l     F .text	0000004c L_shift
00000000 l    df *ABS*	00000000 gettzinfo.c
0085bb20 l     O .rwdata	00000040 tzinfo
00000000 l    df *ABS*	00000000 isattyr.c
00000000 l    df *ABS*	00000000 iswspace.c
00000000 l    df *ABS*	00000000 labs.c
00000000 l    df *ABS*	00000000 lseekr.c
00000000 l    df *ABS*	00000000 mbrtowc.c
00000000 l    df *ABS*	00000000 mbtowc_r.c
00000000 l    df *ABS*	00000000 mprec.c
0085b254 l     O .rodata	0000000c p05.2458
00000000 l    df *ABS*	00000000 readr.c
00000000 l    df *ABS*	00000000 mallocr.c
00000000 l    df *ABS*	00000000 s_isinfd.c
00000000 l    df *ABS*	00000000 s_isnand.c
00000000 l    df *ABS*	00000000 sccl.c
00000000 l    df *ABS*	00000000 sf_nan.c
00000000 l    df *ABS*	00000000 snprintf.c
00000000 l    df *ABS*	00000000 strtol.c
00000000 l    df *ABS*	00000000 strtoll_r.c
00000000 l    df *ABS*	00000000 strtoul.c
00000000 l    df *ABS*	00000000 strtoull_r.c
00000000 l    df *ABS*	00000000 mallocr.c
00000000 l    df *ABS*	00000000 libgcc2.c
00000000 l    df *ABS*	00000000 fp-bit.c
00000000 l    df *ABS*	00000000 fp-bit.c
00000000 l    df *ABS*	00000000 fp-bit.c
00000000 l    df *ABS*	00000000 dp-bit.c
008528b4 l     F .text	00000410 _fpadd_parts
00000000 l    df *ABS*	00000000 dp-bit.c
00000000 l    df *ABS*	00000000 dp-bit.c
00000000 l    df *ABS*	00000000 dp-bit.c
00000000 l    df *ABS*	00000000 dp-bit.c
00000000 l    df *ABS*	00000000 dp-bit.c
00000000 l    df *ABS*	00000000 dp-bit.c
00000000 l    df *ABS*	00000000 dp-bit.c
00000000 l    df *ABS*	00000000 dp-bit.c
00000000 l    df *ABS*	00000000 dp-bit.c
00000000 l    df *ABS*	00000000 dp-bit.c
00000000 l    df *ABS*	00000000 dp-bit.c
00000000 l    df *ABS*	00000000 dp-bit.c
00000000 l    df *ABS*	00000000 dp-bit.c
00000000 l    df *ABS*	00000000 libgcc2.c
00000000 l    df *ABS*	00000000 fp-bit.c
00000000 l    df *ABS*	00000000 fp-bit.c
00000000 l    df *ABS*	00000000 dp-bit.c
00000000 l    df *ABS*	00000000 dp-bit.c
00000000 l    df *ABS*	00000000 fp-bit.c
00000000 l    df *ABS*	00000000 alt_close.c
0085408c l     F .text	00000060 alt_get_errno
00000000 l    df *ABS*	00000000 alt_dev.c
008540ec l     F .text	0000002c alt_dev_null_write
00000000 l    df *ABS*	00000000 alt_errno.c
00000000 l    df *ABS*	00000000 alt_exit.c
00854118 l     F .text	00000040 alt_sim_halt
00000000 l    df *ABS*	00000000 alt_fstat.c
0085424c l     F .text	00000060 alt_get_errno
00000000 l    df *ABS*	00000000 alt_getpid.c
00000000 l    df *ABS*	00000000 alt_irq_register.c
00000000 l    df *ABS*	00000000 alt_irq_vars.c
00000000 l    df *ABS*	00000000 alt_isatty.c
0085454c l     F .text	00000060 alt_get_errno
00000000 l    df *ABS*	00000000 alt_kill.c
008546ec l     F .text	00000060 alt_get_errno
00000000 l    df *ABS*	00000000 alt_load.c
008547cc l     F .text	0000006c alt_load_section
00000000 l    df *ABS*	00000000 alt_lseek.c
00854928 l     F .text	00000060 alt_get_errno
00000000 l    df *ABS*	00000000 alt_main.c
00000000 l    df *ABS*	00000000 alt_malloc_lock.c
00000000 l    df *ABS*	00000000 alt_open.c
00854a34 l     F .text	000000dc alt_file_locked
00854c98 l     F .text	00000060 alt_get_errno
00000000 l    df *ABS*	00000000 alt_read.c
00854e18 l     F .text	00000060 alt_get_errno
00000000 l    df *ABS*	00000000 alt_release_fd.c
00000000 l    df *ABS*	00000000 alt_sbrk.c
0085d178 l     O .rwdata	00000004 heap_end
00000000 l    df *ABS*	00000000 alt_usleep.c
00000000 l    df *ABS*	00000000 alt_write.c
008550e4 l     F .text	00000060 alt_get_errno
00000000 l    df *ABS*	00000000 alt_sys_init.c
0085bd08 l     O .rwdata	00001060 jtag_uart
0085cd68 l     O .rwdata	000000c4 uart
008551dc l     F .text	00000038 alt_dev_reg
00000000 l    df *ABS*	00000000 altera_avalon_jtag_uart_fd.c
00000000 l    df *ABS*	00000000 altera_avalon_jtag_uart_init.c
0085541c l     F .text	00000228 altera_avalon_jtag_uart_irq
00855644 l     F .text	000000b0 altera_avalon_jtag_uart_timeout
00000000 l    df *ABS*	00000000 altera_avalon_jtag_uart_ioctl.c
00000000 l    df *ABS*	00000000 altera_avalon_jtag_uart_read.c
00000000 l    df *ABS*	00000000 altera_avalon_jtag_uart_write.c
00000000 l    df *ABS*	00000000 altera_avalon_spi.c
00000000 l    df *ABS*	00000000 altera_avalon_uart_fd.c
00000000 l    df *ABS*	00000000 altera_avalon_uart_init.c
008560b8 l     F .text	0000009c altera_avalon_uart_irq
00856154 l     F .text	000000e0 altera_avalon_uart_rxirq
00856234 l     F .text	0000015c altera_avalon_uart_txirq
00000000 l    df *ABS*	00000000 altera_avalon_uart_read.c
00856620 l     F .text	00000060 alt_get_errno
00000000 l    df *ABS*	00000000 altera_avalon_uart_write.c
00856848 l     F .text	00000060 alt_get_errno
00000000 l    df *ABS*	00000000 alt_alarm_start.c
00000000 l    df *ABS*	00000000 alt_busy_sleep.c
00000000 l    df *ABS*	00000000 alt_dcache_flush_all.c
00000000 l    df *ABS*	00000000 alt_dev_llist_insert.c
00856c40 l     F .text	00000060 alt_get_errno
00000000 l    df *ABS*	00000000 alt_do_ctors.c
00000000 l    df *ABS*	00000000 alt_do_dtors.c
00000000 l    df *ABS*	00000000 alt_find_dev.c
00000000 l    df *ABS*	00000000 alt_find_file.c
00000000 l    df *ABS*	00000000 alt_get_fd.c
00000000 l    df *ABS*	00000000 alt_icache_flush_all.c
00000000 l    df *ABS*	00000000 alt_iic.c
00000000 l    df *ABS*	00000000 alt_iic_isr_register.c
00000000 l    df *ABS*	00000000 alt_io_redirect.c
008572d0 l     F .text	000000c4 alt_open_fd
00000000 l    df *ABS*	00000000 alt_tick.c
00000000 l    df *ABS*	00000000 altera_nios2_qsys_irq.c
00000000 l    df *ABS*	00000000 alt_icache_flush.c
00000000 l    df *ABS*	00000000 atexit.c
00000000 l    df *ABS*	00000000 exit.c
00000000 l    df *ABS*	00000000 __atexit.c
00000000 l    df *ABS*	00000000 __call_atexit.c
008577e0 l     F .text	00000004 register_fini
0082e174  w    F .text	000002c4 _ZNSo5writeEPKcl
0085d092 g     O .rwdata	00000001 _ZNSt10ctype_base5digitE
00834a8c  w    F .text	0000005c _ZNSs2atEm
00838e40 g     F .text	00000040 __cxa_free_exception
0080b2c8  w    F .text	000001f0 _ZNSirsERf
00833428  w    F .text	00000034 _ZNSsC1IN9__gnu_cxx17__normal_iteratorIPcSsEEEET_S4_RKSaIcE
0083f468  w    F .text	000000a8 _ZNSt13basic_fstreamIcSt11char_traitsIcEE7is_openEv
0080bc78  w    F .text	000001f0 _ZNSirsERj
0080db90 g     F .text	000004bc _ZStrsIcSt11char_traitsIcEERSt13basic_istreamIT_T0_ES6_PS3_
00837ab8 g     F .text	00000008 _ZNKSt9type_info15__is_function_pEv
00850634 g     F .text	00000094 _mprec_log10
00859920  w    O .rodata	00000040 _ZTVN9__gnu_cxx18stdio_sync_filebufIcSt11char_traitsIcEEE
00838b9c g     F .text	00000018 _ZSt10unexpectedv
00803b48 g     F .text	00000008 _ZNSt6localeC2EPNS_5_ImplE
0085a84c  w    O .rodata	00000010 _ZTTSt14basic_ifstreamIcSt11char_traitsIcEE
0082e7ac  w    F .text	000002e0 _ZNSolsEPSt15basic_streambufIcSt11char_traitsIcEE
0083a088 g     F .text	00000034 _ZSt18__throw_bad_typeidv
0085cfa4  w    O .rwdata	00000008 _ZTIw
00850720 g     F .text	00000088 __any_on
0080f450  w    F .text	00000040 _ZNKSt11__timepunctIcE7_M_daysEPPKc
0084fffc g     F .text	00000070 _isatty_r
0085b22c g     O .rodata	00000028 __mprec_tinytens
0083c35c g     F .text	00000030 _ZNSt14overflow_errorC1ERKSs
0080ef60  w    F .text	00000044 _ZNKSt7num_getIcSt19istreambuf_iteratorIcSt11char_traitsIcEEE3getES3_S3_RSt8ios_baseRSt12_Ios_IostateRb
0085cf9c  w    O .rwdata	00000008 _ZTIc
00854988 g     F .text	0000006c alt_main
008471a8 g     F .text	0000008c strcpy
0080796c  w    F .text	0000004c _ZNSt9basic_iosIcSt11char_traitsIcEEC2Ev
0080059c g     F .text	00000020 _ZN3FSM10_spi_writeEv
0080f61c  w    F .text	00000044 _ZNKSt8time_getIcSt19istreambuf_iteratorIcSt11char_traitsIcEEE8get_timeES3_S3_RSt8ios_baseRSt12_Ios_IostateP2tm
00832f4c  w    F .text	00000040 _ZNKSs6substrEmm
00827e50  w    F .text	00000028 _ZNKSt7num_putIcSt19ostreambuf_iteratorIcSt11char_traitsIcEEE6do_putES3_RSt8ios_basecm
0085cece  w    O .rwdata	00000001 _ZNSt17moneypunct_bynameIcLb0EE4intlE
0085f14c g     O .bss	00000008 _ZN14__gnu_internal10time_get_cE
0085a9ec  w    O .rodata	00000028 _ZTCSd0_Si
0080f5f8  w    F .text	00000018 _ZNSt8time_getIcSt19istreambuf_iteratorIcSt11char_traitsIcEEEC2Em
008603c8 g     O .bss	00000100 alt_irq
0085cf94  w    O .rwdata	00000008 _ZTIa
0085cf0c  w    O .rwdata	00000004 _ZNSs4nposE
0080f9a8  w    F .text	00000030 _ZNKSt5ctypeIcE8do_widenEPKcS2_Pc
008500b0 g     F .text	00000078 _lseek_r
00830e30  w    F .text	0000000c _ZNSt15basic_streambufIcSt11char_traitsIcEE5sputnEPKcl
0085f0a4  w    O .bss	00000004 _ZNSt8messagesIcE2idE
008119fc  w    F .text	00000068 _ZNSt16__numpunct_cacheIcED2Ev
008078c8  w    F .text	00000058 _ZNSt9basic_iosIcSt11char_traitsIcEE4initEPSt15basic_streambufIcS1_E
00843444 g     F .text	00000014 _Unwind_GetIPInfo
00858d00  w    O .rodata	00000012 _ZTSNSt6locale5facetE
008368a8 g     F .text	0000008c _ZNSt12__basic_fileIcE7seekoffExSt12_Ios_Seekdir
00839d68 g     F .text	00000090 _ZNSt5ctypeIcEC2EPKcbm
0085d184 g       *ABS*	00000000 __flash_rwdata_start
0082d980  w    F .text	00000414 _ZStlsISt11char_traitsIcEERSt13basic_ostreamIcT_ES5_PKc
00839cd8 g     F .text	00000090 _ZNSt5ctypeIcEC1EPKcbm
0085902c  w    O .rodata	0000001c _ZTVSt15messages_bynameIcE
00844448 g     F .text	000000a0 __sflags
008068f8 g     F .text	00000018 _ZNSt6locale13_S_initializeEv
008533d4 g     F .text	00000088 __eqdf2
00859fcc  w    O .rodata	00000010 _ZTIPy
00809200  w    F .text	00000004 _ZStrsISt11char_traitsIcEERSt13basic_istreamIcT_ES5_Rh
0085d054  w    O .rwdata	00000002 _ZTSa
0085a994  w    O .rodata	0000003c _ZTVSd
0083f3c0  w    F .text	000000a8 _ZNKSt13basic_fstreamIcSt11char_traitsIcEE7is_openEv
008152d8  w    F .text	00000180 _ZNSt17moneypunct_bynameIcLb1EEC2EPKcm
00836e84 g     F .text	00000074 __cxa_rethrow
00830e3c  w    F .text	00000008 _ZNKSt15basic_streambufIcSt11char_traitsIcEE5ebackEv
00859348  w    O .rodata	00000020 _ZTISt21__ctype_abstract_baseIcE
008433e4 g     F .text	0000000c _Unwind_SjLj_Unregister
008325d0  w    F .text	00000018 _ZNKSs6rbeginEv
008357e8 g     F .text	000000c8 _ZNSt10moneypunctIcLb0EED2Ev
00838abc g     F .text	00000014 _ZSt14set_unexpectedPFvvE
0080e8c8  w    F .text	00000040 _ZNKSt10moneypunctIcLb0EE13do_neg_formatEv
00802a30  w    F .text	00000088 _ZN4FIFOIcE4pushEc
008412c0  w    F .text	00000010 _ZTv0_n12_NSt13basic_fstreamIcSt11char_traitsIcEED1Ev
00833340  w    F .text	000000b4 _ZNSs12_S_constructIN9__gnu_cxx17__normal_iteratorIPcSsEEEES2_T_S4_RKSaIcESt20forward_iterator_tag
00840024  w    F .text	00000010 _ZTv0_n12_NSt14basic_ofstreamIcSt11char_traitsIcEED0Ev
0085a05c  w    O .rodata	00000010 _ZTIPKi
008330ac  w    F .text	00000020 _ZNSs13_S_copy_charsEPcN9__gnu_cxx17__normal_iteratorIS_SsEES2_
008354bc  w    F .text	00000024 _ZNSs7replaceEmmRKSs
00843434 g     F .text	00000010 _Unwind_GetIP
008006e0 g     F .text	00000058 _ZN3FSMD1Ev
00836bcc g     F .text	00000008 _ZNSt6locale5facet17_S_clone_c_localeERPi
00860658 g       *ABS*	00000000 __alt_heap_start
0085d014  w    O .rwdata	00000003 _ZTSPj
0083ec1c  w    F .text	00000064 _ZNSt14basic_ofstreamIcSt11char_traitsIcEE4openEPKcSt13_Ios_Openmode
0082ce38  w    F .text	0000002c _ZNSoD1Ev
0083c5dc g     F .text	00000030 _ZNSt12length_errorC1ERKSs
0082d618  w    F .text	00000368 _ZNSolsEl
00846d40 g     F .text	00000074 _kill_r
0083fc94  w    F .text	000001a8 _ZNSt13basic_fstreamIcSt11char_traitsIcEEC1Ev
0083105c  w    F .text	00000038 _ZNSt15basic_streambufIcSt11char_traitsIcEED0Ev
00834b68  w    F .text	00000038 _ZNSs5beginEv
00838e30 g     F .text	00000010 _ZNSt9bad_allocD2Ev
00846380 g     F .text	00000044 printf
00831094  w    F .text	00000014 _ZNSt15basic_streambufIcSt11char_traitsIcEED1Ev
008093d0  w    F .text	000001d8 _ZNSi5ungetEv
0082bc80  w    F .text	0000009c _ZN9__gnu_cxx18stdio_sync_filebufIcSt11char_traitsIcEE7seekoffExSt12_Ios_SeekdirSt13_Ios_Openmode
0083897c g     F .text	00000034 _ZNK10__cxxabiv120__si_class_type_info20__do_find_public_srcElPKvPKNS_17__class_type_infoES2_
008310c4  w    F .text	00000008 _ZNSt15basic_streambufIcSt11char_traitsIcEE9pbackfailEi
0085f06c g     O .bss	00000004 _ZNSt6locale10_S_classicE
0080ede4  w    F .text	0000003c _ZNKSt9money_putIcSt19ostreambuf_iteratorIcSt11char_traitsIcEEE3putES3_bRSt8ios_basecRKSs
00846c80 g     F .text	000000a0 _signal_r
00835b10 g     F .text	00000138 _ZNSt10moneypunctIcLb0EE24_M_initialize_moneypunctEPiPKc
0085cff0  w    O .rwdata	00000003 _ZTSPx
00801680 g     F .text	00000050 _ZN7PIO_BusD0Ev
00803cb8 g     F .text	000000ac _ZNSt6localeC1ERKS_
0085a2d0  w    O .rodata	00000013 _ZTSSt14overflow_error
00858bf8  w    O .rodata	00000010 _ZTV7PIO_Pin
00846fa4 g     F .text	00000068 __sseek
00858cf0  w    O .rodata	00000010 _ZTVNSt6locale5facetE
008441f0 g     F .text	000000a4 __sinit
0085cffc  w    O .rwdata	00000003 _ZTSPm
00827dd8  w    F .text	00000078 _ZNKSt7num_putIcSt19ostreambuf_iteratorIcSt11char_traitsIcEEE6do_putES3_RSt8ios_basecPKv
0080292c  w    F .text	00000040 _ZN4FIFOIcE22_triggerEmptyConditionEv
0082f864  w    F .text	00000378 _ZNSolsEy
0084d478 g     F .text	00000130 __swbuf_r
0081784c  w    F .text	000000c0 _ZNSt14collate_bynameIcED1Ev
0085f188 g     O .bss	00000004 _daylight
0085ce6c  w    O .rwdata	00000006 _ZTS4UART
0085cf04  w    O .rwdata	00000008 _ZTISt15basic_streambufIcSt11char_traitsIcEE
00811314  w    F .text	00000034 _ZNSt14codecvt_bynameIcc10_mbstate_tED0Ev
00801474 g     F .text	0000008c _ZN7PIO_BusC1ER3PIOhhh
00803c48 g     F .text	00000010 _ZNSt6locale5facetD0Ev
00807558  w    F .text	000000e4 _ZN9__gnu_cxx13stdio_filebufIcSt11char_traitsIcEED0Ev
00836650 g     F .text	0000000c _ZNSt12__basic_fileIcEC1EPi
00834268  w    F .text	000000f8 _ZNSs6assignEPKcm
0080f6a4  w    F .text	00000044 _ZNKSt8time_getIcSt19istreambuf_iteratorIcSt11char_traitsIcEEE11get_weekdayES3_S3_RSt8ios_baseRSt12_Ios_IostateP2tm
0083896c g     F .text	00000010 _ZN10__cxxabiv120__si_class_type_infoD2Ev
008455fc g     F .text	00000084 _setlocale_r
00859e94  w    O .rodata	00000025 _ZTSN10__cxxabiv120__si_class_type_infoE
008599a4  w    O .rodata	00000028 _ZTVSo
008597a4  w    O .rodata	00000016 _ZTSSt10moneypunctIcLb1EE
00810170  w    F .text	000000f4 _ZSt9has_facetISt9money_putIcSt19ostreambuf_iteratorIcSt11char_traitsIcEEEEbRKSt6locale
008442f0 g     F .text	00000068 __sfmoreglue
0085d0e4 g     O .rwdata	00000004 _ZNSt8ios_base6badbitE
00849cc0 g     F .text	0000001c ungetc
0080f490  w    F .text	00000040 _ZNKSt11__timepunctIcE19_M_days_abbreviatedEPPKc
00803b58 g     F .text	00000008 _ZNSt6locale5facet13_S_get_c_nameEv
00854a14 g     F .text	00000020 __malloc_unlock
0083cdec  w    F .text	00000054 _ZNSt13basic_filebufIcSt11char_traitsIcEE27_M_allocate_internal_bufferEv
00858b90  w    O .rodata	00000014 _ZTV3PIO
0080f7e8  w    F .text	0000000c _ZNKSt7collateIcE7compareEPKcS2_S2_S2_
00831aa0  w    F .text	00000018 _ZNSs7_M_moveEPcPKcm
0080051c g     F .text	00000020 _ZN3FSM12_select_modeEv
00837120 g     F .text	00000240 _ZNK10__cxxabiv121__vmi_class_type_info11__do_upcastEPKNS_17__class_type_infoEPKvRNS1_15__upcast_resultE
0080faa4  w    F .text	00000010 _ZNSt8time_getIcSt19istreambuf_iteratorIcSt11char_traitsIcEEED2Ev
0085d0c4 g     O .rwdata	00000004 _ZNSt8ios_base9showpointE
008134ec  w    F .text	00000018 _ZNSt9money_getIcSt19istreambuf_iteratorIcSt11char_traitsIcEEEC2Em
00810d30  w    F .text	00000058 _ZSt9use_facetISt7codecvtIcc10_mbstate_tEERKT_RKSt6locale
0082b710  w    F .text	0000009c _ZNKSt7num_getIcSt19istreambuf_iteratorIcSt11char_traitsIcEEE6do_getES3_S3_RSt8ios_baseRSt12_Ios_IostateRPv
00835510  w    F .text	00000064 _ZNSs7replaceEN9__gnu_cxx17__normal_iteratorIPcSsEES2_PKc
00808c48  w    F .text	00000220 _ZSt2wsIcSt11char_traitsIcEERSt13basic_istreamIT_T0_ES6_
00807aa4  w    F .text	000000dc _ZNSt9basic_iosIcSt11char_traitsIcEEC1EPSt15basic_streambufIcS1_E
008483b4 g     F .text	000014e4 _strtod_r
008378c4 g     F .text	00000020 _ZSt18uncaught_exceptionv
00810b20  w    F .text	00000058 _ZSt9use_facetISt10moneypunctIcLb0EEERKT_RKSt6locale
0082c388  w    F .text	00000018 _ZStlsIcSt11char_traitsIcEERSt13basic_ostreamIT_T0_ES6_St5_Setw
0085a290  w    O .rodata	0000000c _ZTISt15underflow_error
0081181c  w    F .text	00000108 _ZNSt11__timepunctIcED2Ev
00833ed8  w    F .text	000000bc _ZNSsD2Ev
008082e0  w    F .text	00000028 _ZStrsIcSt11char_traitsIcEERSt13basic_istreamIT_T0_ES6_St14_Resetiosflags
00811924  w    F .text	00000070 _ZNSt16__numpunct_cacheIcED0Ev
0083d41c  w    F .text	00000250 _ZNSt13basic_filebufIcSt11char_traitsIcEEC1Ev
00833d90  w    F .text	0000008c _ZNSspLEc
0083f5b8  w    F .text	000000a8 _ZNSt14basic_ofstreamIcSt11char_traitsIcEE7is_openEv
0083397c  w    F .text	000000e0 _ZNSs6appendEmc
0080869c  w    F .text	00000050 _ZNSiD0Ev
00831034  w    F .text	00000028 _ZNSt15basic_streambufIcSt11char_traitsIcEE6sbumpcEv
00846190 g     F .text	000000e0 memmove
00807718  w    F .text	000000dc _ZN9__gnu_cxx13stdio_filebufIcSt11char_traitsIcEED2Ev
00811358  w    F .text	00000010 _ZNSt14codecvt_bynameIcc10_mbstate_tED2Ev
00809028  w    F .text	000001d4 _ZStrsIcSt11char_traitsIcEERSt13basic_istreamIT_T0_ES6_RS3_
0085d018  w    O .rwdata	00000002 _ZTSj
008591b4  w    O .rodata	00000034 _ZTVSt17moneypunct_bynameIcLb0EE
00811e90  w    F .text	00000010 _ZNSt17moneypunct_bynameIcLb1EED1Ev
00813fac  w    F .text	000000d0 _ZNSt10moneypunctIcLb0EEC1EPiPKcm
00830e4c  w    F .text	00000008 _ZNKSt15basic_streambufIcSt11char_traitsIcEE5egptrEv
00859238  w    O .rodata	00000034 _ZTVSt10moneypunctIcLb1EE
00838d28 g     F .text	00000010 _ZNSt9exceptionD2Ev
008442e0 g     F .text	00000010 _cleanup
0080290c  w    F .text	00000020 _ZN4FIFOIcE6unlockEv
008519c0 g     F .text	000000bc snprintf
0085cef8  w    O .rwdata	00000008 _ZTTSo
0085a884  w    O .rodata	00000040 _ZTVSt13basic_filebufIcSt11char_traitsIcEE
00801d44 g     F .text	0000005c _ZN7PIO_Pin2onEv
0082cf44  w    F .text	0000036c _ZNSolsEb
008507a8 g     F .text	000000bc _Balloc
0085aab0  w    O .rodata	00000024 _ZTSN10__cxxabiv119__pointer_type_infoE
00833320  w    F .text	00000020 _ZNSs13_S_copy_charsEPcN9__gnu_cxx17__normal_iteratorIPKcSsEES4_
0085d08c g     O .rwdata	00000001 _ZNSt10ctype_base5spaceE
00859594  w    O .rodata	0000000c _ZTISt8time_putIcSt19ostreambuf_iteratorIcSt11char_traitsIcEEE
0083f510  w    F .text	000000a8 _ZNKSt14basic_ofstreamIcSt11char_traitsIcEE7is_openEv
0080e990  w    F .text	00000030 _ZNKSt10moneypunctIcLb1EE11curr_symbolEv
00842430 g     F .text	00000010 _ZN10__cxxabiv119__pointer_type_infoD1Ev
0085a334  w    O .rodata	00000011 _ZTSSt12out_of_range
0085d0e0 g     O .rwdata	00000004 _ZNSt8ios_base10floatfieldE
0085ab00  w    O .rodata	0000000c _ZTISt8bad_cast
00831ab8  w    F .text	00000018 _ZNSs7_M_copyEPcPKcm
00826884  w    F .text	0000003c _ZNKSt7num_getIcSt19istreambuf_iteratorIcSt11char_traitsIcEEE6do_getES3_S3_RSt8ios_baseRSt12_Ios_IostateRl
008343f0  w    F .text	00000040 _ZNSsaSEPKc
00835574 g     F .text	00000014 _ZN9__gnu_cxx18__exchange_and_addEPVii
0085f0fc  w    O .bss	00000008 _ZGVNSt8messagesIcE2idE
00811244  w    F .text	00000010 _ZNSt15messages_bynameIcED2Ev
0083a158 g     F .text	00000108 _ZSt19__throw_ios_failurePKc
0085d11c  w    O .rwdata	00000008 _ZTISt8ios_base
0082043c  w    F .text	000003c8 _ZNKSt9money_putIcSt19ostreambuf_iteratorIcSt11char_traitsIcEEE6do_putES3_bRSt8ios_basece
008534e4 g     F .text	00000088 __gtdf2
0080fbf4  w    F .text	00000010 _ZNSt7num_getIcSt19istreambuf_iteratorIcSt11char_traitsIcEEED2Ev
00859ee4  w    O .rodata	00000014 _ZTVSt13bad_exception
00843d10 g     F .text	00000010 __errno
00831528 g     F .text	00000188 _ZSt17__copy_streambufsIcSt11char_traitsIcEElPSt15basic_streambufIT_T0_ES6_
0080fbb0  w    F .text	00000034 _ZNSt7num_getIcSt19istreambuf_iteratorIcSt11char_traitsIcEEED0Ev
0083b0b4  w    F .text	00000034 _ZNSt14overflow_errorD0Ev
0085d078  w    O .rwdata	00000002 _ZTSb
008591e8  w    O .rodata	0000001c _ZTVSt8messagesIcE
00830e74  w    F .text	00000008 _ZNKSt15basic_streambufIcSt11char_traitsIcEE5pbaseEv
0085cea0 g     O .rwdata	00000004 _ZNSt6locale3allE
00801c40 g     F .text	00000048 _ZN7PIO_Pin8getValueEv
0082bd74  w    F .text	00000030 _ZN9__gnu_cxx18stdio_sync_filebufIcSt11char_traitsIcEE9underflowEv
00803c58 g     F .text	00000010 _ZNSt6locale5facetD1Ev
01004000 g     F .entry	0000001c __reset
0085ced0  w    O .rwdata	00000008 _ZTISt10ctype_base
0085cf14  w    O .rwdata	00000001 _ZNSs4_Rep11_S_terminalE
0080fc04  w    F .text	00000034 _ZNSt9money_putIcSt19ostreambuf_iteratorIcSt11char_traitsIcEEED0Ev
00859558  w    O .rodata	0000003b _ZTSSt8time_putIcSt19ostreambuf_iteratorIcSt11char_traitsIcEEE
0085f0c4  w    O .bss	00000008 _ZGVNSt9money_putIcSt19ostreambuf_iteratorIcSt11char_traitsIcEEE2idE
00805870 g     F .text	0000007c _ZNSt6locale5_Impl16_M_replace_facetEPKS0_PKNS_2idE
00832268  w    F .text	000000e0 _ZNKSs16find_last_not_ofEPKcmm
00801274 g     F .text	00000084 _ZN3PIOC2EmhNS_4ModeE
008593ac  w    O .rodata	0000000c _ZTISt18__moneypunct_cacheIcLb1EE
00801080 g     F .text	00000098 _ZN3FSM6actionEv
0080ec60  w    F .text	00000054 _ZNSt18__moneypunct_cacheIcLb0EEC1Em
0085d058  w    O .rwdata	00000004 _ZTSPKc
00843474 g     F .text	00000008 _Unwind_GetRegionStart
0085d070  w    O .rwdata	00000004 _ZTSPKb
0085cfe0  w    O .rwdata	00000004 _ZTSPKy
00839134 g     F .text	000000e4 _ZNSt7codecvtIcc10_mbstate_tED0Ev
0085d096 g     O .rwdata	00000001 _ZNSt10ctype_base5graphE
0085d0c8 g     O .rwdata	00000004 _ZNSt8ios_base7showposE
0082a7c4  w    F .text	00000f4c _ZNKSt7num_getIcSt19istreambuf_iteratorIcSt11char_traitsIcEEE14_M_extract_intImEES3_S3_S3_RSt8ios_baseRSt12_Ios_IostateRT_
00814e58  w    F .text	00000180 _ZNSt17moneypunct_bynameIcLb0EEC1EPKcm
0083f268  w    F .text	00000158 _ZNSt13basic_filebufIcSt11char_traitsIcEE9showmanycEv
0083e338  w    F .text	000001b4 _ZNSt13basic_filebufIcSt11char_traitsIcEE5closeEv
00800000 g       *ABS*	00000000 __flash_exceptions_start
00814b04  w    F .text	00000010 _ZNSt15time_put_bynameIcSt19ostreambuf_iteratorIcSt11char_traitsIcEEED1Ev
0085cecd  w    O .rwdata	00000001 _ZNSt10moneypunctIcLb1EE4intlE
008450d4 g     F .text	00000074 _fstat_r
0085a07c  w    O .rodata	00000010 _ZTIPKt
0084226c  w    F .text	000000b4 _ZNSdC1Ev
0085d050  w    O .rwdata	00000003 _ZTSPa
00838bb4 g     F .text	00000100 _Znwm
00832008  w    F .text	00000064 _ZNSs4_Rep10_M_disposeERKSaIcE
0085f16c g     O .bss	00000004 errno
00843250 g     F .text	00000038 __make_dp
0080844c  w    F .text	00000034 _ZNSiC2EPSt15basic_streambufIcSt11char_traitsIcEE
00846810 g     F .text	00000014 __srget
00859408  w    O .rodata	00000023 _ZTSSt14codecvt_bynameIcc10_mbstate_tE
0083559c g     F .text	0000002c _ZNKSt7collateIcE10_M_compareEPKcS2_
0081f400  w    F .text	0000037c _ZNKSt9money_getIcSt19istreambuf_iteratorIcSt11char_traitsIcEEE6do_getES3_S3_bRSt8ios_baseRSt12_Ios_IostateRSs
0084d284 g     F .text	00000024 __svfscanf
008326e4  w    F .text	0000003c _ZNSsC2EmcRKSaIcE
00830ec0  w    F .text	00000008 _ZNSt15basic_streambufIcSt11char_traitsIcEE9showmanycEv
0080462c g     F .text	000002a8 _ZNSt6locale5_ImplD1Ev
00858d18 g     O .rodata	0000000c _ZNSt6locale5_Impl11_S_id_ctypeE
0083345c  w    F .text	000000fc _ZNSsC1ERKSs
00832404  w    F .text	0000007c _ZNKSs7compareEPKc
0085d07c  w    O .rwdata	00000004 _ZTSPKv
008079b8  w    F .text	00000098 _ZNKSt9basic_iosIcSt11char_traitsIcEE6narrowEcc
00801bf0 g     F .text	00000050 _ZN7PIO_PinD2Ev
00812f48  w    F .text	000000d0 _ZNSt11__timepunctIcEC2Em
00850098 g     F .text	00000018 labs
00800000 g       *ABS*	00000000 __alt_mem_sdram_controller
0080ed54  w    F .text	0000004c _ZNKSt9money_getIcSt19istreambuf_iteratorIcSt11char_traitsIcEEE3getES3_S3_bRSt8ios_baseRSt12_Ios_IostateRSs
008402e8  w    F .text	00000010 _ZTv0_n12_NSt14basic_ofstreamIcSt11char_traitsIcEED1Ev
00812094  w    F .text	0000014c _ZSt13__int_to_charIcyEiPT_T0_PKS0_St13_Ios_Fmtflagsb
00843844 g     F .text	00000080 _Unwind_Backtrace
00839ab4 g     F .text	0000006c _ZNKSt5ctypeIcE10do_tolowerEPcPKc
0085a13c  w    O .rodata	00000010 _ZTIPKb
00853c04 g     F .text	0000002c __make_fp
00832be0  w    F .text	00000088 _ZNKSs4copyEPcmm
0085d0e8 g     O .rwdata	00000004 _ZNSt8ios_base6eofbitE
0083905c g     F .text	000000d8 _ZNSt7codecvtIcc10_mbstate_tEC1EPim
00858fc4  w    O .rodata	00000010 _ZTVSt18__moneypunct_cacheIcLb1EE
00806b08 g     F .text	000000c0 _ZNSt6localeC1Ev
0085f198 g     O .bss	00000004 alt_argv
0085d104 g     O .rwdata	00000004 _ZNSt8ios_base3outE
00864e2c g       *ABS*	00000000 _gp
0080b898  w    F .text	000001f0 _ZNSirsERm
00811994  w    F .text	00000068 _ZNSt16__numpunct_cacheIcED1Ev
00854f94 g     F .text	00000030 usleep
0080ebe0  w    F .text	00000040 _ZNKSt10moneypunctIcLb1EE13do_pos_formatEv
00802000 g     F .text	00000038 _ZN4UART16inBuffer_isEmptyEv
00842320 g     F .text	00000034 _ZNSt10bad_typeidD0Ev
00830ef8  w    F .text	0000004c _ZNSt15basic_streambufIcSt11char_traitsIcEEC1ERKS2_
0083b0e8  w    F .text	00000010 _ZNSt14overflow_errorD1Ev
00838dc0 g     F .text	00000010 _ZN10__cxxabiv123__fundamental_type_infoD1Ev
0082c9c4  w    F .text	0000018c _ZNSo5flushEv
00811088  w    F .text	000000bc _ZNSt8messagesIcED1Ev
00810d88  w    F .text	000000c4 _ZNSt7collateIcED0Ev
0080e864  w    F .text	0000000c _ZNKSt10moneypunctIcLb0EE16do_decimal_pointEv
00836934 g     F .text	00000094 _ZNSt12__basic_fileIcE8xsputn_2EPKclS2_l
0080ee78  w    F .text	00000030 _ZNKSt8numpunctIcE8groupingEv
0080e79c  w    F .text	000000c8 _ZNKSt10moneypunctIcLb0EE10neg_formatEv
00842450 g     F .text	00000034 _ZNSt8bad_castD0Ev
0080f0f8  w    F .text	00000044 _ZNKSt7num_getIcSt19istreambuf_iteratorIcSt11char_traitsIcEEE3getES3_S3_RSt8ios_baseRSt12_Ios_IostateRy
008542ac g     F .text	00000020 getpid
0083b5b0 g     F .text	000000e0 _ZNSt8ios_baseD1Ev
00834624  w    F .text	00000038 _ZNSs6assignEmc
0081913c  w    F .text	000001d4 _ZNKSt8time_getIcSt19istreambuf_iteratorIcSt11char_traitsIcEEE11do_get_dateES3_S3_RSt8ios_baseRSt12_Ios_IostateP2tm
0085ce54  w    O .rwdata	00000008 _ZTI7PIO_Pin
00830e24  w    F .text	0000000c _ZNSt15basic_streambufIcSt11char_traitsIcEE5sgetnEPcl
008317a8  w    F .text	0000000c _ZNKSs4_Rep12_M_is_leakedEv
0085a6d4  w    O .rodata	0000003c _ZTVSt13basic_fstreamIcSt11char_traitsIcEE
0085d094 g     O .rwdata	00000001 _ZNSt10ctype_base6xdigitE
00838094 g     F .text	00000180 __cxa_call_unexpected
00830fbc  w    F .text	0000002c _ZNSt15basic_streambufIcSt11char_traitsIcEEC1Ev
00813b5c  w    F .text	0000009c _ZNKSt10moneypunctIcLb1EE16do_positive_signEv
0082ba40  w    F .text	00000008 _ZN9__gnu_cxx18stdio_sync_filebufIcSt11char_traitsIcEE4fileEv
0083f7b0  w    F .text	00000394 _ZNSt13basic_filebufIcSt11char_traitsIcEE5imbueERKSt6locale
008378bc g     F .text	00000008 __cxa_get_exception_ptr
0085aa3c  w    O .rodata	00000020 _ZTISd
0085ffb4 g     O .bss	0000008c _ZSt4cerr
00841d14  w    F .text	00000084 _ZNSdD1Ev
00811fcc  w    F .text	000000c8 _ZNSt10moneypunctIcLb0EEC2Em
0085d004  w    O .rwdata	00000004 _ZTSPKl
00836828 g     F .text	00000008 _ZNSt12__basic_fileIcE2fdEv
008060f4 g     F .text	000007b0 _ZNSt6locale5_ImplC1Em
00831ad8  w    F .text	0000000c _ZNKSsixEm
00858bc0  w    O .rodata	00000014 _ZTV8PIO_LVDS
0083cea0  w    F .text	000000a8 _ZNKSt13basic_filebufIcSt11char_traitsIcEE7is_openEv
0085bb88 g     O .rwdata	00000180 alt_fd_list
00830660  w    F .text	0000036c _ZNSolsEt
0080296c  w    F .text	00000084 _ZN4FIFOIcE4pullEv
00842554 g     F .text	00000034 _ZN10__cxxabiv117__pbase_type_infoD0Ev
008268c0  w    F .text	000006e0 _ZNKSt7num_getIcSt19istreambuf_iteratorIcSt11char_traitsIcEEE6do_getES3_S3_RSt8ios_baseRSt12_Ios_IostateRb
0083b470 g     F .text	00000058 _ZNSt8ios_base17register_callbackEPFvNS_5eventERS_iEi
008012f8 g     F .text	00000050 _ZN3PIOD0Ev
0080fda0  w    F .text	000000f4 _ZSt9has_facetISt8time_getIcSt19istreambuf_iteratorIcSt11char_traitsIcEEEEbRKSt6locale
00858c70  w    O .rodata	00000018 _ZTV4FIFOIcE
0080ea2c  w    F .text	000000c8 _ZNKSt10moneypunctIcLb1EE10pos_formatEv
0081980c  w    F .text	000002d4 _ZNKSt7collateIcE10do_compareEPKcS2_S2_S2_
0080be68  w    F .text	00000214 _ZNSirsERi
0085a02c  w    O .rodata	00000010 _ZTIPl
00808224  w    F .text	00000034 _ZNSirsEPFRSt9basic_iosIcSt11char_traitsIcEES3_E
00827990  w    F .text	00000448 _ZNKSt7num_putIcSt19ostreambuf_iteratorIcSt11char_traitsIcEEE13_M_insert_intImEES3_S3_RSt8ios_basecT_
00845548 g     F .text	00000090 _getc_r
008143b4  w    F .text	000000d0 _ZNSt10moneypunctIcLb1EEC1EPiPKcm
0083e794  w    F .text	00000188 _ZNSt13basic_fstreamIcSt11char_traitsIcEEC2Ev
008454b0 g     F .text	00000098 getc
00812724  w    F .text	00000124 _ZNSt15messages_bynameIcEC2EPKcm
0080f2dc  w    F .text	00000038 _ZNKSt7num_putIcSt19ostreambuf_iteratorIcSt11char_traitsIcEEE3putES3_RSt8ios_basecx
0085a348  w    O .rodata	00000014 _ZTVSt12out_of_range
008437f4 g     F .text	00000050 _Unwind_SjLj_ForcedUnwind
00805944 g     F .text	000007b0 _ZNSt6locale5_ImplC2Em
00843408 g     F .text	00000014 _Unwind_GetCFA
0085cf7c  w    O .rwdata	00000008 _ZTIt
00838aa8 g     F .text	00000014 _ZSt13set_terminatePFvvE
00856d68 g     F .text	00000094 alt_find_dev
008460f0 g     F .text	000000a0 memcpy
0084fda8 g     F .text	00000248 __hexnan
0085a92c  w    O .rodata	00000028 _ZTSSt14basic_ifstreamIcSt11char_traitsIcEE
00831d84  w    F .text	00000010 _ZNSsC2Ev
0085d080  w    O .rwdata	00000003 _ZTSPv
00807170  w    F .text	000001f4 _ZN9__gnu_cxx13stdio_filebufIcSt11char_traitsIcEEC2EP7__sFILESt13_Ios_Openmodem
0083f708  w    F .text	000000a8 _ZNSt14basic_ifstreamIcSt11char_traitsIcEE7is_openEv
00812950  w    F .text	000000d8 _ZNSt17__timepunct_cacheIcEC2Em
00823750  w    F .text	00000204 _ZNKSt7num_getIcSt19istreambuf_iteratorIcSt11char_traitsIcEEE6do_getES3_S3_RSt8ios_baseRSt12_Ios_IostateRd
0080f5a0  w    F .text	00000018 _ZNSt8time_putIcSt19ostreambuf_iteratorIcSt11char_traitsIcEEEC2Em
00831c74  w    F .text	0000000c _ZNKSs17find_first_not_ofERKSsm
00831ae4  w    F .text	000000a4 _ZNKSs17find_first_not_ofEPKcmm
008194e4  w    F .text	00000328 _ZNKSt7collateIcE12do_transformEPKcS2_
00846894 g     F .text	000001d0 setvbuf
00859648  w    O .rodata	0000000c _ZTISt15numpunct_bynameIcE
00859098  w    O .rodata	00000014 _ZTVSt15time_put_bynameIcSt19ostreambuf_iteratorIcSt11char_traitsIcEEE
00836bc4 g     F .text	00000008 _ZNSt6locale5facet19_S_destroy_c_localeERPi
008598bc  w    O .rodata	0000000c _ZTISt12ctype_bynameIcE
0083322c  w    F .text	00000034 _ZNSsC1IPKcEET_S2_RKSaIcE
008170b4  w    F .text	0000043c _ZNSt5__padIcSt11char_traitsIcEE6_S_padERSt8ios_basecPcPKcllb
0080fb90  w    F .text	00000010 _ZNSt7num_putIcSt19ostreambuf_iteratorIcSt11char_traitsIcEEED1Ev
0082dd9c  w    F .text	000003b8 _ZStlsISt11char_traitsIcEERSt13basic_ostreamIcT_ES5_c
008442d4 g     F .text	0000000c _cleanup_r
008590c0  w    O .rodata	00000030 _ZTVSt7num_putIcSt19ostreambuf_iteratorIcSt11char_traitsIcEEE
00853704 g     F .text	000000f8 __floatsidf
0080fe94  w    F .text	000000f4 _ZSt9has_facetISt8time_putIcSt19ostreambuf_iteratorIcSt11char_traitsIcEEEEbRKSt6locale
00857394 g     F .text	00000078 alt_io_redirect
0080f384  w    F .text	00000038 _ZNKSt7num_putIcSt19ostreambuf_iteratorIcSt11char_traitsIcEEE3putES3_RSt8ios_basece
0080ebc8  w    F .text	0000000c _ZNKSt10moneypunctIcLb1EE16do_thousands_sepEv
008535f4 g     F .text	00000088 __ltdf2
0085a314  w    O .rodata	00000014 _ZTVSt11range_error
0080f784  w    F .text	0000000c _ZNKSt8messagesIcE4openERKSsRKSt6localePKc
0083c8b8 g     F .text	00000104 _ZNSt13runtime_errorD2Ev
0085a7fc  w    O .rodata	00000028 _ZTCSt14basic_ofstreamIcSt11char_traitsIcEE0_So
0085f07c  w    O .bss	00000004 _ZNSt10moneypunctIcLb0EE2idE
008015dc g     F .text	0000003c _ZN7PIO_Bus11allPinTogleEv
0083abc0 g     F .text	00000190 _ZSt21__throw_runtime_errorPKc
00858aac g       *ABS*	00000000 __DTOR_END__
0085b2ac g     O .rwdata	00000038 _ZNSt17__timepunct_cacheIcE12_S_timezonesE
00841620  w    F .text	00000354 _ZNSt13basic_fstreamIcSt11char_traitsIcEEC1EPKcSt13_Ios_Openmode
00831d28  w    F .text	00000050 _ZNKSs5rfindEPKcm
00858d74  w    O .rodata	000000b8 _ZN9__gnu_cxx4ropeIcSaIcEE10_S_min_lenE
0085cee8  w    O .rwdata	00000008 _ZTISt10money_base
008174f0  w    F .text	00000060 _ZNKSt7num_putIcSt19ostreambuf_iteratorIcSt11char_traitsIcEEE6_M_padEclRSt8ios_basePcPKcRi
0083c4cc g     F .text	000000b0 _ZNSt11logic_errorC2ERKSs
0085a3b4  w    O .rodata	00000014 _ZTVSt16invalid_argument
0085a16c  w    O .rodata	00000010 _ZTIPv
008387b4 g     F .text	00000010 _ZN10__cxxabiv117__class_type_infoD1Ev
0085a824  w    O .rodata	00000028 _ZTVSt14basic_ifstreamIcSt11char_traitsIcEE
00831d94  w    F .text	00000010 _ZN9__gnu_cxxeqIPKcSsEEbRKNS_17__normal_iteratorIT_T0_EES8_
0085ab54  w    O .rodata	0000000c _ZTIN10__cxxabiv117__pbase_type_infoE
0085cfac  w    O .rwdata	00000008 _ZTIb
00859dd0  w    O .rodata	0000000c _ZTIN10__cxxabiv121__vmi_class_type_infoE
0080fc48  w    F .text	00000010 _ZNSt9money_putIcSt19ostreambuf_iteratorIcSt11char_traitsIcEEED2Ev
00834cb8  w    F .text	00000150 _ZStplIcSt11char_traitsIcESaIcEESbIT_T0_T1_EPKS3_RKS6_
0083ee64  w    F .text	00000318 _ZNSt13basic_filebufIcSt11char_traitsIcEE7seekoffExSt12_Ios_SeekdirSt13_Ios_Openmode
0085990c  w    O .rodata	00000011 _ZTSSt12codecvt_base
0085926c  w    O .rodata	00000010 _ZTVSt11__timepunctIcE
0080b0d8  w    F .text	000001f0 _ZNSirsERd
008501a8 g     F .text	00000040 mbrtowc
0080f404  w    F .text	00000018 _ZNKSt11__timepunctIcE15_M_time_formatsEPPKc
0085fcb0 g     O .bss	0000000c _ZN14__gnu_internal13moneypunct_cfE
008001e0 g     F .text	00000038 _ZN3FSMC2Ev
00859710  w    O .rodata	0000001d _ZTSSt17moneypunct_bynameIcLb0EE
0083c3ec g     F .text	00000030 _ZNSt11range_errorC2ERKSs
0085a01c  w    O .rodata	00000010 _ZTIPKl
008095a8  w    F .text	00000200 _ZNSi7putbackEc
0084d2a8 g     F .text	00000068 _vfscanf_r
008115e4  w    F .text	00000010 _ZNSt12ctype_bynameIcED1Ev
00850584 g     F .text	000000b0 __ratio
0083ccd8  w    F .text	0000003c _ZNSt13basic_filebufIcSt11char_traitsIcEE15_M_create_pbackEv
00812600  w    F .text	00000124 _ZNSt15messages_bynameIcEC1EPKcm
008122f0  w    F .text	000000c8 _ZNSt7collateIcEC1EPim
00814714  w    F .text	00000018 _ZNSt15time_get_bynameIcSt19istreambuf_iteratorIcSt11char_traitsIcEEEC2EPKcm
008337c8  w    F .text	00000004 _ZNSsaSERKSs
00858ea0  w    O .rodata	0000000c _ZTIN9__gnu_cxx13stdio_filebufIcSt11char_traitsIcEEE
008068a4 g     F .text	00000054 _ZNSt6locale18_S_initialize_onceEv
0085a328  w    O .rodata	0000000c _ZTISt12out_of_range
00831a10  w    F .text	00000038 _ZNKSs15_M_check_lengthEmmPKc
0085d08d g     O .rwdata	00000001 _ZNSt10ctype_base5printE
008593e4  w    O .rodata	00000016 _ZTSSt14collate_bynameIcE
008134a4  w    F .text	00000018 _ZNSt9money_putIcSt19ostreambuf_iteratorIcSt11char_traitsIcEEEC1Em
0085f084  w    O .bss	00000004 _ZNSt9money_getIcSt19istreambuf_iteratorIcSt11char_traitsIcEEE2idE
008325e8  w    F .text	000000c0 _ZNSs12_S_constructEmcRKSaIcE
0083c068 g     F .text	000000d8 _ZNSt10__num_base15_S_format_floatERKSt8ios_basePcc
008423fc g     F .text	00000034 _ZN10__cxxabiv119__pointer_type_infoD0Ev
0085585c g     F .text	00000224 altera_avalon_jtag_uart_read
00845844 g     F .text	00000014 malloc
008463c4 g     F .text	00000034 _printf_r
008433c4 g     F .text	00000008 __udivsi3
0080f438  w    F .text	00000018 _ZNKSt11__timepunctIcE8_M_am_pmEPPKc
0085448c g     F .text	000000c0 isatty
0081460c  w    F .text	000000c0 _ZNSt8messagesIcEC1Em
0080c680  w    F .text	000001c0 _ZNSi6sentryC2ERSib
00830e54  w    F .text	00000010 _ZNSt15basic_streambufIcSt11char_traitsIcEE5gbumpEi
0080a348  w    F .text	00000350 _ZNSi3getEPclc
00846a64 g     F .text	000000cc _raise_r
0085006c g     F .text	0000002c iswspace
0085969c  w    O .rodata	0000003c _ZTSSt9money_getIcSt19istreambuf_iteratorIcSt11char_traitsIcEEE
0082e438  w    F .text	00000320 _ZNSo3putEc
008590ac  w    O .rodata	00000014 _ZTVSt8time_putIcSt19ostreambuf_iteratorIcSt11char_traitsIcEEE
0085d02c  w    O .rwdata	00000003 _ZTSPt
0085b13c g     O .rodata	000000c8 __mprec_tens
008341cc  w    F .text	0000009c _ZNSs15_M_replace_safeEmmPKcm
0083a580 g     F .text	00000190 _ZSt22__throw_overflow_errorPKc
0082f16c  w    F .text	00000380 _ZNSolsEf
0083e9f4  w    F .text	000001c8 _ZNSt13basic_filebufIcSt11char_traitsIcEE4openEPKcSt13_Ios_Openmode
00839218 g     F .text	000000d0 _ZNSt7codecvtIcc10_mbstate_tEC2Em
0080435c g     F .text	000002d0 _ZNKSt6localeeqERKS_
00808038  w    F .text	000001e4 _ZNSt9basic_iosIcSt11char_traitsIcEE7copyfmtERKS2_
00805418 g     F .text	00000458 _ZNSt6locale5_Impl16_M_install_facetEPKNS_2idEPKNS_5facetE
00811a64  w    F .text	00000080 _ZNSt18__moneypunct_cacheIcLb1EED0Ev
0083c5ac g     F .text	00000030 _ZNSt12out_of_rangeC2ERKSs
00838d8c g     F .text	00000034 _ZN10__cxxabiv123__fundamental_type_infoD0Ev
00810f08  w    F .text	000000bc _ZNSt7collateIcED2Ev
0082e164  w    F .text	00000010 _ZStlsISt11char_traitsIcEERSt13basic_ostreamIcT_ES5_h
00805170 g     F .text	000002a8 _ZNSt6locale5_ImplD2Ev
008455d8 g     F .text	00000008 __locale_charset
0082c518  w    F .text	000000a0 _ZNSo6sentryD2Ev
0084d438 g     F .text	00000040 vsnprintf
00859368  w    O .rodata	00000018 _ZTSSt16__numpunct_cacheIcE
00830e8c  w    F .text	00000010 _ZNSt15basic_streambufIcSt11char_traitsIcEE5pbumpEi
008337cc  w    F .text	00000128 _ZNSs7reserveEm
008526a8 g     F .text	000000a4 __fixunsdfsi
00832818  w    F .text	000000c8 _ZNKSs7compareEmmPKc
008575d0 g     F .text	00000090 alt_icache_flush
0085f0d4  w    O .bss	00000008 _ZGVNSt7num_getIcSt19istreambuf_iteratorIcSt11char_traitsIcEEE2idE
00831760  w    F .text	0000000c _ZNKSs4sizeEv
0085f17c g     O .bss	00000004 __malloc_top_pad
00833f94  w    F .text	00000238 _ZNSs9_M_mutateEmmm
0083509c  w    F .text	000002e0 _ZNSs7replaceEmmPKcm
00831e18  w    F .text	00000058 _ZNKSs16find_last_not_ofEcm
00846d3c g     F .text	00000004 _getpid_r
00811d44  w    F .text	00000034 _ZNSt15numpunct_bynameIcED0Ev
0082d2b0  w    F .text	00000368 _ZNSolsEm
00858d24 g     O .rodata	00000010 _ZNSt6locale5_Impl13_S_id_numericE
008353ec  w    F .text	00000010 _ZNSs7replaceEN9__gnu_cxx17__normal_iteratorIPcSsEES2_PKcm
00804bc0 g     F .text	000002ec _ZNSt6locale5_ImplC2ERKS0_m
008522e0 g     F .text	00000024 strtoul
0085d144 g     O .rwdata	00000004 __mb_cur_max
00833b68  w    F .text	00000040 _ZNSs6appendEPKc
0083ec80  w    F .text	00000064 _ZNSt14basic_ifstreamIcSt11char_traitsIcEE4openEPKcSt13_Ios_Openmode
0085d12c g     O .rwdata	00000004 _ZNSt10__num_base11_S_atoms_inE
0084081c  w    F .text	000001f4 _ZNSt14basic_ifstreamIcSt11char_traitsIcEEC1EPKcSt13_Ios_Openmode
0085a460  w    O .rodata	0000000c _ZTSSt8ios_base
0080e6d4  w    F .text	000000c8 _ZNKSt10moneypunctIcLb0EE10pos_formatEv
008455e0 g     F .text	0000000c _localeconv_r
00837000 g     F .text	00000010 _ZN10__cxxabiv121__vmi_class_type_infoD1Ev
00831e70  w    F .text	00000064 _ZNKSs17find_first_not_ofEcm
00852304 g     F .text	000002f0 _strtoull_r
00850ea0 g     F .text	0000003c __i2b
0084efcc g     F .text	0000049c __sfvwrite_r
008387d4 g     F .text	00000060 _ZNK10__cxxabiv117__class_type_info10__do_catchEPKSt9type_infoPPvj
00809d9c  w    F .text	000001dc _ZNSi6ignoreEv
00802fc0 g     F .text	000004bc _ZNSt8ios_base4InitC2Ev
0085cfc8  w    O .rwdata	00000004 _ZTSPKd
00846bb8 g     F .text	000000b4 __sigtramp_r
008316e0  w    F .text	00000008 _ZNKSs9_M_ibeginEv
00836668 g     F .text	00000008 _ZNSt12__basic_fileIcE4fileEv
0083c24c g     F .text	000000b0 _ZNSt13runtime_errorC2ERKSs
008137b4  w    F .text	0000009c _ZNKSt10moneypunctIcLb0EE14do_curr_symbolEv
0082836c  w    F .text	00000358 _ZNKSt7num_putIcSt19ostreambuf_iteratorIcSt11char_traitsIcEEE6do_putES3_RSt8ios_basecb
00807c84  w    F .text	00000030 _ZNSt9basic_iosIcSt11char_traitsIcEE11_M_setstateESt12_Ios_Iostate
0085a738  w    O .rodata	0000003c _ZTCSt13basic_fstreamIcSt11char_traitsIcEE0_Sd
00811eb0  w    F .text	000000c8 _ZNSt10moneypunctIcLb1EEC2Em
00846824 g     F .text	00000070 _sbrk_r
0085d0cc g     O .rwdata	00000004 _ZNSt8ios_base6skipwsE
00811fbc  w    F .text	00000010 _ZNSt17moneypunct_bynameIcLb0EED2Ev
0080ea20  w    F .text	0000000c _ZNKSt10moneypunctIcLb1EE11frac_digitsEv
0080a698  w    F .text	00000064 _ZNSi3getEPcl
008592cc  w    O .rodata	0000002c _ZTVSt23__codecvt_abstract_baseIcc10_mbstate_tE
0085cf00  w    O .rwdata	00000003 _ZTSSo
00835d80 g     F .text	000000d0 _ZNSt8numpunctIcED0Ev
0083db1c  w    F .text	00000110 _ZNSt13basic_filebufIcSt11char_traitsIcEE7_M_seekExSt12_Ios_Seekdir10_mbstate_t
00836a90 g     F .text	00000080 _ZNSt12__basic_fileIcE4openEPKcSt13_Ios_Openmodei
0085a7ec  w    O .rodata	00000010 _ZTTSt14basic_ofstreamIcSt11char_traitsIcEE
00859ddc  w    O .rodata	00000020 _ZTVSt9type_info
0080fa94  w    F .text	00000010 _ZNSt8time_getIcSt19istreambuf_iteratorIcSt11char_traitsIcEEED1Ev
0085a39c  w    O .rodata	00000015 _ZTSSt16invalid_argument
00858d58 g     O .rodata	0000001c _ZNSt6locale5_Impl19_S_facet_categoriesE
008406d4  w    F .text	00000148 _ZNSt14basic_ofstreamIcSt11char_traitsIcEEC2Ev
0083a0f0 g     F .text	00000034 _ZSt17__throw_bad_allocv
00801fb0 g     F .text	00000050 _ZN3SPID2Ev
008310bc  w    F .text	00000008 _ZNSt15basic_streambufIcSt11char_traitsIcEE8overflowEi
0083ebbc  w    F .text	00000060 _ZNSt13basic_fstreamIcSt11char_traitsIcEE4openEPKcSt13_Ios_Openmode
00813060  w    F .text	00000018 _ZNSt7num_getIcSt19istreambuf_iteratorIcSt11char_traitsIcEEEC2Em
0085973c  w    O .rodata	0000000f _ZTSSt8messagesIcE
0085ce34  w    O .rwdata	00000008 _ZTI3FSM
008134bc  w    F .text	00000018 _ZNSt9money_putIcSt19ostreambuf_iteratorIcSt11char_traitsIcEEEC2Em
0080c07c  w    F .text	000001f0 _ZNSirsERt
0085f094  w    O .bss	00000004 _ZNSt7num_putIcSt19ostreambuf_iteratorIcSt11char_traitsIcEEE2idE
00842588 g     F .text	00000010 _ZN10__cxxabiv117__pbase_type_infoD1Ev
008316b0  w    F .text	00000010 _ZNSt11char_traitsIcE2eqERKcS2_
0080fc58  w    F .text	00000034 _ZNSt9money_getIcSt19istreambuf_iteratorIcSt11char_traitsIcEEED0Ev
0085121c g     F .text	00000078 _read_r
00838cf8 g     F .text	00000010 _ZNKSt9exception4whatEv
008321f0  w    F .text	00000068 _ZNKSs4findEcm
0085cff8  w    O .rwdata	00000004 _ZTSPKm
0085b6e4 g     O .rwdata	0000000c __lc_ctype
0085d16c g     O .rwdata	00000004 alt_max_fd
00832480  w    F .text	00000050 _ZNKSs16find_last_not_ofEPKcm
008593b8  w    O .rodata	0000001e _ZTSSt18__moneypunct_cacheIcLb0EE
00813314  w    F .text	000000cc _ZNSt8numpunctIcEC2EPSt16__numpunct_cacheIcEm
00853c30 g     F .text	00000138 __unpack_d
008323b4  w    F .text	00000050 _ZNKSs4findEPKcm
00843d20 g     F .text	00000110 _fclose_r
0080efe8  w    F .text	00000044 _ZNKSt7num_getIcSt19istreambuf_iteratorIcSt11char_traitsIcEEE3getES3_S3_RSt8ios_baseRSt12_Ios_IostateRt
00832520  w    F .text	00000050 _ZNKSs12find_last_ofEPKcm
0085a960  w    O .rodata	00000027 _ZTSSt13basic_filebufIcSt11char_traitsIcEE
00831c80  w    F .text	000000a8 _ZNKSs5rfindEPKcmm
0080f7e4  w    F .text	00000004 _ZNKSt8messagesIcE8do_closeEi
0085a1d4  w    O .rodata	0000000c _ZTISt9bad_alloc
0083cf48  w    F .text	00000050 _ZNSt13basic_filebufIcSt11char_traitsIcEE4syncEv
008316d4  w    F .text	0000000c _ZNKSs6_M_repEv
008440fc g     F .text	00000034 fflush
00859fac  w    O .rodata	00000010 _ZTIPf
0085fa60 g     O .bss	00000220 _ZN14__gnu_internal7ctype_cE
0085f180 g     O .bss	00000004 __malloc_max_sbrked_mem
00859824  w    O .rodata	0000000e _ZTSSt7collateIcE
00858d44 g     O .rodata	00000014 _ZNSt6locale5_Impl14_S_id_monetaryE
008013e8 g     F .text	0000008c _ZN7PIO_BusC2ER3PIOhhh
0080f13c  w    F .text	00000044 _ZNKSt7num_getIcSt19istreambuf_iteratorIcSt11char_traitsIcEEE3getES3_S3_RSt8ios_baseRSt12_Ios_IostateRf
008542cc g     F .text	000001c0 alt_irq_register
00800250 g     F .text	00000094 _ZN3FSM10transitionEv
0083472c  w    F .text	00000050 _ZNSs5eraseEN9__gnu_cxx17__normal_iteratorIPcSsEE
0086022c g     O .bss	00000074 _ZN14__gnu_internal8buf_cerrE
008109c0  w    F .text	00000058 _ZSt9use_facetISt8time_putIcSt19ostreambuf_iteratorIcSt11char_traitsIcEEEERKT_RKSt6locale
0085ce94 g     O .rwdata	00000004 _ZNSt6locale4timeE
0083d2b8  w    F .text	00000164 _ZNSt13basic_filebufIcSt11char_traitsIcEE19_M_terminate_outputEv
00810c80  w    F .text	00000058 _ZSt9use_facetISt8numpunctIcEERKT_RKSt6locale
0080e934  w    F .text	0000002c _ZNKSt10moneypunctIcLb1EE13thousands_sepEv
00817d2c  w    F .text	00001410 _ZNKSt8time_getIcSt19istreambuf_iteratorIcSt11char_traitsIcEEE21_M_extract_via_formatES3_S3_RSt8ios_baseRSt12_Ios_IostateP2tmPKc
00858bb4  w    O .rodata	00000009 _ZTS7PIO_Bus
00834ae8  w    F .text	00000044 _ZNSsixEm
00833654  w    F .text	00000174 _ZNSs6assignERKSs
008431fc g     F .text	00000054 __extendsfdf2
0085f0e4  w    O .bss	00000008 _ZGVNSt11__timepunctIcE2idE
0085aa8c  w    O .rodata	00000024 _ZTVN10__cxxabiv119__pointer_type_infoE
00801720 g     F .text	00000050 _ZN7PIO_BusD2Ev
008133e0  w    F .text	000000c4 _ZNSt8numpunctIcEC1Em
0085a450  w    O .rodata	00000010 _ZTVSt8ios_base
0086011c g     O .bss	00000028 _ZN14__gnu_internal13buf_cerr_syncE
0080eda0  w    F .text	00000044 _ZNKSt9money_putIcSt19ostreambuf_iteratorIcSt11char_traitsIcEEE3putES3_bRSt8ios_basece
00852d44 g     F .text	00000074 __adddf3
0085274c g     F .text	00000078 __nesf2
00836ce4 g     F .text	000000c8 _ZSt14__convert_to_vIfEvPKcRT_RSt12_Ios_IostateRKPi
00859840  w    O .rodata	0000000f _ZTSSt8numpunctIcE
00859e68  w    O .rodata	0000002c _ZTVN10__cxxabiv120__si_class_type_infoE
0082c3a0  w    F .text	00000068 _ZStlsIcSt11char_traitsIcEERSt13basic_ostreamIT_T0_ES6_St8_Setbase
0085f104  w    O .bss	00000008 _ZGVNSt7collateIcE2idE
00811348  w    F .text	00000010 _ZNSt14codecvt_bynameIcc10_mbstate_tED1Ev
00810c28  w    F .text	00000058 _ZSt9use_facetISt7num_putIcSt19ostreambuf_iteratorIcSt11char_traitsIcEEEERKT_RKSt6locale
008421d0  w    F .text	00000008 _ZThn8_NSdD0Ev
00833e1c  w    F .text	000000bc _ZNSsD1Ev
00850464 g     F .text	00000120 __b2d
0082c158  w    F .text	00000008 _ZNSolsEPFRSoS_E
00842484 g     F .text	00000010 _ZNSt8bad_castD1Ev
00842c4c g     F .text	000005b0 __umoddi3
00854838 g     F .text	000000f0 lseek
008598fc  w    O .rodata	0000000f _ZTSSt10money_base
00834b2c  w    F .text	0000003c _ZNSs3endEv
00807a94  w    F .text	00000010 _ZNSt9basic_iosIcSt11char_traitsIcEED2Ev
0085a540  w    O .rodata	00000014 _ZTVSt11logic_error
00838834 g     F .text	00000030 _ZNK10__cxxabiv117__class_type_info11__do_upcastEPKS0_PKvRNS0_15__upcast_resultE
00837aa0 g     F .text	0000000c _ZdlPv
0083e1cc  w    F .text	0000016c _ZNSt13basic_filebufIcSt11char_traitsIcEE6xsputnEPKcl
00812540  w    F .text	000000c0 _ZNSt8messagesIcEC2Em
00809bbc  w    F .text	000001e0 _ZNSi4peekEv
0083b180  w    F .text	00000034 _ZNSt12length_errorD0Ev
0085d140 g     O .rwdata	00000004 _global_impure_ptr
00810a18  w    F .text	00000058 _ZSt9use_facetISt11__timepunctIcEERKT_RKSt6locale
0085d124 g     O .rwdata	00000004 _ZNSt10money_base18_S_default_patternE
00836fcc g     F .text	00000034 _ZN10__cxxabiv121__vmi_class_type_infoD0Ev
00851294 g     F .text	000005f4 _realloc_r
0085d090 g     O .rwdata	00000001 _ZNSt10ctype_base5lowerE
0085d0fc g     O .rwdata	00000004 _ZNSt8ios_base6binaryE
00860658 g       *ABS*	00000000 __bss_end
0085cfe4  w    O .rwdata	00000003 _ZTSPy
008571d8 g     F .text	000000f8 alt_iic_isr_register
0085d01c  w    O .rwdata	00000004 _ZTSPKi
0085fca4 g     O .bss	0000000c _ZN14__gnu_internal13moneypunct_ctE
0085a14c  w    O .rodata	00000010 _ZTIPb
008574a4 g     F .text	0000010c alt_tick
00859450  w    O .rodata	0000000c _ZTISt15messages_bynameIcE
008433d4 g     F .text	00000010 _Unwind_SjLj_Register
00813504  w    F .text	00000054 _ZNSt18__moneypunct_cacheIcLb1EEC2Em
0080fae8  w    F .text	00000010 _ZNSt8time_putIcSt19ostreambuf_iteratorIcSt11char_traitsIcEEED1Ev
008602c8 g     O .bss	00000100 __hexdig
0082c478  w    F .text	000000a0 _ZNSo6sentryD1Ev
00842670 g     F .text	000005dc __udivdi3
008312f4  w    F .text	000000d8 _ZNSt15basic_streambufIcSt11char_traitsIcEE6xsputnEPKcl
0085a2e4  w    O .rodata	00000014 _ZTVSt14overflow_error
008146cc  w    F .text	00000018 _ZNSt15time_put_bynameIcSt19ostreambuf_iteratorIcSt11char_traitsIcEEEC1EPKcm
0083bfb0 g     F .text	00000068 _ZNSt8ios_base5imbueERKSt6locale
0083aee0 g     F .text	00000190 _ZSt20__throw_length_errorPKc
0085b204 g     O .rodata	00000028 __mprec_bigtens
008510fc g     F .text	00000120 __s2b
008083a8  w    F .text	00000064 _ZNSi7getlineEPcl
00843cf8 g     F .text	00000018 abort
00840164  w    F .text	00000184 _ZNSt14basic_ofstreamIcSt11char_traitsIcEEC1Ev
00830d7c  w    F .text	0000000c _ZNSt15basic_streambufIcSt11char_traitsIcEE9pubsetbufEPcl
0082ea8c  w    F .text	00000368 _ZNSolsEPKv
0085cecf  w    O .rwdata	00000001 _ZNSt17moneypunct_bynameIcLb1EE4intlE
0080f85c  w    F .text	000000b0 _ZSt14__add_groupingIcEPT_S1_S0_PKcmPKS0_S5_
00853948 g     F .text	00000194 __floatunsidf
0082bab8  w    F .text	00000008 _ZN9__gnu_cxx18stdio_sync_filebufIcSt11char_traitsIcEE4syncEv
008115b0  w    F .text	00000034 _ZNSt12ctype_bynameIcED0Ev
00807c74  w    F .text	00000010 _ZNKSt9basic_iosIcSt11char_traitsIcEE3eofEv
00831954  w    F .text	000000bc _ZNSs4_Rep10_M_refcopyEv
00858f00  w    O .rodata	00000028 _ZTVSi
0085a1e0  w    O .rodata	0000002c _ZTVSt7codecvtIcc10_mbstate_tE
00850384 g     F .text	00000060 __mcmp
00855ff0 g     F .text	000000c8 altera_avalon_uart_init
0085f128 g     O .bss	00000004 _ZN14__gnu_internal8c_localeE
0080ab30  w    F .text	000001c8 _ZNSirsEPSt15basic_streambufIcSt11char_traitsIcEE
00830eb0  w    F .text	00000008 _ZNSt15basic_streambufIcSt11char_traitsIcEE6setbufEPcl
0085d091 g     O .rwdata	00000001 _ZNSt10ctype_base5alphaE
0085cf4c  w    O .rwdata	00000008 _ZTIy
0085a774  w    O .rodata	00000028 _ZTCSt13basic_fstreamIcSt11char_traitsIcEE0_Si
0085d138 g     O .rwdata	00000004 __ctype_ptr
008378e4 g     F .text	000000a4 __cxa_end_catch
0080269c g     F .text	000001a8 _ZN4UARTC2Emmj
00858ef4  w    O .rodata	0000000c _ZTISt9basic_iosIcSt11char_traitsIcEE
008442bc g     F .text	00000018 __fp_lock_all
00836a04 g     F .text	0000008c _ZNSt12__basic_fileIcE6xsgetnEPcl
008599cc  w    O .rodata	00000018 _ZTISo
00857190 g     F .text	00000048 alt_ic_irq_enabled
00838d7c g     F .text	00000010 _ZNSt13bad_exceptionD2Ev
008088b0  w    F .text	000001f0 _ZNSi5seekgESt4fposI10_mbstate_tE
00859f9c  w    O .rodata	00000010 _ZTIPKf
008601b8 g     O .bss	00000074 _ZN14__gnu_internal7buf_cinE
0080faf8  w    F .text	00000010 _ZNSt8time_putIcSt19ostreambuf_iteratorIcSt11char_traitsIcEEED2Ev
0085740c g     F .text	00000098 alt_alarm_stop
0085d10c g     O .rwdata	00000004 _ZNSt8ios_base3begE
0080f7f4  w    F .text	00000030 _ZNKSt7collateIcE9transformEPKcS2_
00802878  w    F .text	00000074 _ZN4FIFOIcE6isFullEv
0080fb5c  w    F .text	00000034 _ZNSt7num_putIcSt19ostreambuf_iteratorIcSt11char_traitsIcEEED0Ev
0083118c  w    F .text	000000dc _ZNSt15basic_streambufIcSt11char_traitsIcEE6xsgetnEPcl
00808480  w    F .text	00000068 _ZStrsIcSt11char_traitsIcEERSt13basic_istreamIT_T0_ES6_St8_Setbase
008083a0  w    F .text	00000004 _ZStrsISt11char_traitsIcEERSt13basic_istreamIcT_ES5_Pa
00851d74 g     F .text	00000024 strtol
008317b4  w    F .text	0000000c _ZNKSs4_Rep12_M_is_sharedEv
00839a48 g     F .text	0000006c _ZNKSt5ctypeIcE10do_toupperEPcPKc
00807d70  w    F .text	00000140 _ZNSt9basic_iosIcSt11char_traitsIcEE5imbueERKSt6locale
0082dd98  w    F .text	00000004 _ZStlsISt11char_traitsIcEERSt13basic_ostreamIcT_ES5_PKh
0080e668  w    F .text	00000030 _ZNKSt10moneypunctIcLb0EE13positive_signEv
0085f12c g     O .bss	00000008 _ZN14__gnu_internal9num_get_cE
00859f8c  w    O .rodata	00000010 _ZTIPd
008316c0  w    F .text	00000008 _ZNKSs7_M_dataEv
00811e5c  w    F .text	00000034 _ZNSt17moneypunct_bynameIcLb1EED0Ev
00832e00  w    F .text	00000060 _ZNSsC2ERKSsmmRKSaIcE
0085f190 g     O .bss	00000004 alt_irq_active
00803f28 g     F .text	00000434 _ZNKSt6locale4nameEv
00836820 g     F .text	00000004 _ZNSt12__basic_fileIcED1Ev
00838b74 g     F .text	00000018 _ZSt9terminatev
0083956c g     F .text	000000dc _ZNSt7codecvtIcc10_mbstate_tED2Ev
0085d03c  w    O .rwdata	00000002 _ZTSs
00834cb0  w    F .text	00000008 _ZNSs6resizeEm
0080c840 g     F .text	0000046c _ZNSi6ignoreEli
0083b0a4  w    F .text	00000010 _ZNSt15underflow_errorD1Ev
008355f4 g     F .text	0000005c _ZNSt10money_base20_S_construct_patternEccc
00841100  w    F .text	000001c0 _ZNSt13basic_fstreamIcSt11char_traitsIcEED0Ev
0083a710 g     F .text	00000190 _ZSt24__throw_invalid_argumentPKc
0085ab0c  w    O .rodata	00000024 _ZTVN10__cxxabiv117__pbase_type_infoE
010040ec g     F .exceptions	000000c8 alt_irq_handler
0085ce44  w    O .rwdata	00000008 _ZTI3PIO
00834360  w    F .text	00000040 _ZNSs6assignEPKc
00823954  w    F .text	00000204 _ZNKSt7num_getIcSt19istreambuf_iteratorIcSt11char_traitsIcEEE6do_getES3_S3_RSt8ios_baseRSt12_Ios_IostateRf
0085bb60 g     O .rwdata	00000028 alt_dev_null
00847248 g     F .text	00000068 _strdup_r
00832adc  w    F .text	00000104 _ZNSs4_Rep7_M_grabERKSaIcES2_
008349ac  w    F .text	00000050 _ZNSs6insertEmRKSsmm
0080e5b0  w    F .text	0000002c _ZNKSt10moneypunctIcLb0EE13decimal_pointEv
00803c78 g     F .text	00000010 _ZNSt6locale5facet18_S_initialize_onceEv
00859888  w    O .rodata	00000020 _ZTISt23__codecvt_abstract_baseIcc10_mbstate_tE
0083baf4 g     F .text	00000008 _ZNKSt8ios_base7failure4whatEv
0083b24c g     F .text	00000064 _ZNSt8ios_base20_M_dispose_callbacksEv
0082b7e8  w    F .text	0000012c _ZSt16__convert_from_vIeEiPciPKcT_RKPii
0083cbcc g     F .text	0000010c _ZNSt11logic_errorD0Ev
00811ea0  w    F .text	00000010 _ZNSt17moneypunct_bynameIcLb1EED2Ev
0085d020  w    O .rwdata	00000003 _ZTSPi
00836678 g     F .text	00000094 _ZNSt12__basic_fileIcE8sys_openEP7__sFILESt13_Ios_Openmode
0085985c  w    O .rodata	0000002c _ZTSSt23__codecvt_abstract_baseIcc10_mbstate_tE
0085cfd8  w    O .rwdata	00000003 _ZTSPf
0085a11c  w    O .rodata	00000010 _ZTIPKw
0084391c g     F .text	000000c8 __unpack_f
00817b7c  w    F .text	000001b0 _ZNSt14collate_bynameIcEC2EPKcm
0085cfcc  w    O .rwdata	00000003 _ZTSPd
0081480c  w    F .text	000002b4 _ZNKSt8time_putIcSt19ostreambuf_iteratorIcSt11char_traitsIcEEE3putES3_RSt8ios_basecPK2tmPKcSB_
00832570  w    F .text	00000050 _ZNKSs13find_first_ofEPKcm
00813030  w    F .text	00000018 _ZNSt7num_putIcSt19ostreambuf_iteratorIcSt11char_traitsIcEEEC2Em
0083a03c g     F .text	0000004c _ZNKSt5ctypeIcE10do_tolowerEc
00801398 g     F .text	00000050 _ZN3PIOD2Ev
0080d130 g     F .text	000004f4 _ZSt7getlineIcSt11char_traitsIcESaIcEERSt13basic_istreamIT_T0_ES7_RSbIS4_S5_T1_ES4_
0085f134 g     O .bss	00000008 _ZN14__gnu_internal9num_put_cE
00803e10 g     F .text	00000118 _ZNSt6locale5_Impl16_M_install_cacheEPKNS_5facetEm
00859e38  w    O .rodata	00000022 _ZTSN10__cxxabiv117__class_type_infoE
00849a44 g     F .text	00000004 __tz_unlock
008024f4 g     F .text	000001a8 _ZN4UARTC1Emmj
00810264  w    F .text	000000f4 _ZSt9has_facetISt10moneypunctIcLb0EEEbRKSt6locale
0080821c  w    F .text	00000008 _ZNSirsEPFRSiS_E
0085d0ec g     O .rwdata	00000004 _ZNSt8ios_base7failbitE
0085ced8  w    O .rwdata	00000008 _ZTISt9time_base
00833be8  w    F .text	000000e8 _ZNSs6appendERKSsmm
00856b48 g     F .text	00000044 alt_dcache_flush_all
00850250 g     F .text	00000070 __hi0bits
0085cf54  w    O .rwdata	00000008 _ZTIx
0081472c  w    F .text	000000e0 _ZNKSt7num_putIcSt19ostreambuf_iteratorIcSt11char_traitsIcEEE14_M_group_floatEPKcmcS6_PcS7_Ri
00838fd0 g     F .text	00000010 _ZNKSt7codecvtIcc10_mbstate_tE10do_unshiftERS0_PcS3_RS3_
0085d068  w    O .rwdata	00000003 _ZTSPw
0081cc64  w    F .text	00000ad4 _ZNSt18__moneypunct_cacheIcLb0EE8_M_cacheERKSt6locale
0085cf2c  w    O .rwdata	00000008 _ZTISt9exception
0080ef20  w    F .text	00000040 _ZNSt16__numpunct_cacheIcEC1Em
008537fc g     F .text	000000d8 __fixdfsi
0080e870  w    F .text	0000000c _ZNKSt10moneypunctIcLb0EE16do_thousands_sepEv
008138ec  w    F .text	0000009c _ZNKSt8numpunctIcE12do_falsenameEv
008325c0  w    F .text	00000010 _ZNKSs4rendEv
00831c68  w    F .text	0000000c _ZNKSs4findERKSsm
00859438  w    O .rodata	00000017 _ZTSSt15messages_bynameIcE
0083bea4 g     F .text	0000010c _ZNSt8ios_base7failureD0Ev
00811b5c  w    F .text	00000078 _ZNSt18__moneypunct_cacheIcLb1EED2Ev
00801348 g     F .text	00000050 _ZN3PIOD1Ev
008598d8  w    O .rodata	0000000d _ZTSSt9time_base
0080f3ec  w    F .text	00000018 _ZNKSt11__timepunctIcE15_M_date_formatsEPPKc
008179cc  w    F .text	000001b0 _ZNSt14collate_bynameIcEC1EPKcm
0085d000  w    O .rwdata	00000002 _ZTSm
008317f0  w    F .text	0000014c _ZSt6searchIPKcS1_PFbRS0_S2_EET_S5_S5_T0_S6_T1_
008349fc  w    F .text	0000000c _ZNSs6insertEmRKSs
008499bc g     F .text	0000001c strtod
008597bc  w    O .rodata	00000020 _ZTISt10moneypunctIcLb1EE
00801da0 g     F .text	00000040 _ZN3SPIC2Em
0084202c  w    F .text	00000194 _ZNSdC2EPSt15basic_streambufIcSt11char_traitsIcEE
0085d184 g       *ABS*	00000000 __ram_rwdata_end
0083d66c  w    F .text	00000250 _ZNSt13basic_filebufIcSt11char_traitsIcEEC2Ev
008402f8  w    F .text	00000128 _ZNSt14basic_ofstreamIcSt11char_traitsIcEED1Ev
0080164c g     F .text	00000034 _ZN7PIO_Bus8allPinOnEv
0085a06c  w    O .rodata	00000010 _ZTIPi
01004000 g       *ABS*	00000000 __alt_mem_onchip_memory
0080055c g     F .text	00000020 _ZN3FSM9_spi_menuEv
00837ae8 g     F .text	00000010 _ZNSt9type_infoD1Ev
0085d164 g     O .rwdata	00000008 alt_dev_list
0085f118 g     O .bss	00000004 __new_handler
0085a3d4  w    O .rodata	00000011 _ZTSSt12domain_error
00854fc4 g     F .text	00000120 write
008346a4  w    F .text	00000038 _ZNSs6insertEN9__gnu_cxx17__normal_iteratorIPcSsEEmc
008464fc g     F .text	000000e8 _putc_r
008331c4  w    F .text	00000034 _ZNSsC1EPKcmRKSaIcE
00810bd0  w    F .text	00000058 _ZSt9use_facetISt7num_getIcSt19istreambuf_iteratorIcSt11char_traitsIcEEEERKT_RKSt6locale
0085d0bc g     O .rwdata	00000004 _ZNSt8ios_base10scientificE
008595a0  w    O .rodata	0000003a _ZTSSt7num_putIcSt19ostreambuf_iteratorIcSt11char_traitsIcEEE
00801118 g     F .text	00000020 _ZN3PIO9_init_irqEv
00834ba0  w    F .text	0000004c _ZNSs4rendEv
00837ad8 g     F .text	00000010 _ZNSt9type_infoD0Ev
008527c4 g     F .text	00000078 __gtsf2
0085d154 g     O .rwdata	00000008 _tzname
0083c7b4 g     F .text	00000104 _ZNSt13runtime_errorD1Ev
00812878  w    F .text	000000d8 _ZNSt17__timepunct_cacheIcEC1Em
0083dc2c  w    F .text	000001b0 _ZNSt13basic_filebufIcSt11char_traitsIcEE8overflowEi
00803938 g     F .text	00000210 _ZNSt8ios_base15sync_with_stdioEb
0085b2ac g       *ABS*	00000000 __ram_rodata_end
0080fa50  w    F .text	00000010 _ZNSt21__ctype_abstract_baseIcED1Ev
0085f120 g     O .bss	00000004 _ZNSt7codecvtIcc10_mbstate_tE2idE
00841d98  w    F .text	00000060 _ZNSdD2Ev
00854178 g     F .text	000000d4 fstat
0085cf44  w    O .rwdata	00000008 _ZTIf
0083194c  w    F .text	00000008 _ZNSs12_Alloc_hiderC2EPcRKSaIcE
008598a8  w    O .rodata	00000014 _ZTSSt12ctype_bynameIcE
008545ac g     F .text	00000140 kill
00832da0  w    F .text	00000060 _ZNSsC1ERKSsmmRKSaIcE
0083c6cc g     F .text	00000030 _ZNSt12domain_errorC2ERKSs
0082c62c  w    F .text	000001f0 _ZNSo5seekpESt4fposI10_mbstate_tE
0085367c g     F .text	00000088 __ledf2
00836dac g     F .text	000000d8 _ZSt14__convert_to_vIeEvPKcRT_RSt12_Ios_IostateRKPi
0085d0d8 g     O .rwdata	00000004 _ZNSt8ios_base11adjustfieldE
0085d008  w    O .rwdata	00000003 _ZTSPl
00840ea4  w    F .text	000000fc _ZNSt14basic_ifstreamIcSt11char_traitsIcEED2Ev
0085942c  w    O .rodata	0000000c _ZTISt14codecvt_bynameIcc10_mbstate_tE
0083c69c g     F .text	00000030 _ZNSt12domain_errorC1ERKSs
00814ad0  w    F .text	00000034 _ZNSt15time_put_bynameIcSt19ostreambuf_iteratorIcSt11char_traitsIcEEED0Ev
00806f7c  w    F .text	000001f4 _ZN9__gnu_cxx13stdio_filebufIcSt11char_traitsIcEEC2EiSt13_Ios_Openmodem
0083b23c  w    F .text	00000010 _ZNSt12domain_errorD1Ev
00832d6c  w    F .text	00000034 _ZNSsC2IPcEET_S1_RKSaIcE
00810540  w    F .text	000000f4 _ZSt9has_facetISt8numpunctIcEEbRKSt6locale
00830e18  w    F .text	0000000c _ZNSt15basic_streambufIcSt11char_traitsIcEE7pubsyncEv
008597fc  w    O .rodata	00000019 _ZTSSt17__timepunct_cacheIcE
0085a0ac  w    O .rodata	00000010 _ZTIPs
00807d54  w    F .text	0000001c _ZNKSt9basic_iosIcSt11char_traitsIcEEcvPvEv
00850fdc g     F .text	00000120 __pow5mult
00834f50  w    F .text	0000014c _ZStplIcSt11char_traitsIcESaIcEESbIT_T0_T1_ES3_RKS6_
0080d624 g     F .text	0000056c _ZStrsIcSt11char_traitsIcESaIcEERSt13basic_istreamIT_T0_ES7_RSbIS4_S5_T1_E
00858fb4  w    O .rodata	00000010 _ZTVSt16__numpunct_cacheIcE
0085d0b0 g     O .rwdata	00000004 _ZNSt8ios_base4leftE
0085f170 g     O .bss	00000004 __nlocale_changed
0083b070  w    F .text	00000034 _ZNSt15underflow_errorD0Ev
008433cc g     F .text	00000008 __umodsi3
00837ad0 g     F .text	00000008 _ZNKSt9type_info11__do_upcastEPKN10__cxxabiv117__class_type_infoEPPv
00815f10  w    F .text	000003ec _ZNKSt8time_getIcSt19istreambuf_iteratorIcSt11char_traitsIcEEE11do_get_yearES3_S3_RSt8ios_baseRSt12_Ios_IostateP2tm
0083ece4  w    F .text	00000180 _ZNSt13basic_filebufIcSt11char_traitsIcEE7seekposESt4fposI10_mbstate_tESt13_Ios_Openmode
0082c194  w    F .text	00000034 _ZNSolsEPFRSt8ios_baseS0_E
008358b0 g     F .text	000000d0 _ZNSt10moneypunctIcLb1EED0Ev
0082edf4  w    F .text	00000378 _ZNSolsEe
008353fc  w    F .text	00000064 _ZNSs7replaceEmmPKc
0080f90c  w    F .text	0000006c _ZNKSt7num_putIcSt19ostreambuf_iteratorIcSt11char_traitsIcEEE12_M_group_intEPKcmcRSt8ios_basePcS9_Ri
00859150  w    O .rodata	00000018 _ZTVSt9money_putIcSt19ostreambuf_iteratorIcSt11char_traitsIcEEE
0085cfec  w    O .rwdata	00000004 _ZTSPKx
008134d4  w    F .text	00000018 _ZNSt9money_getIcSt19istreambuf_iteratorIcSt11char_traitsIcEEEC1Em
0085f154 g     O .bss	00000008 _ZN14__gnu_internal10time_put_cE
0082cbdc  w    F .text	00000088 _ZNSo6sentryC2ERSo
0080f3bc  w    F .text	00000030 _ZNKSt7num_putIcSt19ostreambuf_iteratorIcSt11char_traitsIcEEE3putES3_RSt8ios_basecPKv
00800688 g     F .text	00000058 _ZN3FSMD0Ev
0085f124 g     O .bss	00000004 _ZNSt5ctypeIcE2idE
00860658 g       *ABS*	00000000 end
00840fa0  w    F .text	00000010 _ZTv0_n12_NSt14basic_ifstreamIcSt11char_traitsIcEED0Ev
00835588 g     F .text	00000004 _ZN9__gnu_cxx12__atomic_addEPVii
00836b10 g     F .text	000000b4 _ZNSt12__basic_fileIcE8sys_openEiSt13_Ios_Openmode
00853e30 g     F .text	00000160 __pack_f
0083c32c g     F .text	00000030 _ZNSt15underflow_errorC2ERKSs
00835460  w    F .text	0000005c _ZNSs7replaceEmmRKSsmm
00800790 g     F .text	000008f0 _ZN3FSM5_initEv
00831c1c  w    F .text	00000030 _ZNKSs2atEm
0085d060  w    O .rwdata	00000002 _ZTSc
00831014  w    F .text	00000020 _ZNSt15basic_streambufIcSt11char_traitsIcEE5sgetcEv
008343a0  w    F .text	00000050 _ZNSs6assignERKSsmm
0080781c  w    F .text	0000000c _ZNSt9basic_iosIcSt11char_traitsIcEE3tieEPSo
00833078  w    F .text	00000034 _ZNSsC1IPcEET_S1_RKSaIcE
008316e8  w    F .text	00000010 _ZNKSs7_M_iendEv
0085d095 g     O .rwdata	00000001 _ZNSt10ctype_base5alnumE
00856680 g     F .text	000001c8 altera_avalon_uart_write
00843594 g     F .text	00000018 _Unwind_DeleteException
0085d130 g     O .rwdata	00000004 _ZNSt10__num_base12_S_atoms_outE
008450b0 g     F .text	00000024 fseek
0085d010  w    O .rwdata	00000004 _ZTSPKj
0080e5a0  w    F .text	00000010 _ZNKSt5ctypeIcE9do_narrowEcc
0085535c g     F .text	000000c0 altera_avalon_jtag_uart_init
0080ef14  w    F .text	0000000c _ZNKSt8numpunctIcE16do_thousands_sepEv
00812a28  w    F .text	00000150 _ZNSt11__timepunctIcEC1EPiPKcm
0083cd14  w    F .text	00000040 _ZNSt13basic_filebufIcSt11char_traitsIcEE16_M_destroy_pbackEv
00831748  w    F .text	00000008 _ZNKSs5beginEv
00859704  w    O .rodata	0000000c _ZTISt17moneypunct_bynameIcLb1EE
00837010 g     F .text	00000010 _ZN10__cxxabiv121__vmi_class_type_infoD2Ev
00824254  w    F .text	000006c4 _ZNKSt7num_putIcSt19ostreambuf_iteratorIcSt11char_traitsIcEEE15_M_insert_floatIdEES3_S3_RSt8ios_baseccT_
00858a7c g       *ABS*	00000000 __CTOR_LIST__
0085d0ac g     O .rwdata	00000004 _ZNSt8ios_base8internalE
0085912c  w    O .rodata	00000024 _ZTVSt15numpunct_bynameIcE
01000000 g       *ABS*	00000000 __alt_stack_pointer
008344fc  w    F .text	00000018 _ZNSs7replaceEN9__gnu_cxx17__normal_iteratorIPcSsEES2_mc
0085f1a8  w    O .bss	00000010 _ZNSs4_Rep20_S_empty_rep_storageE
0085a00c  w    O .rodata	00000010 _ZTIPm
00830eac  w    F .text	00000004 _ZNSt15basic_streambufIcSt11char_traitsIcEE5imbueERKSt6locale
00813c94  w    F .text	0000009c _ZNKSt10moneypunctIcLb1EE11do_groupingEv
0083c140 g     F .text	00000008 _ZNKSt13runtime_error4whatEv
0080a2f4  w    F .text	00000054 _ZNSi3getERSt15basic_streambufIcSt11char_traitsIcEE
00855f50 g     F .text	00000058 altera_avalon_uart_write_fd
00853adc g     F .text	00000080 __clzsi2
0085d0f8 g     O .rwdata	00000004 _ZNSt8ios_base3ateE
0080f778  w    F .text	0000000c _ZNKSt8messagesIcE4openERKSsRKSt6locale
00858f74  w    O .rodata	00000040 _ZTVSt21__ctype_abstract_baseIcE
00851a7c g     F .text	000000b4 _snprintf_r
0085a568  w    O .rodata	0000000c _ZTISt13runtime_error
00855fa8 g     F .text	00000048 altera_avalon_uart_close_fd
00808308  w    F .text	00000018 _ZStrsIcSt11char_traitsIcEERSt13basic_istreamIT_T0_ES6_St13_Setprecision
008386f4 g     F .text	0000006c _ZNK10__cxxabiv117__class_type_info11__do_upcastEPKS0_PPv
00855a80 g     F .text	00000240 altera_avalon_jtag_uart_write
0083f17c  w    F .text	000000ec _ZNSt13basic_filebufIcSt11char_traitsIcEE6setbufEPcl
0085ce84 g     O .rwdata	00000004 _ZNSt6locale4noneE
00830ec8  w    F .text	00000008 _ZNSt15basic_streambufIcSt11char_traitsIcEE9underflowEv
0082494c  w    F .text	00000f48 _ZNKSt7num_getIcSt19istreambuf_iteratorIcSt11char_traitsIcEEE14_M_extract_intItEES3_S3_S3_RSt8ios_baseRSt12_Ios_IostateRT_
008146fc  w    F .text	00000018 _ZNSt15time_get_bynameIcSt19istreambuf_iteratorIcSt11char_traitsIcEEEC1EPKcm
008441e0 g     F .text	00000004 __sfp_lock_acquire
00859f0c  w    O .rodata	00000012 _ZTSSt13bad_exception
00859630  w    O .rodata	00000017 _ZTSSt15numpunct_bynameIcE
00813ac0  w    F .text	0000009c _ZNKSt10moneypunctIcLb1EE16do_negative_signEv
0085f08c  w    O .bss	00000004 _ZNSt8numpunctIcE2idE
00845f98 g     F .text	000000e4 memchr
00849d34 g     F .text	00001eac ___vfprintf_internal_r
0085a37c  w    O .rodata	00000014 _ZTVSt12length_error
00813d30  w    F .text	00000014 _ZNKSt8messagesIcE20_M_convert_from_charEPc
00846e28 g     F .text	00000060 _sprintf_r
0085d048  w    O .rwdata	00000002 _ZTSh
00802160 g     F .text	00000080 _ZN4UART13buffer_putstrEPKc
0085d093 g     O .rwdata	00000001 _ZNSt10ctype_base5punctE
00844960 g     F .text	00000314 _free_r
008594e8  w    O .rodata	00000020 _ZTISt8time_getIcSt19istreambuf_iteratorIcSt11char_traitsIcEEE
0085d0c0 g     O .rwdata	00000004 _ZNSt8ios_base8showbaseE
008597f0  w    O .rodata	0000000c _ZTISt11__timepunctIcE
00858fe4  w    O .rodata	0000001c _ZTVSt14collate_bynameIcE
0080f790  w    F .text	00000040 _ZNKSt8messagesIcE3getEiiiRKSs
00824918  w    F .text	00000034 _ZNKSt7num_putIcSt19ostreambuf_iteratorIcSt11char_traitsIcEEE6do_putES3_RSt8ios_basecd
00835398  w    F .text	0000001c _ZNSs7replaceEN9__gnu_cxx17__normal_iteratorIPcSsEES2_S2_S2_
0085cef0  w    O .rwdata	00000008 _ZTISt12codecvt_base
00807814  w    F .text	00000008 _ZNKSt9basic_iosIcSt11char_traitsIcEE3tieEv
00806d18  w    F .text	00000008 _ZN9__gnu_cxx13stdio_filebufIcSt11char_traitsIcEE4fileEv
00801b50 g     F .text	00000050 _ZN7PIO_PinD0Ev
00832720  w    F .text	00000034 _ZNSsC1ERKSaIcE
0085d0d0 g     O .rwdata	00000004 _ZNSt8ios_base7unitbufE
00802350 g     F .text	0000008c _ZN4UARTD0Ev
008309cc  w    F .text	000003b0 _ZNSolsEs
0083e58c  w    F .text	00000050 _ZNSt14basic_ifstreamIcSt11char_traitsIcEE5closeEv
00858c08  w    O .rodata	00000009 _ZTS7PIO_Pin
008577e4 g     F .text	000001b0 __call_exitprocs
008467c4 g     F .text	0000004c __srget_r
0082a788  w    F .text	0000003c _ZNKSt7num_getIcSt19istreambuf_iteratorIcSt11char_traitsIcEEE6do_getES3_S3_RSt8ios_baseRSt12_Ios_IostateRx
008317cc  w    F .text	00000008 _ZNSs4_Rep15_M_set_sharableEv
0082421c  w    F .text	00000038 _ZNKSt7num_putIcSt19ostreambuf_iteratorIcSt11char_traitsIcEEE6do_putES3_RSt8ios_basece
00806d28  w    F .text	00000030 _ZN9__gnu_cxx13stdio_filebufIcSt11char_traitsIcEEC1Ev
00858c88  w    O .rodata	00000009 _ZTS4FIFOIcE
0083b2b0 g     F .text	00000120 _ZNSt8ios_base17_M_call_callbacksENS_5eventE
00813bf8  w    F .text	0000009c _ZNKSt10moneypunctIcLb1EE14do_curr_symbolEv
0085cf10  w    O .rwdata	00000004 _ZNSs4_Rep11_S_max_sizeE
008393c0 g     F .text	000000d0 _ZNSt7codecvtIcc10_mbstate_tEC1Em
0085f174 g     O .bss	00000004 __mlocale_changed
0082ce90  w    F .text	0000004c _ZNSoD0Ev
00813988  w    F .text	0000009c _ZNKSt8numpunctIcE11do_truenameEv
0080ccac g     F .text	00000484 _ZNSi7getlineEPclc
0083b1b4  w    F .text	00000010 _ZNSt12length_errorD1Ev
00810910  w    F .text	00000058 _ZSt9use_facetISt8messagesIcEERKT_RKSt6locale
0085d150 g     O .rwdata	00000004 __malloc_sbrk_base
00839c44 g     F .text	00000094 _ZNSt5ctypeIcEC2EPiPKcbm
00800194 g     F .text	0000004c _start
00831268  w    F .text	00000020 _ZNSt15basic_streambufIcSt11char_traitsIcEE8in_availEv
0085a584  w    O .rodata	0000000c _ZTISt11logic_error
00835f18 g     F .text	000000c8 _ZNSt8numpunctIcED2Ev
00831784  w    F .text	00000008 _ZNKSs4dataEv
0080f824  w    F .text	0000000c _ZNKSt7collateIcE4hashEPKcS2_
0085f1a0 g     O .bss	00000004 _alt_tick_rate
00858ed0  w    O .rodata	00000022 _ZTSSt9basic_iosIcSt11char_traitsIcEE
00851d98 g     F .text	00000318 _strtoll_r
0083679c g     F .text	00000084 _ZNSt12__basic_fileIcE5closeEv
0085f0bc  w    O .bss	00000008 _ZGVNSt9money_getIcSt19istreambuf_iteratorIcSt11char_traitsIcEEE2idE
00842598 g     F .text	00000010 _ZN10__cxxabiv117__pbase_type_infoD2Ev
00859dfc  w    O .rodata	0000000d _ZTSSt9type_info
00802b78  w    F .text	0000006c _ZN4FIFOIcED0Ev
00807364  w    F .text	000001f4 _ZN9__gnu_cxx13stdio_filebufIcSt11char_traitsIcEEC1EiSt13_Ios_Openmodem
00831778  w    F .text	0000000c _ZNKSs8capacityEv
008316c8  w    F .text	0000000c _ZNSs7_M_dataEPc
00801988 g     F .text	00000058 _ZN8PIO_LVDSD2Ev
00835e50 g     F .text	000000c8 _ZNSt8numpunctIcED1Ev
0083c2fc g     F .text	00000030 _ZNSt15underflow_errorC1ERKSs
0082c250  w    F .text	00000108 _ZNSoC1EPSt15basic_streambufIcSt11char_traitsIcEE
00838a78 g     F .text	00000020 __cxa_pure_virtual
00811d88  w    F .text	00000010 _ZNSt15numpunct_bynameIcED2Ev
00859380  w    O .rodata	0000000c _ZTISt16__numpunct_cacheIcE
00850b6c g     F .text	0000014c __lshift
008316f8  w    F .text	00000018 _ZNKSs8_M_limitEmm
00855cc0 g     F .text	00000238 alt_avalon_spi_command
0085a1b0  w    O .rodata	00000014 _ZTVSt9bad_alloc
008302bc  w    F .text	000003a4 _ZNSolsEi
0085f1a4 g     O .bss	00000004 _alt_nticks
0085928c  w    O .rodata	0000001c _ZTVSt7collateIcE
00846d20 g     F .text	0000001c signal
00854cf8 g     F .text	00000120 read
00834430  w    F .text	000000cc _ZNSs14_M_replace_auxEmmmc
0081414c  w    F .text	000000d0 _ZNSt10moneypunctIcLb0EEC1EPSt18__moneypunct_cacheIcLb0EEm
0082c81c  w    F .text	000001a8 _ZNSo5tellpEv
00855178 g     F .text	00000064 alt_sys_init
0083fe3c  w    F .text	000001e8 _ZNSt14basic_ofstreamIcSt11char_traitsIcEEC1EPKcSt13_Ios_Openmode
0080f72c  w    F .text	00000044 _ZNKSt8time_getIcSt19istreambuf_iteratorIcSt11char_traitsIcEEE8get_yearES3_S3_RSt8ios_baseRSt12_Ios_IostateP2tm
0085d074  w    O .rwdata	00000003 _ZTSPb
00833558  w    F .text	000000fc _ZNSsC2ERKSs
0085a0cc  w    O .rodata	00000010 _ZTIPh
0083178c  w    F .text	00000008 _ZNKSs13get_allocatorEv
0085a12c  w    O .rodata	00000010 _ZTIPw
0085aa80  w    O .rodata	0000000c _ZTISt10bad_typeid
00846308 g     F .text	00000078 _open_r
0085d128 g     O .rwdata	00000004 _ZNSt10money_base8_S_atomsE
008576ac g     F .text	00000134 __register_exitproc
0085a1c4  w    O .rodata	0000000d _ZTSSt9bad_alloc
0085d0d4 g     O .rwdata	00000004 _ZNSt8ios_base9uppercaseE
00836830 g     F .text	00000078 _ZNSt12__basic_fileIcE9showmanycEv
008471a4 g     F .text	00000004 strcoll
0083b770 g     F .text	0000005c _ZNSt8ios_baseC2Ev
00802ec8 g     F .text	000000f8 _ZNSt8ios_base4InitD2Ev
0085a8ec  w    O .rodata	0000000c _ZTISt13basic_fstreamIcSt11char_traitsIcEE
0082fbdc  w    F .text	00000378 _ZNSolsEx
0080f180  w    F .text	00000044 _ZNKSt7num_getIcSt19istreambuf_iteratorIcSt11char_traitsIcEEE3getES3_S3_RSt8ios_baseRSt12_Ios_IostateRd
0082e154  w    F .text	00000010 _ZStlsISt11char_traitsIcEERSt13basic_ostreamIcT_ES5_a
0081367c  w    F .text	0000009c _ZNKSt10moneypunctIcLb0EE16do_negative_signEv
0080828c  w    F .text	00000008 _ZNKSi6gcountEv
00831b88  w    F .text	00000094 _ZNKSs4findEPKcmm
008313cc  w    F .text	000000d8 _ZNSt15basic_streambufIcSt11char_traitsIcEE8pubimbueERKSt6locale
0080eed8  w    F .text	00000030 _ZNKSt8numpunctIcE9falsenameEv
0085cf8c  w    O .rwdata	00000008 _ZTIh
008022b0 g     F .text	00000040 _ZN4UART14buffer_getcharEv
0085aa14  w    O .rodata	00000028 _ZTCSd8_So
008029f0  w    F .text	00000040 _ZN4FIFOIcE21_triggerFullConditionEv
008346dc  w    F .text	00000050 _ZNSs5eraseEN9__gnu_cxx17__normal_iteratorIPcSsEES2_
0080e9c0  w    F .text	00000030 _ZNKSt10moneypunctIcLb1EE13positive_signEv
00841cfc  w    F .text	00000010 _ZTv0_n12_NSdD1Ev
0085f0ec  w    O .bss	00000008 _ZGVNSt8time_putIcSt19ostreambuf_iteratorIcSt11char_traitsIcEEE2idE
00859fdc  w    O .rodata	00000010 _ZTIPKx
0082ff54  w    F .text	00000368 _ZNSolsEj
0085f0b4  w    O .bss	00000008 _ZGVNSt10moneypunctIcLb1EE2idE
0081c27c  w    F .text	000009e8 _ZNKSt9money_putIcSt19ostreambuf_iteratorIcSt11char_traitsIcEEE9_M_insertILb1EEES3_S3_RSt8ios_basecRKSs
00850cb8 g     F .text	000001e8 __multiply
00806910 g     F .text	00000020 _ZNSt6locale7classicEv
00814484  w    F .text	00000008 _ZNKSt8messagesIcE18_M_convert_to_charERKSs
008556f4 g     F .text	00000074 altera_avalon_jtag_uart_close
0085a79c  w    O .rodata	00000028 _ZTCSt13basic_fstreamIcSt11char_traitsIcEE8_So
0085ce4c  w    O .rwdata	00000008 _ZTI7PIO_Bus
0083cdd4  w    F .text	00000008 _ZNKSt14basic_ifstreamIcSt11char_traitsIcEE5rdbufEv
0085b2ac g       *ABS*	00000000 __ram_rwdata_start
008436fc g     F .text	000000f8 _Unwind_SjLj_RaiseException
00858aac g       *ABS*	00000000 __ram_rodata_start
00832354  w    F .text	00000060 _ZNKSs7compareERKSs
00830f90  w    F .text	0000002c _ZNKSt15basic_streambufIcSt11char_traitsIcEE6getlocEv
008602a0 g     O .bss	00000028 __malloc_current_mallinfo
0085f144 g     O .bss	00000008 _ZN14__gnu_internal11money_put_cE
008436a0 g     F .text	0000005c _Unwind_SjLj_Resume
00812860  w    F .text	00000018 _ZNSt8time_putIcSt19ostreambuf_iteratorIcSt11char_traitsIcEEEC1Em
00834a78  w    F .text	00000014 _ZNSs7_M_leakEv
00850864 g     F .text	0000017c __d2b
008023dc g     F .text	0000008c _ZN4UARTD1Ev
008019e0 g     F .text	00000058 _ZN8PIO_LVDSC1EmhN3PIO4ModeE
0085cf6c  w    O .rwdata	00000008 _ZTIj
0080a6fc  w    F .text	00000214 _ZNSi3getERc
00811d78  w    F .text	00000010 _ZNSt15numpunct_bynameIcED1Ev
0085cf3c  w    O .rwdata	00000008 _ZTId
00840a10  w    F .text	0000018c _ZNSt14basic_ifstreamIcSt11char_traitsIcEEC1Ev
00837af8 g     F .text	00000010 _ZNSt9type_infoD2Ev
00830d88  w    F .text	00000040 _ZNSt15basic_streambufIcSt11char_traitsIcEE10pubseekoffExSt12_Ios_SeekdirSt13_Ios_Openmode
00836420 g     F .text	000000a4 _ZNKSt11__timepunctIcE6_M_putEPcmPKcPK2tm
00801164 g     F .text	0000008c _ZN3PIO8setValueEj
0085d0a0 g     O .rwdata	00000004 _ZNSt8ios_base3decE
0083900c g     F .text	00000008 _ZNKSt7codecvtIcc10_mbstate_tE13do_max_lengthEv
008388b0 g     F .text	00000078 _ZNK10__cxxabiv120__si_class_type_info11__do_upcastEPKNS_17__class_type_infoEPKvRNS1_15__upcast_resultE
0083c018 g     F .text	00000050 _ZNSt8ios_base7_M_initEv
0083b1f8  w    F .text	00000010 _ZNSt16invalid_argumentD1Ev
00831750  w    F .text	00000010 _ZNKSs3endEv
0085a03c  w    O .rodata	00000010 _ZTIPKj
0082c1c8  w    F .text	0000001c _ZNSoC2Ev
00801618 g     F .text	00000034 _ZN7PIO_Bus9allPinOffEv
0085cea8  w    O .rwdata	00000008 _ZTINSt6locale5facetE
00859da8  w    O .rodata	00000026 _ZTSN10__cxxabiv121__vmi_class_type_infoE
0085ce3c  w    O .rwdata	00000005 _ZTS3PIO
008099f8  w    F .text	000001c4 _ZNSi4readEPcl
00842374 g     F .text	00000008 _ZNK10__cxxabiv119__pointer_type_info14__is_pointer_pEv
00831a74  w    F .text	0000002c _ZNSs9_M_assignEPcmc
008410f8  w    F .text	00000008 _ZThn8_NSt13basic_fstreamIcSt11char_traitsIcEED0Ev
0085938c  w    O .rodata	0000001e _ZTSSt18__moneypunct_cacheIcLb1EE
0085a1a4  w    O .rodata	0000000c _ZTIN10__cxxabiv123__fundamental_type_infoE
00855214 g     F .text	00000058 altera_avalon_jtag_uart_read_fd
008520b0 g     F .text	00000230 _strtoul_r
0081081c  w    F .text	000000f4 _ZSt9has_facetISt5ctypeIcEEbRKSt6locale
0080053c g     F .text	00000020 _ZN3FSM13_wait_requestEv
00843e44 g     F .text	000000a0 _fdopen_r
00856f1c g     F .text	000000b8 alt_get_fd
0085f0ac  w    O .bss	00000008 _ZGVNSt10moneypunctIcLb0EE2idE
0080f24c  w    F .text	00000030 _ZNKSt7num_putIcSt19ostreambuf_iteratorIcSt11char_traitsIcEEE3putES3_RSt8ios_basecb
00838fe0 g     F .text	0000001c _ZNKSt7codecvtIcc10_mbstate_tE5do_inERS0_PKcS4_RS4_PcS6_RS6_
00831da4  w    F .text	00000064 _ZNKSs5rfindEcm
0085f0dc  w    O .bss	00000008 _ZGVNSt7num_putIcSt19ostreambuf_iteratorIcSt11char_traitsIcEEE2idE
008569fc g     F .text	0000014c alt_busy_sleep
0080fa60  w    F .text	00000034 _ZNSt8time_getIcSt19istreambuf_iteratorIcSt11char_traitsIcEEED0Ev
00802844  w    F .text	00000034 _ZN4FIFOIcE7isEmptyEv
00853d68 g     F .text	000000c8 __fpcmp_parts_d
00839f68 g     F .text	000000d4 _ZNSt5ctypeIcED1Ev
0083b828 g     F .text	000002cc _ZNSt8ios_base13_M_grow_wordsEib
0085a29c  w    O .rodata	00000014 _ZTSSt15underflow_error
00859654  w    O .rodata	0000003c _ZTSSt9money_putIcSt19ostreambuf_iteratorIcSt11char_traitsIcEEE
00809f78  w    F .text	0000037c _ZNSi3getERSt15basic_streambufIcSt11char_traitsIcEEc
0082bc24  w    F .text	0000005c _ZN9__gnu_cxx18stdio_sync_filebufIcSt11char_traitsIcEE8overflowEi
00832258  w    F .text	00000010 _ZNKSs13find_first_ofEcm
0084d790 g     F .text	00000070 _close_r
00811200  w    F .text	00000034 _ZNSt15messages_bynameIcED0Ev
0080f4d0  w    F .text	00000068 _ZNKSt11__timepunctIcE9_M_monthsEPPKc
008598c8  w    O .rodata	0000000f _ZTSSt10ctype_base
00811ae4  w    F .text	00000078 _ZNSt18__moneypunct_cacheIcLb1EED1Ev
0085f080  w    O .bss	00000004 _ZNSt10moneypunctIcLb1EE2idE
0085d134  w    O .rwdata	00000003 _ZTSSd
008592a8  w    O .rodata	00000024 _ZTVSt8numpunctIcE
00807eb0  w    F .text	000000ec _ZNKSt9basic_iosIcSt11char_traitsIcEE5widenEc
00814fd8  w    F .text	00000180 _ZNSt17moneypunct_bynameIcLb0EEC2EPKcm
00813a24  w    F .text	0000009c _ZNKSt8numpunctIcE11do_groupingEv
00827430  w    F .text	00000530 _ZNKSt7num_putIcSt19ostreambuf_iteratorIcSt11char_traitsIcEEE13_M_insert_intIxEES3_S3_RSt8ios_basecT_
00811f78  w    F .text	00000034 _ZNSt17moneypunct_bynameIcLb0EED0Ev
0085cfd4  w    O .rwdata	00000004 _ZTSPKf
008084e8  w    F .text	00000074 _ZNSiC1Ev
0085d04c  w    O .rwdata	00000004 _ZTSPKa
0084607c g     F .text	00000074 memcmp
0082e758  w    F .text	00000008 _ZSt4endsIcSt11char_traitsIcEERSt13basic_ostreamIT_T0_ES6_
008552c4 g     F .text	00000048 altera_avalon_jtag_uart_close_fd
00860658 g       *ABS*	00000000 __alt_stack_base
0085cecc  w    O .rwdata	00000001 _ZNSt10moneypunctIcLb0EE4intlE
0085f13c g     O .bss	00000008 _ZN14__gnu_internal11money_get_cE
00804eac g     F .text	000000e4 _ZNSt6localeD1Ev
0085530c g     F .text	00000050 altera_avalon_jtag_uart_ioctl_fd
0085fce0 g     O .bss	00000068 _ZN14__gnu_internal16numpunct_cache_cE
0082c238  w    F .text	00000018 _ZStlsIcSt11char_traitsIcEERSt13basic_ostreamIT_T0_ES6_St13_Setprecision
008453d4 g     F .text	0000009c _fwrite_r
0085927c  w    O .rodata	00000010 _ZTVSt17__timepunct_cacheIcE
00838dec g     F .text	00000034 _ZNSt9bad_allocD0Ev
00843ee4 g     F .text	0000001c fdopen
00839a04 g     F .text	00000044 _ZNKSt5ctypeIcE10do_toupperEc
00801138 g     F .text	0000002c _ZN3PIO8getValueEv
0083895c g     F .text	00000010 _ZN10__cxxabiv120__si_class_type_infoD1Ev
00838dd0 g     F .text	00000010 _ZN10__cxxabiv123__fundamental_type_infoD2Ev
008077f4  w    F .text	00000008 _ZNKSt9basic_iosIcSt11char_traitsIcEE7rdstateEv
0085f070 g     O .bss	00000004 _ZNSt6locale9_S_globalE
00846f18 g     F .text	00000084 sscanf
00807cfc  w    F .text	00000030 _ZNSt9basic_iosIcSt11char_traitsIcEE5rdbufEPSt15basic_streambufIcS1_E
00830eb8  w    F .text	00000008 _ZNSt15basic_streambufIcSt11char_traitsIcEE4syncEv
0083b12c  w    F .text	00000010 _ZNSt11range_errorD1Ev
0084d63c g     F .text	0000013c __swsetup_r
0085a304  w    O .rodata	00000010 _ZTSSt11range_error
008438c4 g     F .text	00000058 _Unwind_SjLj_Resume_or_Rethrow
00812480  w    F .text	000000c0 _ZNSt7collateIcEC1Em
0080ed08  w    F .text	0000004c _ZNKSt9money_getIcSt19istreambuf_iteratorIcSt11char_traitsIcEEE3getES3_S3_bRSt8ios_baseRSt12_Ios_IostateRe
0085317c g     F .text	00000258 __divdf3
008011f0 g     F .text	00000084 _ZN3PIOC1EmhNS_4ModeE
00844358 g     F .text	000000f0 __sfp
0080e9f0  w    F .text	00000030 _ZNKSt10moneypunctIcLb1EE13negative_signEv
008506c8 g     F .text	00000058 __copybits
0085a3c8  w    O .rodata	0000000c _ZTISt12domain_error
0085aaf4  w    O .rodata	0000000c _ZTSSt8bad_cast
00837ab0 g     F .text	00000008 _ZNKSt9type_info14__is_pointer_pEv
00842440 g     F .text	00000010 _ZN10__cxxabiv119__pointer_type_infoD2Ev
0085d08e g     O .rwdata	00000001 _ZNSt10ctype_base5cntrlE
0083537c  w    F .text	0000001c _ZNSs7replaceEN9__gnu_cxx17__normal_iteratorIPcSsEES2_NS0_IPKcSsEES5_
0085974c  w    O .rodata	00000020 _ZTISt8messagesIcE
0085a2c4  w    O .rodata	0000000c _ZTISt14overflow_error
0080fbe4  w    F .text	00000010 _ZNSt7num_getIcSt19istreambuf_iteratorIcSt11char_traitsIcEEED1Ev
0085b6f0 g     O .rwdata	00000408 __malloc_av_
0081f9b8  w    F .text	000009e8 _ZNKSt9money_putIcSt19ostreambuf_iteratorIcSt11char_traitsIcEEE9_M_insertILb0EEES3_S3_RSt8ios_basecRKSs
008058ec g     F .text	00000058 _ZNSt6locale5_Impl19_M_replace_categoryEPKS0_PKPKNS_2idE
008441ec g     F .text	00000004 __sinit_lock_release
0084d384 g     F .text	000000b4 _vsnprintf_r
00852db8 g     F .text	000003c4 __muldf3
00808338  w    F .text	00000068 _ZStrsIcSt11char_traitsIcEERSt13basic_istreamIT_T0_ES6_St8_SetfillIS3_E
00847088 g     F .text	00000060 __sread
0080347c g     F .text	000004bc _ZNSt8ios_base4InitC1Ev
008447f4 g     F .text	00000040 fread
00859ef8  w    O .rodata	00000014 _ZTVSt9exception
0085d09c g     O .rwdata	00000004 _ZNSt8ios_base9boolalphaE
00836644 g     F .text	0000000c _ZNSt12__basic_fileIcEC2EPi
0085d114 g     O .rwdata	00000004 _ZNSt8ios_base3endE
0085f9e4 g     O .bss	0000000c _ZN14__gnu_internal6name_cE
0085945c  w    O .rodata	00000043 _ZTSSt15time_get_bynameIcSt19istreambuf_iteratorIcSt11char_traitsIcEEE
00856dfc g     F .text	00000120 alt_find_file
008354e0  w    F .text	00000030 _ZNSs7replaceEN9__gnu_cxx17__normal_iteratorIPcSsEES2_RKSs
008310a8  w    F .text	00000014 _ZNSt15basic_streambufIcSt11char_traitsIcEED2Ev
00805074 g     F .text	000000fc _ZNSt6localeaSERKS_
00838760 g     F .text	00000020 _ZNK10__cxxabiv117__class_type_info20__do_find_public_srcElPKvPKS0_S2_
00834a08  w    F .text	00000014 _ZNSs5clearEv
00856b8c g     F .text	000000b4 alt_dev_llist_insert
008549f4 g     F .text	00000020 __malloc_lock
00854ed8 g     F .text	000000bc sbrk
00802104 g     F .text	0000005c _ZN4UART4sendEc
00858c60  w    O .rodata	00000010 _ZTV4UART
0083a8a0 g     F .text	00000190 _ZSt20__throw_domain_errorPKc
0085ce88 g     O .rwdata	00000004 _ZNSt6locale5ctypeE
00847234 g     F .text	00000014 strdup
0083a260 g     F .text	00000190 _ZSt19__throw_logic_errorPKc
0080f610  w    F .text	0000000c _ZNKSt8time_getIcSt19istreambuf_iteratorIcSt11char_traitsIcEEE10date_orderEv
00859e0c  w    O .rodata	0000002c _ZTVN10__cxxabiv117__class_type_infoE
00836ef8 g     F .text	00000074 __cxa_throw
0082b914  w    F .text	0000012c _ZSt16__convert_from_vIdEiPciPKcT_RKPii
00843f00 g     F .text	000001fc _fflush_r
00843458 g     F .text	00000010 _Unwind_SetIP
0083215c  w    F .text	00000088 _ZNKSs13find_first_ofEPKcmm
0080e698  w    F .text	00000030 _ZNKSt10moneypunctIcLb0EE13negative_signEv
008525f4 g     F .text	000000b4 _calloc_r
00820804  w    F .text	000008ec _ZNSt16__numpunct_cacheIcE8_M_cacheERKSt6locale
0082bbb0  w    F .text	00000074 _ZN9__gnu_cxx18stdio_sync_filebufIcSt11char_traitsIcEE6xsgetnEPcl
00839df8 g     F .text	00000094 _ZNSt5ctypeIcEC1EPiPKcbm
00835980 g     F .text	000000c8 _ZNSt10moneypunctIcLb1EED1Ev
0085cf74  w    O .rwdata	00000008 _ZTIi
008286c4  w    F .text	00000ff0 _ZNKSt7num_getIcSt19istreambuf_iteratorIcSt11char_traitsIcEEE14_M_extract_intIyEES3_S3_S3_RSt8ios_baseRSt12_Ios_IostateRT_
0085a35c  w    O .rodata	0000000c _ZTISt12length_error
00831e08  w    F .text	00000010 _ZNKSs12find_last_ofEcm
008077fc  w    F .text	00000010 _ZNKSt9basic_iosIcSt11char_traitsIcEE4failEv
008082bc  w    F .text	00000024 _ZStrsIcSt11char_traitsIcEERSt13basic_istreamIT_T0_ES6_St12_Setiosflags
00849a40 g     F .text	00000004 __tz_lock
008317c0  w    F .text	0000000c _ZNSs4_Rep13_M_set_leakedEv
00807fdc  w    F .text	0000005c _ZNSt9basic_iosIcSt11char_traitsIcEE4fillEc
00801c88 g     F .text	0000005c _ZN7PIO_Pin6toggleEv
00859fbc  w    O .rodata	00000010 _ZTIPKy
0083aa30 g     F .text	00000190 _ZSt19__throw_range_errorPKc
008331f8  w    F .text	00000034 _ZNSsC2EPKcmRKSaIcE
0083c63c g     F .text	00000030 _ZNSt16invalid_argumentC1ERKSs
008445dc g     F .text	0000001c fopen
00801554 g     F .text	00000088 _ZN7PIO_Bus8setValueEj
00835a48 g     F .text	000000c8 _ZNSt10moneypunctIcLb1EED2Ev
0085f05c g       *ABS*	00000000 __bss_start
008321e4  w    F .text	0000000c _ZNKSs13find_first_ofERKSsm
00807920  w    F .text	0000004c _ZNSt9basic_iosIcSt11char_traitsIcEEC1Ev
0085fd8c g     O .bss	00000044 _ZN14__gnu_internal19moneypunct_cache_cfE
0085d0f4 g     O .rwdata	00000004 _ZNSt8ios_base3appE
00811604  w    F .text	00000110 _ZNSt11__timepunctIcED0Ev
00859070  w    O .rodata	00000028 _ZTVSt8time_getIcSt19istreambuf_iteratorIcSt11char_traitsIcEEE
00803c68 g     F .text	00000010 _ZNSt6locale5facetD2Ev
008329a0  w    F .text	000000a0 _ZNKSs7compareEmmRKSs
00846270 g     F .text	00000098 memset
00830ed8  w    F .text	00000020 _ZNSt15basic_streambufIcSt11char_traitsIcEE7seekoffExSt12_Ios_SeekdirSt13_Ios_Openmode
0085fa28 g     O .bss	00000038 _ZN14__gnu_internal9cache_vecE
008317d4  w    F .text	00000014 _ZNSs4_Rep26_M_set_length_and_sharableEm
0083172c  w    F .text	0000000c _ZNSs12_S_empty_repEv
00802c50 g     F .text	00000180 main
0085a554  w    O .rodata	00000012 _ZTSSt13runtime_error
0085cfc4  w    O .rwdata	00000002 _ZTSe
00815458  w    F .text	000007a0 _ZNKSt8time_getIcSt19istreambuf_iteratorIcSt11char_traitsIcEEE15_M_extract_nameES3_S3_RiPPKcmRSt8ios_baseRSt12_Ios_Iostate
00810e4c  w    F .text	000000bc _ZNSt7collateIcED1Ev
0083e4ec  w    F .text	00000050 _ZNSt13basic_fstreamIcSt11char_traitsIcEE5closeEv
0082c210  w    F .text	00000028 _ZStlsIcSt11char_traitsIcEERSt13basic_ostreamIT_T0_ES6_St14_Resetiosflags
0080fc8c  w    F .text	00000010 _ZNSt9money_getIcSt19istreambuf_iteratorIcSt11char_traitsIcEEED1Ev
0080f27c  w    F .text	00000030 _ZNKSt7num_putIcSt19ostreambuf_iteratorIcSt11char_traitsIcEEE3putES3_RSt8ios_basecl
008355c8 g     F .text	0000002c _ZNKSt8messagesIcE6do_getEiiiRKSs
00810fc4  w    F .text	000000c4 _ZNSt8messagesIcED0Ev
00830e64  w    F .text	00000010 _ZNSt15basic_streambufIcSt11char_traitsIcEE4setgEPcS3_S3_
0085d0a8 g     O .rwdata	00000004 _ZNSt8ios_base3hexE
008593d8  w    O .rodata	0000000c _ZTISt18__moneypunct_cacheIcLb0EE
0085f19c g     O .bss	00000004 alt_envp
00802ab8  w    F .text	000000c0 _ZN4FIFOIcEC1Ej
00859a24  w    O .rodata	00000029 _ZTSSt15basic_streambufIcSt11char_traitsIcEE
0085f184 g     O .bss	00000004 __malloc_max_total_mem
00830ed0  w    F .text	00000008 _ZNSt15basic_streambufIcSt11char_traitsIcEEaSERKS2_
0085aa5c  w    O .rodata	00000014 _ZTVSt10bad_typeid
00830e84  w    F .text	00000008 _ZNKSt15basic_streambufIcSt11char_traitsIcEE5epptrEv
0080ebd4  w    F .text	0000000c _ZNKSt10moneypunctIcLb1EE14do_frac_digitsEv
00859000  w    O .rodata	0000002c _ZTVSt14codecvt_bynameIcc10_mbstate_tE
0085526c g     F .text	00000058 altera_avalon_jtag_uart_write_fd
0082be14  w    F .text	00000038 _ZN9__gnu_cxx18stdio_sync_filebufIcSt11char_traitsIcEED0Ev
0085cf34  w    O .rwdata	00000008 _ZTIe
00845240 g     F .text	00000014 ftell
0085a9d0  w    O .rodata	0000001c _ZTTSd
00801af0 g     F .text	00000060 _ZN7PIO_PinC1ER3PIOhj
00840034  w    F .text	00000130 _ZNSt14basic_ofstreamIcSt11char_traitsIcEED0Ev
0084d5a8 g     F .text	0000001c __swbuf
0085fd48 g     O .bss	00000044 _ZN14__gnu_internal19moneypunct_cache_ctE
00807f9c  w    F .text	00000040 _ZNKSt9basic_iosIcSt11char_traitsIcEE4fillEv
0083a124 g     F .text	00000034 _ZSt21__throw_bad_exceptionv
00838a98 g     F .text	00000008 __cxa_get_globals_fast
008499d8 g     F .text	00000068 strxfrm
00803ba0 g     F .text	000000a8 _ZNSt6locale21_S_normalize_categoryEi
0085283c g     F .text	00000078 __ltsf2
0082cb50  w    F .text	00000004 _ZSt5flushIcSt11char_traitsIcEERSt13basic_ostreamIT_T0_ES6_
008445f8 g     F .text	000001fc _fread_r
00836824 g     F .text	00000004 _ZNSt12__basic_fileIcED2Ev
00858fd4  w    O .rodata	00000010 _ZTVSt18__moneypunct_cacheIcLb0EE
0085a480  w    O .rodata	00000016 _ZTSNSt8ios_base7failureE
0085cec8  w    O .rwdata	00000003 _ZTSSi
0080b6a8  w    F .text	000001f0 _ZNSirsERx
00839e8c g     F .text	000000dc _ZNSt5ctypeIcED0Ev
0085aae0  w    O .rodata	00000014 _ZTVSt8bad_cast
00846f9c g     F .text	00000008 __sclose
00837aac g     F .text	00000004 _ZdaPv
01000000 g       *ABS*	00000000 __alt_heap_limit
0085cfdc  w    O .rwdata	00000002 _ZTSf
00835720 g     F .text	000000c8 _ZNSt10moneypunctIcLb0EED1Ev
008121e0  w    F .text	00000110 _ZSt13__int_to_charIcmEiPT_T0_PKS0_St13_Ios_Fmtflagsb
00811234  w    F .text	00000010 _ZNSt15messages_bynameIcED1Ev
0080e960  w    F .text	00000030 _ZNKSt10moneypunctIcLb1EE8groupingEv
00843e30 g     F .text	00000014 fclose
00851b30 g     F .text	00000244 _strtol_r
008538d4 g     F .text	00000074 __truncdfsf2
008091fc  w    F .text	00000004 _ZStrsISt11char_traitsIcEERSt13basic_istreamIcT_ES5_Ra
0082baa4  w    F .text	00000014 _ZN9__gnu_cxx18stdio_sync_filebufIcSt11char_traitsIcEED1Ev
008595dc  w    O .rodata	0000000c _ZTISt7num_putIcSt19ostreambuf_iteratorIcSt11char_traitsIcEEE
008604c8 g     O .bss	00000190 _atexit0
0085a0fc  w    O .rodata	00000010 _ZTIPKc
0083b170  w    F .text	00000010 _ZNSt12out_of_rangeD1Ev
0083b3d0 g     F .text	000000a0 _ZNSt8ios_base6xallocEv
00813558  w    F .text	00000054 _ZNSt18__moneypunct_cacheIcLb0EEC2Em
00840bac  w    F .text	00000130 _ZNSt14basic_ifstreamIcSt11char_traitsIcEED1Ev
0081790c  w    F .text	000000c0 _ZNSt14collate_bynameIcED2Ev
0084da18 g     F .text	000015b4 _dtoa_r
00845858 g     F .text	00000740 _malloc_r
00833190  w    F .text	00000034 _ZNSsC2IPKcEET_S2_RKSaIcE
00803c88 g     F .text	00000030 _ZNSt6locale5facet15_S_get_c_localeEv
00811c54  w    F .text	00000078 _ZNSt18__moneypunct_cacheIcLb0EED1Ev
0080ef08  w    F .text	0000000c _ZNKSt8numpunctIcE16do_decimal_pointEv
00859ffc  w    O .rodata	00000010 _ZTIPKm
00832754  w    F .text	00000034 _ZNSsC2ERKSaIcE
0085f9cc g     O .bss	00000018 _ZN14__gnu_internal8name_vecE
0085d170 g     O .rwdata	00000004 alt_errno
008353d0  w    F .text	0000001c _ZNSs7replaceEN9__gnu_cxx17__normal_iteratorIPcSsEES2_S1_S1_
0082ba94  w    F .text	00000010 _ZN9__gnu_cxx18stdio_sync_filebufIcSt11char_traitsIcEE6xsputnEPKcl
0080780c  w    F .text	00000008 _ZNKSt9basic_iosIcSt11char_traitsIcEE10exceptionsEv
0083c38c g     F .text	00000030 _ZNSt14overflow_errorC2ERKSs
0083b0f8  w    F .text	00000034 _ZNSt11range_errorD0Ev
00859730  w    O .rodata	0000000c _ZTISt17moneypunct_bynameIcLb0EE
00814b14  w    F .text	00000034 _ZNSt15time_get_bynameIcSt19istreambuf_iteratorIcSt11char_traitsIcEEED0Ev
00801ce4 g     F .text	00000060 _ZN7PIO_Pin3offEv
00849a48 g     F .text	000000dc __submore
00846ba8 g     F .text	00000010 _init_signal
0082bda4  w    F .text	00000070 _ZN9__gnu_cxx18stdio_sync_filebufIcSt11char_traitsIcEEC1EP7__sFILE
0085a228  w    O .rodata	0000000c _ZTISt7codecvtIcc10_mbstate_tE
00859e5c  w    O .rodata	0000000c _ZTIN10__cxxabiv117__class_type_infoE
008002e4 g     F .text	00000238 _ZN3FSM6_unsetEv
00801de0 g     F .text	00000040 _ZN3SPIC1Em
0084531c g     F .text	000000b8 _fwalk
00827400  w    F .text	00000030 _ZNKSt7num_putIcSt19ostreambuf_iteratorIcSt11char_traitsIcEEE6do_putES3_RSt8ios_basecy
00839014 g     F .text	00000038 _ZNKSt7codecvtIcc10_mbstate_tE9do_lengthERS0_PKcS4_m
00859168  w    O .rodata	00000018 _ZTVSt9money_getIcSt19istreambuf_iteratorIcSt11char_traitsIcEEE
0080f6e8  w    F .text	00000044 _ZNKSt8time_getIcSt19istreambuf_iteratorIcSt11char_traitsIcEEE13get_monthnameES3_S3_RSt8ios_baseRSt12_Ios_IostateP2tm
008501e8 g     F .text	00000040 _mbtowc_r
0083206c  w    F .text	000000e4 _ZNKSs12find_last_ofEPKcmm
00801a90 g     F .text	00000060 _ZN7PIO_PinC2ER3PIOhj
00838d6c g     F .text	00000010 _ZNSt13bad_exceptionD1Ev
0082c408  w    F .text	00000070 _ZNSoC1Ev
00858ba4  w    O .rodata	00000010 _ZTV7PIO_Bus
00858e2c  w    O .rodata	00000040 _ZTVN9__gnu_cxx13stdio_filebufIcSt11char_traitsIcEEE
008463f8 g     F .text	00000104 putc
00811bd4  w    F .text	00000080 _ZNSt18__moneypunct_cacheIcLb0EED0Ev
00843304 g     F .text	00000060 __divsi3
00810b78  w    F .text	00000058 _ZSt9use_facetISt10moneypunctIcLb1EEERKT_RKSt6locale
0083fb44  w    F .text	00000150 _ZNSt14basic_ifstreamIcSt11char_traitsIcEEC2Ev
0080c490  w    F .text	000001f0 _ZNSirsERb
008412d8  w    F .text	000001b8 _ZNSt13basic_fstreamIcSt11char_traitsIcEED1Ev
0085b260 g     O .rodata	00000014 __thenan_df
00859f5c  w    O .rodata	00000010 _ZTIPKe
00844834 g     F .text	0000012c _malloc_trim_r
0080e908  w    F .text	0000002c _ZNKSt10moneypunctIcLb1EE13decimal_pointEv
0085f9b8 g     O .bss	00000014 _ZN14__gnu_internal13c_locale_implE
0085a270  w    O .rodata	00000020 _ZTISt5ctypeIcE
00858a9c g       *ABS*	00000000 __CTOR_END__
00807a50  w    F .text	00000034 _ZNSt9basic_iosIcSt11char_traitsIcEED0Ev
0082ce64  w    F .text	0000001c _ZNSoD2Ev
0080e5dc  w    F .text	0000002c _ZNKSt10moneypunctIcLb0EE13thousands_sepEv
00807c68  w    F .text	0000000c _ZNKSt9basic_iosIcSt11char_traitsIcEE3badEv
00833cd0  w    F .text	000000bc _ZNSs6appendERKSs
008338f4  w    F .text	00000088 _ZNSs9push_backEc
008470e8 g     F .text	000000bc strcmp
00859508  w    O .rodata	00000043 _ZTSSt15time_put_bynameIcSt19ostreambuf_iteratorIcSt11char_traitsIcEEE
0085a09c  w    O .rodata	00000010 _ZTIPKs
00832c68  w    F .text	00000020 _ZNSs13_S_copy_charsEPcPKcS1_
0080f34c  w    F .text	00000038 _ZNKSt7num_putIcSt19ostreambuf_iteratorIcSt11char_traitsIcEEE3putES3_RSt8ios_basecd
0085a10c  w    O .rodata	00000010 _ZTIPc
0085d0b4 g     O .rwdata	00000004 _ZNSt8ios_base3octE
00836108 g     F .text	00000318 _ZNSt11__timepunctIcE23_M_initialize_timepunctEPi
00860040 g     O .bss	0000008c _ZSt4clog
00858aac g       *ABS*	00000000 __flash_rodata_start
00813018  w    F .text	00000018 _ZNSt7num_putIcSt19ostreambuf_iteratorIcSt11char_traitsIcEEEC1Em
0085ce5c  w    O .rwdata	00000005 _ZTS3SPI
00839648 g     F .text	000003b0 _ZNSi6ignoreEl
0083bda0 g     F .text	00000104 _ZNSt8ios_base7failureD2Ev
00858a9c g       *ABS*	00000000 __DTOR_LIST__
00801f10 g     F .text	00000050 _ZN3SPID0Ev
00841490  w    F .text	00000190 _ZNSt13basic_fstreamIcSt11char_traitsIcEED2Ev
0083bc00 g     F .text	000000d0 _ZNSt8ios_base7failureC1ERKSs
00810728  w    F .text	000000f4 _ZSt9has_facetISt7codecvtIcc10_mbstate_tEEbRKSt6locale
00831288  w    F .text	00000030 _ZNSt15basic_streambufIcSt11char_traitsIcEE7seekposESt4fposI10_mbstate_tESt13_Ios_Openmode
008086ec  w    F .text	000001c4 _ZNSi5seekgExSt12_Ios_Seekdir
00814ac0  w    F .text	00000010 _ZNSt15time_put_bynameIcSt19ostreambuf_iteratorIcSt11char_traitsIcEEED2Ev
0080fc38  w    F .text	00000010 _ZNSt9money_putIcSt19ostreambuf_iteratorIcSt11char_traitsIcEEED1Ev
0081007c  w    F .text	000000f4 _ZSt9has_facetISt9money_getIcSt19istreambuf_iteratorIcSt11char_traitsIcEEEEbRKSt6locale
0085d08f g     O .rwdata	00000001 _ZNSt10ctype_base5upperE
00833260  w    F .text	00000060 _ZNSsC1EPKcRKSaIcE
0083e6bc  w    F .text	000000d8 _ZNSt13basic_filebufIcSt11char_traitsIcEED1Ev
008142ec  w    F .text	000000c8 _ZNSt10moneypunctIcLb0EEC1Em
00801a38 g     F .text	00000058 _ZN8PIO_LVDSC2EmhN3PIO4ModeE
0085345c g     F .text	00000088 __nedf2
00842494 g     F .text	00000010 _ZNSt8bad_castD2Ev
0085d06c  w    O .rwdata	00000002 _ZTSw
0085cfc0  w    O .rwdata	00000003 _ZTSPe
00801500 g     F .text	00000054 _ZN7PIO_Bus8getValueEv
0083c57c g     F .text	00000030 _ZNSt12out_of_rangeC1ERKSs
0085f098  w    O .bss	00000004 _ZNSt11__timepunctIcE2idE
00855144 g     F .text	00000034 alt_irq_init
0083b4c8 g     F .text	000000e8 _ZNSt8ios_baseD0Ev
00814b68  w    F .text	00000178 _ZNSt15numpunct_bynameIcEC1EPKcm
0085d05c  w    O .rwdata	00000003 _ZTSPc
00832ca8  w    F .text	000000c4 _ZNSs12_S_constructIPcEES0_T_S1_RKSaIcESt20forward_iterator_tag
00854e78 g     F .text	00000060 alt_release_fd
008424a4 g     F .text	000000b0 _ZNK10__cxxabiv117__pbase_type_info10__do_catchEPKSt9type_infoPPvj
00838928 g     F .text	00000034 _ZN10__cxxabiv120__si_class_type_infoD0Ev
0083495c  w    F .text	00000050 _ZNSs6insertEmPKc
008203a0  w    F .text	0000009c _ZNKSt9money_putIcSt19ostreambuf_iteratorIcSt11char_traitsIcEEE6do_putES3_bRSt8ios_basecRKSs
008115f4  w    F .text	00000010 _ZNSt12ctype_bynameIcED2Ev
0081d738  w    F .text	00001cc8 _ZNKSt9money_getIcSt19istreambuf_iteratorIcSt11char_traitsIcEEE10_M_extractILb0EEES3_S3_S3_RSt8ios_baseRSt12_Ios_IostateRSs
00808320  w    F .text	00000018 _ZStrsIcSt11char_traitsIcEERSt13basic_istreamIT_T0_ES6_St5_Setw
00859998  w    O .rodata	0000000c _ZTIN9__gnu_cxx18stdio_sync_filebufIcSt11char_traitsIcEEE
008312b8  w    F .text	0000003c _ZNSt15basic_streambufIcSt11char_traitsIcEE5sputcEc
0085a988  w    O .rodata	0000000c _ZTISt13basic_filebufIcSt11char_traitsIcEE
00846db4 g     F .text	00000074 sprintf
00812cc8  w    F .text	000000d8 _ZNSt11__timepunctIcEC1EPSt17__timepunct_cacheIcEm
0085ab60 g     O .rodata	00000100 __clz_tab
0083cac8 g     F .text	00000104 _ZNSt11logic_errorD2Ev
0080fc9c  w    F .text	00000010 _ZNSt9money_getIcSt19istreambuf_iteratorIcSt11char_traitsIcEEED2Ev
00813078  w    F .text	00000040 _ZNSt16__numpunct_cacheIcEC2Em
00808aa0  w    F .text	000001a8 _ZNSi5tellgEv
00834a1c  w    F .text	0000005c _ZNSs12_M_leak_hardEv
0085f178 g     O .bss	00000004 _PathLocale
00813ee4  w    F .text	000000c8 _ZNSt10moneypunctIcLb1EEC1Em
00806c88  w    F .text	00000090 _ZN9__gnu_cxx4ropeIcSaIcEE8_S_fetchEPNS_13_Rope_RopeRepIcS1_EEm
00859180  w    O .rodata	00000034 _ZTVSt17moneypunct_bynameIcLb1EE
00859204  w    O .rodata	00000034 _ZTVSt10moneypunctIcLb0EE
00823b58  w    F .text	000006c4 _ZNKSt7num_putIcSt19ostreambuf_iteratorIcSt11char_traitsIcEEE15_M_insert_floatIeEES3_S3_RSt8ios_baseccT_
0085a574  w    O .rodata	00000010 _ZTSSt11logic_error
0083c148 g     F .text	00000104 _ZNSt11logic_errorD1Ev
00849898 g     F .text	00000124 strtof
00825894  w    F .text	0000003c _ZNKSt7num_getIcSt19istreambuf_iteratorIcSt11char_traitsIcEEE6do_getES3_S3_RSt8ios_baseRSt12_Ios_IostateRt
00812848  w    F .text	00000018 _ZNSt8time_getIcSt19istreambuf_iteratorIcSt11char_traitsIcEEEC1Em
00857660 g     F .text	00000014 atexit
00804f90 g     F .text	000000e4 _ZNSt6localeD2Ev
0085a2f8  w    O .rodata	0000000c _ZTISt11range_error
0082c160  w    F .text	00000034 _ZNSolsEPFRSt9basic_iosIcSt11char_traitsIcEES3_E
0080ee20  w    F .text	0000002c _ZNKSt8numpunctIcE13decimal_pointEv
0083c3bc g     F .text	00000030 _ZNSt11range_errorC1ERKSs
0084d5c4 g     F .text	00000078 _write_r
0085954c  w    O .rodata	0000000c _ZTISt15time_put_bynameIcSt19ostreambuf_iteratorIcSt11char_traitsIcEEE
00815bf8  w    F .text	00000318 _ZNKSt8time_getIcSt19istreambuf_iteratorIcSt11char_traitsIcEEE14_M_extract_numES3_S3_RiiimRSt8ios_baseRSt12_Ios_Iostate
00802468 g     F .text	0000008c _ZN4UARTD2Ev
0082b7ac  w    F .text	0000003c _ZNKSt7num_getIcSt19istreambuf_iteratorIcSt11char_traitsIcEEE6do_getES3_S3_RSt8ios_baseRSt12_Ios_IostateRm
008421c0  w    F .text	00000010 _ZTv0_n12_NSdD0Ev
0083b13c  w    F .text	00000034 _ZNSt12out_of_rangeD0Ev
00845680 g     F .text	0000001c setlocale
0085fe98 g     O .bss	00000090 _ZSt3cin
008595e8  w    O .rodata	0000003a _ZTSSt7num_getIcSt19istreambuf_iteratorIcSt11char_traitsIcEEE
0080841c  w    F .text	00000030 _ZNSiD1Ev
00808294  w    F .text	00000020 _ZNSiC2Ev
00802be4  w    F .text	0000006c _ZN4FIFOIcED1Ev
0084348c g     F .text	00000008 _Unwind_GetTextRelBase
00802218 g     F .text	00000098 _ZN4UART13buffer_printfEPKcz
00859960  w    O .rodata	00000036 _ZTSN9__gnu_cxx18stdio_sync_filebufIcSt11char_traitsIcEEE
00859d7c  w    O .rodata	0000002c _ZTVN10__cxxabiv121__vmi_class_type_infoE
00811368  w    F .text	00000124 _ZNSt14codecvt_bynameIcc10_mbstate_tEC1EPKcm
00838cb4 g     F .text	00000044 __cxa_call_terminate
0080f1c4  w    F .text	00000044 _ZNKSt7num_getIcSt19istreambuf_iteratorIcSt11char_traitsIcEEE3getES3_S3_RSt8ios_baseRSt12_Ios_IostateRe
0085ce8c g     O .rwdata	00000004 _ZNSt6locale7numericE
0085d0dc g     O .rwdata	00000004 _ZNSt8ios_base9basefieldE
0081407c  w    F .text	000000d0 _ZNSt10moneypunctIcLb0EEC2EPiPKcm
0085cf5c  w    O .rwdata	00000008 _ZTIm
00810a70  w    F .text	00000058 _ZSt9use_facetISt9money_getIcSt19istreambuf_iteratorIcSt11char_traitsIcEEEERKT_RKSt6locale
008519b8 g     F .text	00000008 nanf
0085d13c g     O .rwdata	00000004 _impure_ptr
0082c5b8  w    F .text	00000074 _ZNSo8_M_writeEPKcl
0085f194 g     O .bss	00000004 alt_argc
00859f3c  w    O .rodata	00000020 _ZTVN10__cxxabiv123__fundamental_type_infoE
00850128 g     F .text	00000080 _mbrtowc_r
0085ce9c g     O .rwdata	00000004 _ZNSt6locale8messagesE
00856d04 g     F .text	00000064 _do_dtors
008598e8  w    O .rodata	00000012 _ZTSSt13messages_base
008018d8 g     F .text	00000058 _ZN8PIO_LVDSD0Ev
0085cec0  w    O .rwdata	00000008 _ZTTSi
0085fdd0 g     O .bss	000000c8 _ZN14__gnu_internal17timepunct_cache_cE
00830f44  w    F .text	0000004c _ZNSt15basic_streambufIcSt11char_traitsIcEEC2ERKS2_
00839b30 g     F .text	000000d4 _ZNSt5ctypeIcED2Ev
00810cd8  w    F .text	00000058 _ZSt9use_facetISt7collateIcEERKT_RKSt6locale
00859624  w    O .rodata	0000000c _ZTISt7num_getIcSt19istreambuf_iteratorIcSt11char_traitsIcEEE
00844c74 g     F .text	0000043c _fseek_r
0082ba48  w    F .text	0000004c _ZN9__gnu_cxx18stdio_sync_filebufIcSt11char_traitsIcEE7seekposESt4fposI10_mbstate_tESt13_Ios_Openmode
00800738 g     F .text	00000058 _ZN3FSMD2Ev
00859818  w    O .rodata	0000000c _ZTISt17__timepunct_cacheIcE
008465e4 g     F .text	000001c4 __srefill_r
00810358  w    F .text	000000f4 _ZSt9has_facetISt7num_getIcSt19istreambuf_iteratorIcSt11char_traitsIcEEEEbRKSt6locale
00817784  w    F .text	000000c8 _ZNSt14collate_bynameIcED0Ev
00834e08  w    F .text	00000114 _ZStplIcSt11char_traitsIcESaIcEESbIT_T0_T1_ERKS6_S8_
0085d0f0 g     O .rwdata	00000004 _ZNSt8ios_base7goodbitE
00835c48 g     F .text	00000138 _ZNSt10moneypunctIcLb1EE24_M_initialize_moneypunctEPiPKc
00810634  w    F .text	000000f4 _ZSt9has_facetISt7collateIcEEbRKSt6locale
01004020 g       .exceptions	00000000 alt_irq_entry
00802dd0 g     F .text	000000f8 _ZNSt8ios_base4InitD1Ev
00831a48  w    F .text	0000002c _ZNKSs8_M_checkEmPKc
008324d0  w    F .text	00000050 _ZNKSs17find_first_not_ofEPKcm
00858d34 g     O .rodata	00000010 _ZNSt6locale5_Impl10_S_id_timeE
008135ac  w    F .text	000000d0 _ZNSt10moneypunctIcLb1EEC2EPiPKcm
0085d100 g     O .rwdata	00000004 _ZNSt8ios_base2inE
00831c4c  w    F .text	00000010 _ZNKSs5emptyEv
00827960  w    F .text	00000030 _ZNKSt7num_putIcSt19ostreambuf_iteratorIcSt11char_traitsIcEEE6do_putES3_RSt8ios_basecx
008503e4 g     F .text	00000080 __ulp
00851888 g     F .text	00000040 __isinfd
0084347c g     F .text	00000008 _Unwind_FindEnclosingFunction
0083193c  w    F .text	00000010 _ZN9__gnu_cxxeqIPcSsEEbRKNS_17__normal_iteratorIT_T0_EES7_
008442a4 g     F .text	00000018 __fp_unlock_all
0085a0dc  w    O .rodata	00000010 _ZTIPKa
0080840c  w    F .text	00000010 _ZTv0_n12_NSiD1Ev
00859690  w    O .rodata	0000000c _ZTISt9money_putIcSt19ostreambuf_iteratorIcSt11char_traitsIcEEE
0085a234  w    O .rodata	00000030 _ZTVSt5ctypeIcE
0083781c g     F .text	000000a0 _Znam
00858bd4  w    O .rodata	0000000a _ZTS8PIO_LVDS
0083477c  w    F .text	0000006c _ZNSs5eraseEmm
0080f434  w    F .text	00000004 _ZNKSt11__timepunctIcE15_M_am_pm_formatEPKc
0080efa4  w    F .text	00000044 _ZNKSt7num_getIcSt19istreambuf_iteratorIcSt11char_traitsIcEEE3getES3_S3_RSt8ios_baseRSt12_Ios_IostateRl
0085d15c g     O .rwdata	00000008 alt_fs_list
00831d78  w    F .text	0000000c _ZNKSs5rfindERKSsm
00841fcc  w    F .text	00000060 _ZNSdC2Ev
00808e68  w    F .text	000001c0 _ZNSi6sentryC1ERSib
00832f8c  w    F .text	000000ec _ZNSsC2ERKSsmm
00832348  w    F .text	0000000c _ZNKSs16find_last_not_ofERKSsm
0080f830  w    F .text	0000002c _ZNKSt7collateIcE7do_hashEPKcS2_
0081044c  w    F .text	000000f4 _ZSt9has_facetISt7num_putIcSt19ostreambuf_iteratorIcSt11char_traitsIcEEEEbRKSt6locale
0085a04c  w    O .rodata	00000010 _ZTIPj
008048d4 g     F .text	000002ec _ZNSt6locale5_ImplC1ERKS0_m
008599e4  w    O .rodata	00000040 _ZTVSt15basic_streambufIcSt11char_traitsIcEE
0080ebbc  w    F .text	0000000c _ZNKSt10moneypunctIcLb1EE16do_decimal_pointEv
0080f978  w    F .text	00000030 _ZNKSt5ctypeIcE9do_narrowEPKcS2_cPc
00843468 g     F .text	0000000c _Unwind_GetLanguageSpecificData
008594a0  w    O .rodata	0000000c _ZTISt15time_get_bynameIcSt19istreambuf_iteratorIcSt11char_traitsIcEEE
00813d44  w    F .text	000000d0 _ZNSt10moneypunctIcLb1EEC1EPSt18__moneypunct_cacheIcLb1EEm
0083b1c4  w    F .text	00000034 _ZNSt16invalid_argumentD0Ev
0085f09c  w    O .bss	00000004 _ZNSt8time_putIcSt19ostreambuf_iteratorIcSt11char_traitsIcEEE2idE
0082bd1c  w    F .text	00000058 _ZN9__gnu_cxx18stdio_sync_filebufIcSt11char_traitsIcEE9pbackfailEi
00839004 g     F .text	00000008 _ZNKSt7codecvtIcc10_mbstate_tE16do_always_noconvEv
00831144  w    F .text	00000048 _ZNSt15basic_streambufIcSt11char_traitsIcEE9sputbackcEc
0083b690 g     F .text	000000e0 _ZNSt8ios_baseD2Ev
00837988 g     F .text	00000118 __cxa_begin_catch
00814b48  w    F .text	00000010 _ZNSt15time_get_bynameIcSt19istreambuf_iteratorIcSt11char_traitsIcEEED1Ev
0085f088  w    O .bss	00000004 _ZNSt9money_putIcSt19ostreambuf_iteratorIcSt11char_traitsIcEEE2idE
0085f18c g     O .bss	00000004 _timezone
0085d040  w    O .rwdata	00000004 _ZTSPKh
008387c4 g     F .text	00000010 _ZN10__cxxabiv117__class_type_infoD2Ev
0085cea4 g     O .rwdata	00000002 _ZNSt6locale5facet9_S_c_nameE
00838b8c g     F .text	00000010 _ZN10__cxxabiv112__unexpectedEPFvvE
0085a15c  w    O .rodata	00000010 _ZTIPKv
0085cfbc  w    O .rwdata	00000004 _ZTSPKe
0080e638  w    F .text	00000030 _ZNKSt10moneypunctIcLb0EE11curr_symbolEv
00807d2c  w    F .text	0000000c _ZNSt9basic_iosIcSt11char_traitsIcEE10exceptionsESt12_Ios_Iostate
00840420  w    F .text	000001c0 _ZNSt14basic_ofstreamIcSt11char_traitsIcEEC2EPKcSt13_Ios_Openmode
0085a368  w    O .rodata	00000011 _ZTSSt12length_error
0080f41c  w    F .text	00000018 _ZNKSt11__timepunctIcE20_M_date_time_formatsEPPKc
00841974  w    F .text	00000338 _ZNSt13basic_fstreamIcSt11char_traitsIcEEC2EPKcSt13_Ios_Openmode
01004020 g       *ABS*	00000000 __ram_exceptions_start
0084743c g     F .text	00000ebc strftime
008455ec g     F .text	00000010 localeconv
0085d084  w    O .rwdata	00000002 _ZTSv
00816a00  w    F .text	000006b4 _ZNKSt8time_getIcSt19istreambuf_iteratorIcSt11char_traitsIcEEE14do_get_weekdayES3_S3_RSt8ios_baseRSt12_Ios_IostateP2tm
0082dd94  w    F .text	00000004 _ZStlsISt11char_traitsIcEERSt13basic_ostreamIcT_ES5_PKa
0083a0bc g     F .text	00000034 _ZSt16__throw_bad_castv
008210f0  w    F .text	00000f4c _ZNKSt7num_getIcSt19istreambuf_iteratorIcSt11char_traitsIcEEE14_M_extract_intIjEES3_S3_S3_RSt8ios_baseRSt12_Ios_IostateRT_
0080eea8  w    F .text	00000030 _ZNKSt8numpunctIcE8truenameEv
00801930 g     F .text	00000058 _ZN8PIO_LVDSD1Ev
0085a8f8  w    O .rodata	00000028 _ZTSSt14basic_ofstreamIcSt11char_traitsIcEE
00838d38 g     F .text	00000034 _ZNSt13bad_exceptionD0Ev
0083e53c  w    F .text	00000050 _ZNSt14basic_ofstreamIcSt11char_traitsIcEE5closeEv
0085cf1c g     O .rwdata	00000004 _ZN10__cxxabiv119__terminate_handlerE
008021e0 g     F .text	00000038 _ZN4UART14buffer_putcharEc
0085d030  w    O .rwdata	00000002 _ZTSt
0084237c g     F .text	00000080 _ZNK10__cxxabiv119__pointer_type_info15__pointer_catchEPKNS_17__pbase_type_infoEPPvj
0085a08c  w    O .rodata	00000010 _ZTIPt
0082cc64  w    F .text	000001c4 _ZNSo5seekpExSt12_Ios_Seekdir
00811714  w    F .text	00000108 _ZNSt11__timepunctIcED1Ev
008592f8  w    O .rodata	00000030 _ZTVSt12ctype_bynameIcE
0085a2b0  w    O .rodata	00000014 _ZTVSt15underflow_error
0083d100  w    F .text	000001b8 _ZNSt13basic_filebufIcSt11char_traitsIcEE22_M_convert_to_externalEPcl
0085ce98 g     O .rwdata	00000004 _ZNSt6locale8monetaryE
00837360 g     F .text	000004bc _ZNK10__cxxabiv121__vmi_class_type_info12__do_dyncastElNS_17__class_type_info10__sub_kindEPKS1_PKvS4_S6_RNS1_16__dyncast_resultE
0080ee4c  w    F .text	0000002c _ZNKSt8numpunctIcE13thousands_sepEv
00839c04 g     F .text	00000040 _ZSt9use_facetISt5ctypeIcEERKT_RKSt6locale
00857004 g     F .text	00000050 alt_ic_isr_register
0085f15c g     O .bss	00000004 _ZNSt8ios_base4Init11_S_refcountE
0082c1e4  w    F .text	00000008 _ZNKSo6sentrycvbEv
0085ceb0 g     O .rwdata	00000008 _ZNSt6locale5_Impl13_S_id_collateE
00838e80 g     F .text	00000134 __cxa_allocate_exception
0080f538  w    F .text	00000068 _ZNKSt11__timepunctIcE21_M_months_abbreviatedEPPKc
00859f7c  w    O .rodata	00000010 _ZTIPKd
00845470 g     F .text	00000040 fwrite
0084f48c g     F .text	00000068 __hexdig_init
00846e90 g     F .text	00000088 _sscanf_r
0082354c  w    F .text	00000204 _ZNKSt7num_getIcSt19istreambuf_iteratorIcSt11char_traitsIcEEE6do_getES3_S3_RSt8ios_baseRSt12_Ios_IostateRe
00828344  w    F .text	00000028 _ZNKSt7num_putIcSt19ostreambuf_iteratorIcSt11char_traitsIcEEE6do_putES3_RSt8ios_basecl
0083cddc  w    F .text	00000008 _ZNKSt14basic_ofstreamIcSt11char_traitsIcEE5rdbufEv
00860144 g     O .bss	00000074 _ZN14__gnu_internal8buf_coutE
0083cd54  w    F .text	00000080 _ZNSt13basic_filebufIcSt11char_traitsIcEE13_M_set_bufferEl
00811ccc  w    F .text	00000078 _ZNSt18__moneypunct_cacheIcLb0EED2Ev
00859ebc  w    O .rodata	0000000c _ZTIN10__cxxabiv120__si_class_type_infoE
0085a0bc  w    O .rodata	00000010 _ZTIPKh
0082cb54  w    F .text	00000088 _ZNSo6sentryC1ERSo
0083665c g     F .text	0000000c _ZNKSt12__basic_fileIcE7is_openEv
0080fb4c  w    F .text	00000010 _ZNSt17__timepunct_cacheIcED2Ev
00838de0 g     F .text	0000000c _ZSt15set_new_handlerPFvvE
0080ba88  w    F .text	000001f0 _ZNSirsERl
0083465c  w    F .text	00000048 _ZNSsaSEc
00813048  w    F .text	00000018 _ZNSt7num_getIcSt19istreambuf_iteratorIcSt11char_traitsIcEEEC1Em
0083e91c  w    F .text	000000d8 _ZNSt13basic_filebufIcSt11char_traitsIcEED2Ev
0085d184 g       *ABS*	00000000 _edata
008082b4  w    F .text	00000008 _ZNKSi6sentrycvbEv
008399f8 g     F .text	0000000c _ZNSt5ctypeIcE13classic_tableEv
0080e888  w    F .text	00000040 _ZNKSt10moneypunctIcLb0EE13do_pos_formatEv
008296b4  w    F .text	0000003c _ZNKSt7num_getIcSt19istreambuf_iteratorIcSt11char_traitsIcEEE6do_getES3_S3_RSt8ios_baseRSt12_Ios_IostateRy
00855ef8 g     F .text	00000058 altera_avalon_uart_read_fd
008314a4  w    F .text	00000084 _ZNSt15basic_streambufIcSt11char_traitsIcEE6snextcEv
00858ec0  w    O .rodata	00000010 _ZTVSt9basic_iosIcSt11char_traitsIcEE
00836bd4 g     F .text	00000038 _ZNSt6locale5facet18_S_create_c_localeERPiPKcS1_
0080fa1c  w    F .text	00000034 _ZNSt21__ctype_abstract_baseIcED0Ev
00860658 g       *ABS*	00000000 _end
0085d088 g     O .rwdata	00000001 _ZSt7nothrow
0085d110 g     O .rwdata	00000004 _ZNSt8ios_base3curE
0080855c  w    F .text	00000020 _ZNSiD2Ev
0083c9bc g     F .text	0000010c _ZNSt13runtime_errorD0Ev
00808258  w    F .text	00000034 _ZNSirsEPFRSt8ios_baseS0_E
0085ce74  w    O .rwdata	00000008 _ZTI4UART
00838214 g     F .text	000004e0 __gxx_personality_sj0
0083ce40  w    F .text	00000060 _ZNSt13basic_filebufIcSt11char_traitsIcEE26_M_destroy_internal_bufferEv
00832a40  w    F .text	0000009c _ZNSs4_Rep8_M_cloneERKSaIcEm
00859048  w    O .rodata	00000028 _ZTVSt15time_get_bynameIcSt19istreambuf_iteratorIcSt11char_traitsIcEEE
00817550  w    F .text	00000234 _ZNKSt8time_putIcSt19ostreambuf_iteratorIcSt11char_traitsIcEEE6do_putES3_RSt8ios_basecPK2tmcc
0085fc98 g     O .bss	0000000c _ZN14__gnu_internal9codecvt_cE
010041b4 g       *ABS*	00000000 __ram_exceptions_end
0085d024  w    O .rwdata	00000002 _ZTSi
0080fab4  w    F .text	00000034 _ZNSt8time_putIcSt19ostreambuf_iteratorIcSt11char_traitsIcEEED0Ev
0084d310 g     F .text	00000074 vfscanf
00855768 g     F .text	000000f4 altera_avalon_jtag_uart_ioctl
0080ff88  w    F .text	000000f4 _ZSt9has_facetISt11__timepunctIcEEbRKSt6locale
008597dc  w    O .rodata	00000013 _ZTSSt11__timepunctIcE
0082e760  w    F .text	0000004c _ZSt4endlIcSt11char_traitsIcEERSt13basic_ostreamIT_T0_ES6_
008016d0 g     F .text	00000050 _ZN7PIO_BusD1Ev
0080aee8  w    F .text	000001f0 _ZNSirsERe
008412d0  w    F .text	00000008 _ZThn8_NSt13basic_fstreamIcSt11char_traitsIcEED1Ev
0080e590  w    F .text	00000010 _ZNKSt5ctypeIcE8do_widenEc
00822078  w    F .text	000014d4 _ZNKSt7num_getIcSt19istreambuf_iteratorIcSt11char_traitsIcEEE16_M_extract_floatES3_S3_RSt8ios_baseRSt12_Ios_IostateRSs
0085a20c  w    O .rodata	0000001b _ZTSSt7codecvtIcc10_mbstate_tE
00831118  w    F .text	0000002c _ZNSt15basic_streambufIcSt11char_traitsIcEE7sungetcEv
008097a8  w    F .text	00000250 _ZNSi8readsomeEPcl
0082ce28  w    F .text	00000010 _ZTv0_n12_NSoD1Ev
0085cfe8  w    O .rwdata	00000002 _ZTSy
00838864 g     F .text	0000004c _ZNK10__cxxabiv117__class_type_info12__do_dyncastElNS0_10__sub_kindEPKS0_PKvS3_S5_RNS0_16__dyncast_resultE
0081f77c  w    F .text	0000023c _ZNKSt9money_getIcSt19istreambuf_iteratorIcSt11char_traitsIcEEE6do_getES3_S3_bRSt8ios_baseRSt12_Ios_IostateRe
00838d18 g     F .text	00000010 _ZNSt9exceptionD1Ev
0085ab30  w    O .rodata	00000022 _ZTSN10__cxxabiv117__pbase_type_infoE
008570f0 g     F .text	000000a0 alt_ic_irq_disable
00807b80  w    F .text	000000dc _ZNSt9basic_iosIcSt11char_traitsIcEEC2EPSt15basic_streambufIcS1_E
0085f10c g     O .bss	00000004 _ZN14__gnu_internal12atomic_mutexE
00813e14  w    F .text	000000d0 _ZNSt10moneypunctIcLb1EEC2EPSt18__moneypunct_cacheIcLb1EEm
0085a498  w    O .rodata	0000000c _ZTINSt8ios_base7failureE
0085ff28 g     O .bss	0000008c _ZSt4cout
00858b5c  w    O .rodata	00000010 _ZTV3FSM
0080e608  w    F .text	00000030 _ZNKSt10moneypunctIcLb0EE8groupingEv
0085ce2c  w    O .rwdata	00000005 _ZTS3FSM
0085d00c  w    O .rwdata	00000002 _ZTSl
0084700c g     F .text	0000007c __swrite
00807d38  w    F .text	0000000c _ZNSt9basic_iosIcSt11char_traitsIcEE8setstateESt12_Ios_Iostate
0083d8bc  w    F .text	00000260 _ZNSt13basic_filebufIcSt11char_traitsIcEE6xsgetnEPcl
0085cfb4  w    O .rwdata	00000008 _ZTIv
0080eaf4  w    F .text	000000c8 _ZNKSt10moneypunctIcLb1EE10neg_formatEv
0085d14c g     O .rwdata	00000004 __malloc_trim_threshold
0085ce90 g     O .rwdata	00000004 _ZNSt6locale7collateE
0080f5b8  w    F .text	00000040 _ZNKSt8time_putIcSt19ostreambuf_iteratorIcSt11char_traitsIcEEE3putES3_RSt8ios_basecPK2tmcc
00809204  w    F .text	000001cc _ZNSi4syncEv
0085d038  w    O .rwdata	00000003 _ZTSPs
0085f078 g     O .bss	00000004 _ZNSt6locale2id11_S_refcountE
0085a954  w    O .rodata	0000000c _ZTISt14basic_ifstreamIcSt11char_traitsIcEE
00812b78  w    F .text	00000150 _ZNSt11__timepunctIcEC2EPiPKcm
008575b0 g     F .text	00000020 altera_nios2_qsys_irq_init
00831ed4  w    F .text	00000130 _ZNSs4_Rep9_S_createEmmRKSaIcE
0082cedc  w    F .text	00000068 _ZStlsIcSt11char_traitsIcEERSt13basic_ostreamIT_T0_ES6_St8_SetfillIS3_E
00857674 g     F .text	00000038 exit
0084341c g     F .text	00000018 _Unwind_SetGR
0085d0a4 g     O .rwdata	00000004 _ZNSt8ios_base5fixedE
00833d8c  w    F .text	00000004 _ZNSspLERKSs
0085f0cc  w    O .bss	00000008 _ZGVNSt8numpunctIcE2idE
00858e6c  w    O .rodata	00000031 _ZTSN9__gnu_cxx13stdio_filebufIcSt11char_traitsIcEEE
0082203c  w    F .text	0000003c _ZNKSt7num_getIcSt19istreambuf_iteratorIcSt11char_traitsIcEEE6do_getES3_S3_RSt8ios_baseRSt12_Ios_IostateRj
00826fa0  w    F .text	00000460 _ZNKSt7num_putIcSt19ostreambuf_iteratorIcSt11char_traitsIcEEE13_M_insert_intIyEES3_S3_RSt8ios_basecT_
00845254 g     F .text	000000c8 _fwalk_reent
0085a3e8  w    O .rodata	00000014 _ZTVSt12domain_error
0080fcac  w    F .text	000000f4 _ZSt9has_facetISt8messagesIcEEbRKSt6locale
0080f660  w    F .text	00000044 _ZNKSt8time_getIcSt19istreambuf_iteratorIcSt11char_traitsIcEEE8get_dateES3_S3_RSt8ios_baseRSt12_Ios_IostateP2tm
008509e0 g     F .text	0000018c __mdiff
00830e9c  w    F .text	00000010 _ZNSt15basic_streambufIcSt11char_traitsIcEE4setpEPcS3_
0081448c  w    F .text	000000c0 _ZNSt8messagesIcEC1EPiPKcm
00838ad0 g     F .text	000000a4 _ZN10__cxxabiv111__terminateEPFvvE
00836670 g     F .text	00000008 _ZNSt12__basic_fileIcE4syncEv
00834514  w    F .text	00000068 _ZNSs7replaceEmmmc
00838fb4 g     F .text	0000001c _ZNKSt7codecvtIcc10_mbstate_tE6do_outERS0_PKcS4_RS4_PcS6_RS6_
00813248  w    F .text	000000cc _ZNSt8numpunctIcEC1EPSt16__numpunct_cacheIcEm
00843364 g     F .text	00000060 __modsi3
0082baec  w    F .text	00000070 _ZN9__gnu_cxx18stdio_sync_filebufIcSt11char_traitsIcEEC2EP7__sFILE
0080fba0  w    F .text	00000010 _ZNSt7num_putIcSt19ostreambuf_iteratorIcSt11char_traitsIcEEED2Ev
008369c8 g     F .text	0000003c _ZNSt12__basic_fileIcE6xsputnEPKcl
0085a920  w    O .rodata	0000000c _ZTISt14basic_ofstreamIcSt11char_traitsIcEE
00838e20 g     F .text	00000010 _ZNSt9bad_allocD1Ev
00801ba0 g     F .text	00000050 _ZN7PIO_PinD1Ev
00840b9c  w    F .text	00000010 _ZTv0_n12_NSt14basic_ifstreamIcSt11char_traitsIcEED1Ev
01000000 g       *ABS*	00000000 __alt_data_end
01004020 g     F .exceptions	00000000 alt_exception
008441e4 g     F .text	00000004 __sfp_lock_release
0085cfd0  w    O .rwdata	00000002 _ZTSd
0085cf64  w    O .rwdata	00000008 _ZTIl
008389b0 g     F .text	000000c8 _ZNK10__cxxabiv120__si_class_type_info12__do_dyncastElNS_17__class_type_info10__sub_kindEPKS1_PKvS4_S6_RNS1_16__dyncast_resultE
0080f770  w    F .text	00000008 _ZNKSt8time_getIcSt19istreambuf_iteratorIcSt11char_traitsIcEEE13do_date_orderEv
00859834  w    O .rodata	0000000c _ZTISt7collateIcE
00859f20  w    O .rodata	0000000c _ZTISt13bad_exception
0085ceb8 g     O .rwdata	00000008 _ZNSt6locale5_Impl14_S_id_messagesE
00859328  w    O .rodata	0000001d _ZTSSt21__ctype_abstract_baseIcE
00807c5c  w    F .text	0000000c _ZNKSt9basic_iosIcSt11char_traitsIcEE4goodEv
00830e7c  w    F .text	00000008 _ZNKSt15basic_streambufIcSt11char_traitsIcEE4pptrEv
00811fac  w    F .text	00000010 _ZNSt17moneypunct_bynameIcLb0EED1Ev
008146e4  w    F .text	00000018 _ZNSt15time_put_bynameIcSt19ostreambuf_iteratorIcSt11char_traitsIcEEEC2EPKcm
008593fc  w    O .rodata	0000000c _ZTISt14collate_bynameIcE
008518f8 g     F .text	000000c0 __sccl
00812da0  w    F .text	000000d8 _ZNSt11__timepunctIcEC2EPSt17__timepunct_cacheIcEm
00803b60 g     F .text	00000040 _ZNKSt6locale2id5_M_idEv
00841cf4  w    F .text	00000008 _ZSt7setfillIcESt8_SetfillIT_ES1_
0085ac60 g     O .rodata	00000101 _ctype_
0080e6c8  w    F .text	0000000c _ZNKSt10moneypunctIcLb0EE11frac_digitsEv
0085d108 g     O .rwdata	00000004 _ZNSt8ios_base5truncE
0083dddc  w    F .text	000003f0 _ZNSt13basic_filebufIcSt11char_traitsIcEE9underflowEv
0081454c  w    F .text	000000c0 _ZNSt8messagesIcEC2EPiPKcm
00806d58  w    F .text	00000030 _ZN9__gnu_cxx13stdio_filebufIcSt11char_traitsIcEEC2Ev
0080f02c  w    F .text	00000044 _ZNKSt7num_getIcSt19istreambuf_iteratorIcSt11char_traitsIcEEE3getES3_S3_RSt8ios_baseRSt12_Ios_IostateRj
0085a7c4  w    O .rodata	00000028 _ZTVSt14basic_ofstreamIcSt11char_traitsIcEE
0083b208  w    F .text	00000034 _ZNSt12domain_errorD0Ev
0080f7dc  w    F .text	00000008 _ZNKSt8messagesIcE7do_openERKSsRKSt6locale
00807a84  w    F .text	00000010 _ZNSt9basic_iosIcSt11char_traitsIcEED1Ev
00841df8  w    F .text	000001d4 _ZNSdC1EPSt15basic_streambufIcSt11char_traitsIcEE
00844130 g     F .text	00000058 fileno
0080acf8  w    F .text	000001f0 _ZNSirsERPv
008425a8  w    F .text	00000030 _ZNK10__cxxabiv117__pbase_type_info15__pointer_catchEPKS0_PPvj
00831ad0  w    F .text	00000008 _ZNKSs5c_strEv
0080fa0c  w    F .text	00000010 _ZNSt23__codecvt_abstract_baseIcc10_mbstate_tED1Ev
0080f9d8  w    F .text	00000034 _ZNSt23__codecvt_abstract_baseIcc10_mbstate_tED0Ev
0085f9f0 g     O .bss	00000038 _ZN14__gnu_internal9facet_vecE
0085f0a0  w    O .bss	00000004 _ZNSt8time_getIcSt19istreambuf_iteratorIcSt11char_traitsIcEEE2idE
00856390 g     F .text	00000060 altera_avalon_uart_close
0085f0a8  w    O .bss	00000004 _ZNSt7collateIcE2idE
00859fec  w    O .rodata	00000010 _ZTIPx
0081421c  w    F .text	000000d0 _ZNSt10moneypunctIcLb0EEC2EPSt18__moneypunct_cacheIcLb0EEm
0082bac0  w    F .text	0000002c _ZN9__gnu_cxx18stdio_sync_filebufIcSt11char_traitsIcEE5uflowEv
00837020 g     F .text	00000100 _ZNK10__cxxabiv121__vmi_class_type_info20__do_find_public_srcElPKvPKNS_17__class_type_infoES2_
0081148c  w    F .text	00000124 _ZNSt14codecvt_bynameIcc10_mbstate_tEC2EPKcm
00853b5c g     F .text	000000a8 __fpcmp_parts_f
00840fb0  w    F .text	00000138 _ZNSt14basic_ifstreamIcSt11char_traitsIcEED0Ev
008444e8 g     F .text	000000f4 _fopen_r
008518c8 g     F .text	00000030 __isnand
00854158 g     F .text	00000020 _exit
0085cf18 g     O .rwdata	00000004 _ZNSt6locale13_S_categoriesE
0083bcd0 g     F .text	000000d0 _ZNSt8ios_base7failureC2ERKSs
00859784  w    O .rodata	00000020 _ZTISt10moneypunctIcLb0EE
00807cb4  w    F .text	00000048 _ZNSt9basic_iosIcSt11char_traitsIcEE5clearESt12_Ios_Iostate
008568a8 g     F .text	00000154 alt_alarm_start
0082f4ec  w    F .text	00000378 _ZNSolsEd
0083ad50 g     F .text	00000190 _ZSt20__throw_out_of_rangePKc
00806d20  w    F .text	00000008 _ZN9__gnu_cxx13stdio_filebufIcSt11char_traitsIcEE2fdEv
00832788  w    F .text	00000090 _ZNKSs7compareEmmPKcm
0083457c  w    F .text	00000060 _ZNSs6insertEN9__gnu_cxx17__normal_iteratorIPcSsEEc
008590f0  w    O .rodata	0000003c _ZTVSt7num_getIcSt19istreambuf_iteratorIcSt11char_traitsIcEEE
00800218 g     F .text	00000038 _ZN3FSMC1Ev
00835650 g     F .text	000000d0 _ZNSt10moneypunctIcLb0EED0Ev
008425d8 g     F .text	00000098 __muldi3
00812e78  w    F .text	000000d0 _ZNSt11__timepunctIcEC1Em
00827e78  w    F .text	000004cc _ZNKSt7num_putIcSt19ostreambuf_iteratorIcSt11char_traitsIcEEE13_M_insert_intIlEES3_S3_RSt8ios_basecT_
0085d118 g     O .rwdata	00000001 _ZNSt8ios_base4Init20_S_synced_with_stdioE
008433f0 g     F .text	00000018 _Unwind_GetGR
00838aa0 g     F .text	00000008 __cxa_get_globals
0084569c g     F .text	00000194 __smakebuf_r
00830e44  w    F .text	00000008 _ZNKSt15basic_streambufIcSt11char_traitsIcEE4gptrEv
00838ffc g     F .text	00000008 _ZNKSt7codecvtIcc10_mbstate_tE11do_encodingEv
0085cf20 g     O .rwdata	00000004 _ZN10__cxxabiv120__unexpected_handlerE
00813180  w    F .text	000000c8 _ZNSt8numpunctIcEC2EPim
00833ba8  w    F .text	00000040 _ZNSspLEPKc
0081a5b4  w    F .text	00001cc8 _ZNKSt9money_getIcSt19istreambuf_iteratorIcSt11char_traitsIcEEE10_M_extractILb1EEES3_S3_S3_RSt8ios_baseRSt12_Ios_IostateRSs
008482f8 g     F .text	00000074 strlen
0083a3f0 g     F .text	00000190 _ZSt23__throw_underflow_errorPKc
00846b44 g     F .text	00000064 _init_signal_r
0085cf24  w    O .rwdata	00000008 _ZTISt9type_info
00854b10 g     F .text	00000188 open
00859f6c  w    O .rodata	00000010 _ZTIPe
0083179c  w    F .text	0000000c _ZNSs4_Rep12_S_empty_repEv
00831794  w    F .text	00000008 _ZNSs12_Alloc_hiderC1EPcRKSaIcE
008405e0  w    F .text	000000f4 _ZNSt14basic_ofstreamIcSt11char_traitsIcEED2Ev
0085fc8c g     O .bss	0000000c _ZN14__gnu_internal10numpunct_cE
0085f090  w    O .bss	00000004 _ZNSt7num_getIcSt19istreambuf_iteratorIcSt11char_traitsIcEEE2idE
00801878 g     F .text	00000060 _ZN8PIO_LVDS9_init_irqEv
0085356c g     F .text	00000088 __gedf2
00819310  w    F .text	000001d4 _ZNKSt8time_getIcSt19istreambuf_iteratorIcSt11char_traitsIcEEE11do_get_timeES3_S3_RSt8ios_baseRSt12_Ios_IostateP2tm
0080ec20  w    F .text	00000040 _ZNKSt10moneypunctIcLb1EE13do_neg_formatEv
00859f2c  w    O .rodata	0000000d _ZTSSt9exception
0084f5a4 g     F .text	000007b8 __gethex
0085a52c  w    O .rodata	00000014 _ZTVSt13runtime_error
008296f0  w    F .text	00001098 _ZNKSt7num_getIcSt19istreambuf_iteratorIcSt11char_traitsIcEEE14_M_extract_intIxEES3_S3_S3_RSt8ios_baseRSt12_Ios_IostateRT_
0085a85c  w    O .rodata	00000028 _ZTCSt14basic_ifstreamIcSt11char_traitsIcEE0_Si
008600cc g     O .bss	00000028 _ZN14__gnu_internal13buf_cout_syncE
0085aa70  w    O .rodata	0000000f _ZTSSt10bad_typeid
00831c5c  w    F .text	0000000c _ZNKSs6lengthEv
0080f208  w    F .text	00000044 _ZNKSt7num_getIcSt19istreambuf_iteratorIcSt11char_traitsIcEEE3getES3_S3_RSt8ios_baseRSt12_Ios_IostateRPv
0085ce64  w    O .rwdata	00000008 _ZTI3SPI
00814b58  w    F .text	00000010 _ZNSt15time_get_bynameIcSt19istreambuf_iteratorIcSt11char_traitsIcEEED2Ev
00832c88  w    F .text	00000020 _ZNSs13_S_copy_charsEPcS_S_
0083c6fc g     F .text	00000008 _ZNKSt11logic_error4whatEv
0085a8c4  w    O .rodata	00000027 _ZTSSt13basic_fstreamIcSt11char_traitsIcEE
008421d8  w    F .text	00000094 _ZNSdD0Ev
008330cc  w    F .text	000000c4 _ZNSs12_S_constructIPKcEEPcT_S3_RKSaIcESt20forward_iterator_tag
00838d08 g     F .text	00000010 _ZNSt9exceptionD0Ev
00813850  w    F .text	0000009c _ZNKSt10moneypunctIcLb0EE11do_groupingEv
0085a710  w    O .rodata	00000028 _ZTTSt13basic_fstreamIcSt11char_traitsIcEE
00845148 g     F .text	000000f8 _ftell_r
008594ac  w    O .rodata	0000003b _ZTSSt8time_getIcSt19istreambuf_iteratorIcSt11char_traitsIcEEE
008083a4  w    F .text	00000004 _ZStrsISt11char_traitsIcEERSt13basic_istreamIcT_ES5_Ph
00834c40  w    F .text	00000070 _ZNSs6resizeEmc
0084d778 g     F .text	00000018 abs
00856fd4 g     F .text	00000030 alt_icache_flush_all
00814ce0  w    F .text	00000178 _ZNSt15numpunct_bynameIcEC2EPKcm
00806bc8 g     F .text	000000c0 _ZNSt6localeC2Ev
008130b8  w    F .text	000000c8 _ZNSt8numpunctIcEC1EPim
0085a46c  w    O .rodata	00000014 _ZTVNSt8ios_base7failureE
0085a264  w    O .rodata	0000000c _ZTSSt5ctypeIcE
0085cff4  w    O .rwdata	00000002 _ZTSx
0080763c  w    F .text	000000dc _ZN9__gnu_cxx13stdio_filebufIcSt11char_traitsIcEED1Ev
00842354 g     F .text	00000010 _ZNSt10bad_typeidD1Ev
0085d098 g     O .rwdata	00000004 _ZNSt5ctypeIcE10table_sizeE
00843484 g     F .text	00000008 _Unwind_GetDataRelBase
0083cde4  w    F .text	00000008 _ZNKSt13basic_fstreamIcSt11char_traitsIcEE5rdbufEv
008353b4  w    F .text	0000001c _ZNSs7replaceEN9__gnu_cxx17__normal_iteratorIPcSsEES2_PKcS4_
0085f074 g     O .bss	00000004 _ZNSt6locale5facet11_S_c_localeE
0085d174 g     O .rwdata	00000004 alt_priority_mask
008347e8  w    F .text	00000174 _ZNSs6insertEmPKcm
00806930 g     F .text	000001d8 _ZNSt6locale6globalERKS_
0083f660  w    F .text	000000a8 _ZNKSt14basic_ifstreamIcSt11char_traitsIcEE7is_openEv
00801e20 g     F .text	0000006c _ZN3SPI15readCMVRegisterEh
00807d44  w    F .text	00000010 _ZNKSt9basic_iosIcSt11char_traitsIcEEntEv
0085f0f4  w    O .bss	00000008 _ZGVNSt8time_getIcSt19istreambuf_iteratorIcSt11char_traitsIcEEE2idE
00857054 g     F .text	0000009c alt_ic_irq_enable
0085cf84  w    O .rwdata	00000008 _ZTIs
0082c358  w    F .text	00000030 _ZNSoC2EPSt15basic_streambufIcSt11char_traitsIcEE
008162fc  w    F .text	00000704 _ZNKSt8time_getIcSt19istreambuf_iteratorIcSt11char_traitsIcEEE16do_get_monthnameES3_S3_RSt8ios_baseRSt12_Ios_IostateP2tm
008410e8  w    F .text	00000010 _ZTv0_n12_NSt13basic_fstreamIcSt11char_traitsIcEED0Ev
0084bbe0 g     F .text	00000024 __vfprintf_internal
0083176c  w    F .text	0000000c _ZNKSs8max_sizeEv
00803b50 g     F .text	00000008 _ZNSt6localeC1EPNS_5_ImplE
008563f0 g     F .text	00000230 altera_avalon_uart_read
0085a0ec  w    O .rodata	00000010 _ZTIPa
0083bafc g     F .text	00000104 _ZNSt8ios_base7failureD1Ev
0085d064  w    O .rwdata	00000004 _ZTSPKw
00810ac8  w    F .text	00000058 _ZSt9use_facetISt9money_putIcSt19ostreambuf_iteratorIcSt11char_traitsIcEEEERKT_RKSt6locale
008596e4  w    O .rodata	0000001d _ZTSSt17moneypunct_bynameIcLb1EE
00842364 g     F .text	00000010 _ZNSt10bad_typeidD2Ev
00852cc4 g     F .text	00000080 __subdf3
0082c1ec  w    F .text	00000024 _ZStlsIcSt11char_traitsIcEERSt13basic_ostreamIT_T0_ES6_St12_Setiosflags
0080f070  w    F .text	00000044 _ZNKSt7num_getIcSt19istreambuf_iteratorIcSt11char_traitsIcEEE3getES3_S3_RSt8ios_baseRSt12_Ios_IostateRm
00806d88  w    F .text	000001f4 _ZN9__gnu_cxx13stdio_filebufIcSt11char_traitsIcEEC1EP7__sFILESt13_Ios_Openmodem
00807830  w    F .text	00000098 _ZNSt9basic_iosIcSt11char_traitsIcEE15_M_cache_localeERKSt6locale
00803d64 g     F .text	000000ac _ZNSt6localeC2ERKS_
0082be4c  w    F .text	0000030c _ZStlsIcSt11char_traitsIcESaIcEERSt13basic_ostreamIT_T0_ES7_RKSbIS4_S5_T1_E
00801f60 g     F .text	00000050 _ZN3SPID1Ev
00832004  w    F .text	00000004 _ZNSs4_Rep10_M_destroyERKSaIcE
008328e0  w    F .text	000000c0 _ZNKSs7compareEmmRKSsmm
00801e8c g     F .text	00000084 _ZN3SPI16writeCMVRegisterEhh
00841d0c  w    F .text	00000008 _ZThn8_NSdD1Ev
00832150  w    F .text	0000000c _ZNKSs12find_last_ofERKSsm
0080e87c  w    F .text	0000000c _ZNKSt10moneypunctIcLb0EE14do_frac_digitsEv
008332c0  w    F .text	00000060 _ZNSsC2EPKcRKSaIcE
0082bb5c  w    F .text	00000054 _ZSt7getlineIcSt11char_traitsIcESaIcEERSt13basic_istreamIT_T0_ES7_RSbIS4_S5_T1_E
00840cdc  w    F .text	000001c8 _ZNSt14basic_ifstreamIcSt11char_traitsIcEEC2EPKcSt13_Ios_Openmode
00835fe0 g     F .text	00000128 _ZNSt8numpunctIcE22_M_initialize_numpunctEPi
00839490 g     F .text	000000dc _ZNSt7codecvtIcc10_mbstate_tED1Ev
008317e8  w    F .text	00000008 _ZNSs4_Rep10_M_refdataEv
008392e8 g     F .text	000000d8 _ZNSt7codecvtIcc10_mbstate_tEC2EPim
008502c0 g     F .text	000000c4 __lo0bits
00830dc8  w    F .text	00000050 _ZNSt15basic_streambufIcSt11char_traitsIcEE10pubseekposESt4fposI10_mbstate_tESt13_Ios_Openmode
0080c26c  w    F .text	00000224 _ZNSirsERs
0080868c  w    F .text	00000010 _ZTv0_n12_NSiD0Ev
00834bec  w    F .text	00000054 _ZNSs6rbeginEv
008345dc  w    F .text	00000048 _ZNSs6insertEmmc
008600f4 g     O .bss	00000028 _ZN14__gnu_internal12buf_cin_syncE
0084bc04 g     F .text	00001680 __svfscanf_r
0080f7d0  w    F .text	0000000c _ZNKSt8messagesIcE5closeEi
0080857c  w    F .text	00000110 _ZNSiC1EPSt15basic_streambufIcSt11char_traitsIcEE
0083b7cc g     F .text	0000005c _ZNSt8ios_baseC1Ev
0080f314  w    F .text	00000038 _ZNKSt7num_putIcSt19ostreambuf_iteratorIcSt11char_traitsIcEEE3putES3_RSt8ios_basecy
0085cee0  w    O .rwdata	00000008 _ZTISt13messages_base
0085d17c g     O .rwdata	00000008 alt_alarm_list
0082ce80  w    F .text	00000010 _ZTv0_n12_NSoD0Ev
00849b24 g     F .text	0000019c _ungetc_r
0085a17c  w    O .rodata	00000028 _ZTSN10__cxxabiv123__fundamental_type_infoE
008028ec  w    F .text	00000020 _ZN4FIFOIcE4lockEv
0080f2ac  w    F .text	00000030 _ZNKSt7num_putIcSt19ostreambuf_iteratorIcSt11char_traitsIcEEE3putES3_RSt8ios_basecm
00856ca0 g     F .text	00000064 _do_ctors
0085d0b8 g     O .rwdata	00000004 _ZNSt8ios_base5rightE
00811254  w    F .text	000000c0 _ZNSt7collateIcEC2Em
00846c6c g     F .text	00000014 __sigtramp
0085a390  w    O .rodata	0000000c _ZTISt16invalid_argument
0083558c g     F .text	00000010 _ZNKSt7collateIcE12_M_transformEPcPKcm
0085fcbc g     O .bss	00000014 _ZN14__gnu_internal11timepunct_cE
0080fb08  w    F .text	00000034 _ZNSt17__timepunct_cacheIcED0Ev
0085ce7c  w    O .rwdata	00000008 _ZTI4FIFOIcE
008333f4  w    F .text	00000034 _ZNSsC2IN9__gnu_cxx17__normal_iteratorIPcSsEEEET_S4_RKSaIcE
00811d98  w    F .text	000000c4 _ZNSt8numpunctIcEC2Em
0085fc80 g     O .bss	0000000c _ZN14__gnu_internal9collate_cE
0080fb3c  w    F .text	00000010 _ZNSt17__timepunct_cacheIcED1Ev
00831710  w    F .text	0000001c _ZNKSs11_M_disjunctEPKc
0083cf98  w    F .text	00000168 _ZNSt13basic_filebufIcSt11char_traitsIcEE9pbackfailEi
0085976c  w    O .rodata	00000016 _ZTSSt10moneypunctIcLb0EE
0085aad4  w    O .rodata	0000000c _ZTIN10__cxxabiv119__pointer_type_infoE
00853f90 g     F .text	000000fc close
00834f1c  w    F .text	00000034 _ZNSs4swapERSs
00811144  w    F .text	000000bc _ZNSt8messagesIcED2Ev
00815158  w    F .text	00000180 _ZNSt17moneypunct_bynameIcLb1EEC1EPKcm
0085d044  w    O .rwdata	00000003 _ZTSPh
0080ecb4  w    F .text	00000054 _ZNSt18__moneypunct_cacheIcLb1EEC1Em
008123b8  w    F .text	000000c8 _ZNSt7collateIcEC2EPim
00858be0  w    O .rodata	00000018 _ZTI8PIO_LVDS
008326a8  w    F .text	0000003c _ZNSsC1EmcRKSaIcE
00819ae0  w    F .text	00000ad4 _ZNSt18__moneypunct_cacheIcLb1EE8_M_cacheERKSt6locale
0083e5dc  w    F .text	000000e0 _ZNSt13basic_filebufIcSt11char_traitsIcEED0Ev
00813718  w    F .text	0000009c _ZNKSt10moneypunctIcLb0EE16do_positive_signEv
00858c14  w    O .rodata	00000010 _ZTV3SPI
00859850  w    O .rodata	0000000c _ZTISt8numpunctIcE
008596d8  w    O .rodata	0000000c _ZTISt9money_getIcSt19istreambuf_iteratorIcSt11char_traitsIcEEE
008258d0  w    F .text	00000fb4 _ZNKSt7num_getIcSt19istreambuf_iteratorIcSt11char_traitsIcEEE14_M_extract_intIlEES3_S3_S3_RSt8ios_baseRSt12_Ios_IostateRT_
0083c41c g     F .text	000000b0 _ZNSt11logic_errorC1ERKSs
0085474c g     F .text	00000080 alt_load
008439e4 g     F .text	00000314 __pack_d
00810968  w    F .text	00000058 _ZSt9use_facetISt8time_getIcSt19istreambuf_iteratorIcSt11char_traitsIcEEEERKT_RKSt6locale
00831738  w    F .text	00000010 _ZNSsC1Ev
0080b4b8  w    F .text	000001f0 _ZNSirsERy
00837ac0 g     F .text	00000010 _ZNKSt9type_info10__do_catchEPKS_PPvj
0085d034  w    O .rwdata	00000004 _ZTSPKs
00836c0c g     F .text	000000d8 _ZSt14__convert_to_vIdEvPKcRT_RSt12_Ios_IostateRKPi
00807828  w    F .text	00000008 _ZNKSt9basic_iosIcSt11char_traitsIcEE5rdbufEv
00830fe8  w    F .text	0000002c _ZNSt15basic_streambufIcSt11char_traitsIcEEC2Ev
00858f28  w    O .rodata	00000018 _ZTISi
0084fff0 g     F .text	0000000c __gettzinfo
00846b30 g     F .text	00000014 raise
0083c66c g     F .text	00000030 _ZNSt16invalid_argumentC2ERKSs
0085d028  w    O .rwdata	00000004 _ZTSPKt
0080057c g     F .text	00000020 _ZN3FSM9_spi_readEv
00845830 g     F .text	00000014 free
008310cc  w    F .text	0000004c _ZNSt15basic_streambufIcSt11char_traitsIcEE5uflowEv
008441e8 g     F .text	00000004 __sinit_lock_acquire
0080f0b4  w    F .text	00000044 _ZNKSt7num_getIcSt19istreambuf_iteratorIcSt11char_traitsIcEEE3getES3_S3_RSt8ios_baseRSt12_Ios_IostateRx
0083c60c g     F .text	00000030 _ZNSt12length_errorC2ERKSs
0085fcd0 g     O .bss	00000010 _ZN14__gnu_internal10messages_cE
00850edc g     F .text	00000100 __multadd
00838780 g     F .text	00000034 _ZN10__cxxabiv117__class_type_infoD0Ev
00850228 g     F .text	00000028 _Bfree
0080a910  w    F .text	00000220 _ZNSi3getEv
00833a5c  w    F .text	0000010c _ZNSs6appendEPKcm
0083c704 g     F .text	000000b0 _ZNSt13runtime_errorC1ERKSs
00832e60  w    F .text	000000ec _ZNSsC1ERKSsmm



Disassembly of section .entry:

01004000 <__reset>:
#if NIOS2_ICACHE_SIZE > 0 && defined(ALT_ALLOW_CODE_AT_RESET) && !defined(ALT_SIM_OPTIMIZE)
    /* Assume the instruction cache size is always a power of two. */
#if NIOS2_ICACHE_SIZE > 0x8000
    movhi r2, %hi(NIOS2_ICACHE_SIZE)
#else
    movui r2, NIOS2_ICACHE_SIZE
 1004000:	00840014 	movui	r2,4096
#endif

0:
    initi r2
 1004004:	1001483a 	initi	r2
    addi r2, r2, -NIOS2_ICACHE_LINE_SIZE
 1004008:	10bff804 	addi	r2,r2,-32
    bgt r2, zero, 0b
 100400c:	00bffd16 	blt	zero,r2,1004004 <__reset+0x4>
 * Jump to the _start entry point in the .text section if reset code
 * is allowed or if optimizing for RTL simulation.
 */
#if defined(ALT_ALLOW_CODE_AT_RESET) || defined(ALT_SIM_OPTIMIZE)
    /* Jump to the _start entry point in the .text section. */
    movhi r1, %hi(_start)
 1004010:	00402034 	movhi	at,128
    ori r1, r1, %lo(_start)
 1004014:	08406514 	ori	at,at,404
    jmp r1
 1004018:	0800683a 	jmp	at
 100401c:	00000000 	call	0 <__alt_mem_sdram_controller-0x800000>

Disassembly of section .exceptions:

01004020 <alt_exception>:
         * Process an exception.  For all exceptions we must preserve all
         * caller saved registers on the stack (See the Nios2 ABI
         * documentation for details).
         */

        addi  sp, sp, -76
 1004020:	deffed04 	addi	sp,sp,-76

#endif

#endif

        stw   ra,  0(sp)
 1004024:	dfc00015 	stw	ra,0(sp)
        /*
         * Leave a gap in the stack frame at 4(sp) for the muldiv handler to
         * store zero into.
         */

        stw   r1,   8(sp)
 1004028:	d8400215 	stw	at,8(sp)
        stw   r2,  12(sp)
 100402c:	d8800315 	stw	r2,12(sp)
        stw   r3,  16(sp)
 1004030:	d8c00415 	stw	r3,16(sp)
        stw   r4,  20(sp)
 1004034:	d9000515 	stw	r4,20(sp)
        stw   r5,  24(sp)
 1004038:	d9400615 	stw	r5,24(sp)
        stw   r6,  28(sp)
 100403c:	d9800715 	stw	r6,28(sp)
        stw   r7,  32(sp)
 1004040:	d9c00815 	stw	r7,32(sp)

        rdctl r5, estatus
 1004044:	000b307a 	rdctl	r5,estatus

        stw   r8,  36(sp)
 1004048:	da000915 	stw	r8,36(sp)
        stw   r9,  40(sp)
 100404c:	da400a15 	stw	r9,40(sp)
        stw   r10, 44(sp)
 1004050:	da800b15 	stw	r10,44(sp)
        stw   r11, 48(sp)
 1004054:	dac00c15 	stw	r11,48(sp)
        stw   r12, 52(sp)
 1004058:	db000d15 	stw	r12,52(sp)
        stw   r13, 56(sp)
 100405c:	db400e15 	stw	r13,56(sp)
        stw   r14, 60(sp)
 1004060:	db800f15 	stw	r14,60(sp)
        stw   r15, 64(sp)
 1004064:	dbc01015 	stw	r15,64(sp)
        /*
         * ea-4 contains the address of the instruction being executed
         * when the exception occured. For interrupt exceptions, we will
         * will be re-issue the isntruction. Store it in 72(sp)
         */
        stw   r5,  68(sp)  /* estatus */
 1004068:	d9401115 	stw	r5,68(sp)
        addi  r15, ea, -4  /* instruction that caused exception */
 100406c:	ebffff04 	addi	r15,ea,-4
        stw   r15,  72(sp)
 1004070:	dbc01215 	stw	r15,72(sp)
#else
        /*
         * Test to see if the exception was a software exception or caused 
         * by an external interrupt, and vector accordingly.
         */
        rdctl r4, ipending
 1004074:	0009313a 	rdctl	r4,ipending
        andi  r2, r5, 1
 1004078:	2880004c 	andi	r2,r5,1
        beq   r2, zero, .Lnot_irq
 100407c:	10000326 	beq	r2,zero,100408c <alt_exception+0x6c>
        beq   r4, zero, .Lnot_irq
 1004080:	20000226 	beq	r4,zero,100408c <alt_exception+0x6c>
        /*
         * Now that all necessary registers have been preserved, call 
         * alt_irq_handler() to process the interrupts.
         */

        call alt_irq_handler
 1004084:	10040ec0 	call	10040ec <alt_irq_handler>

        .section .exceptions.irqreturn, "xa"

        br    .Lexception_exit
 1004088:	00000306 	br	1004098 <alt_exception+0x78>
         * upon completion, so we write ea (address of instruction *after*
         * the one where the exception occured) into 72(sp). The actual
         * instruction that caused the exception is written in r2, which these
         * handlers will utilize.
         */
        stw   ea,  72(sp)  /* Don't re-issue */
 100408c:	df401215 	stw	ea,72(sp)
        ldw   r2, -4(ea)   /* Instruction that caused exception */
 1004090:	e8bfff17 	ldw	r2,-4(ea)
#ifdef NIOS2_HAS_DEBUG_STUB
       /*
        *  Either tell the user now (if there is a debugger attached) or go into
        *  the debug monitor which will loop until a debugger is attached.
        */
        break
 1004094:	003da03a 	break	0
        /* 
         * Restore the saved registers, so that all general purpose registers 
         * have been restored to their state at the time the interrupt occured.
         */

        ldw   r5,  68(sp)
 1004098:	d9401117 	ldw	r5,68(sp)
        ldw   ea,  72(sp)  /* This becomes the PC once eret is executed */
 100409c:	df401217 	ldw	ea,72(sp)
        ldw   ra,   0(sp)
 10040a0:	dfc00017 	ldw	ra,0(sp)

        wrctl estatus, r5
 10040a4:	2801707a 	wrctl	estatus,r5

        ldw   r1,   8(sp)
 10040a8:	d8400217 	ldw	at,8(sp)
        ldw   r2,  12(sp)
 10040ac:	d8800317 	ldw	r2,12(sp)
        ldw   r3,  16(sp)
 10040b0:	d8c00417 	ldw	r3,16(sp)
        ldw   r4,  20(sp)
 10040b4:	d9000517 	ldw	r4,20(sp)
        ldw   r5,  24(sp)
 10040b8:	d9400617 	ldw	r5,24(sp)
        ldw   r6,  28(sp)
 10040bc:	d9800717 	ldw	r6,28(sp)
        ldw   r7,  32(sp)
 10040c0:	d9c00817 	ldw	r7,32(sp)
#ifdef ALT_STACK_CHECK
        ldw   et, %gprel(alt_exception_old_stack_limit)(gp)
#endif
#endif

        ldw   r8,  36(sp)
 10040c4:	da000917 	ldw	r8,36(sp)
        ldw   r9,  40(sp)
 10040c8:	da400a17 	ldw	r9,40(sp)
        ldw   r10, 44(sp)
 10040cc:	da800b17 	ldw	r10,44(sp)
        ldw   r11, 48(sp)
 10040d0:	dac00c17 	ldw	r11,48(sp)
        ldw   r12, 52(sp)
 10040d4:	db000d17 	ldw	r12,52(sp)
        ldw   r13, 56(sp)
 10040d8:	db400e17 	ldw	r13,56(sp)
        ldw   r14, 60(sp)
 10040dc:	db800f17 	ldw	r14,60(sp)
        ldw   r15, 64(sp)
 10040e0:	dbc01017 	ldw	r15,64(sp)
#endif

        ldw   sp,  76(sp)

#else
        addi  sp, sp, 76
 10040e4:	dec01304 	addi	sp,sp,76

        /*
         * Return to the interrupted instruction.
         */

        eret
 10040e8:	ef80083a 	eret

010040ec <alt_irq_handler>:
 * instruction is present if the macro ALT_CI_INTERRUPT_VECTOR defined.
 */

void alt_irq_handler (void) __attribute__ ((section (".exceptions")));
void alt_irq_handler (void)
{
 10040ec:	defff904 	addi	sp,sp,-28
 10040f0:	dfc00615 	stw	ra,24(sp)
 10040f4:	df000515 	stw	fp,20(sp)
 10040f8:	df000504 	addi	fp,sp,20
#ifndef NIOS2_EIC_PRESENT
static ALT_INLINE alt_u32 ALT_ALWAYS_INLINE alt_irq_pending (void)
{
  alt_u32 active;

  NIOS2_READ_IPENDING (active);
 10040fc:	0005313a 	rdctl	r2,ipending
 1004100:	e0bffc15 	stw	r2,-16(fp)

  return active;
 1004104:	e0bffc17 	ldw	r2,-16(fp)
   * Consider the case where the high priority interupt is asserted during
   * the interrupt entry sequence for a lower priority interrupt to see why
   * this is the case.
   */

  active = alt_irq_pending ();
 1004108:	e0bfff15 	stw	r2,-4(fp)

  do
  {
    i = 0;
 100410c:	e03ffd15 	stw	zero,-12(fp)
    mask = 1;
 1004110:	00800044 	movi	r2,1
 1004114:	e0bffe15 	stw	r2,-8(fp)
     * called to clear the interrupt condition.
     */

    do
    {
      if (active & mask)
 1004118:	e0ffff17 	ldw	r3,-4(fp)
 100411c:	e0bffe17 	ldw	r2,-8(fp)
 1004120:	1884703a 	and	r2,r3,r2
 1004124:	1005003a 	cmpeq	r2,r2,zero
 1004128:	1000161e 	bne	r2,zero,1004184 <alt_irq_handler+0x98>
      { 
#ifdef ALT_ENHANCED_INTERRUPT_API_PRESENT
        alt_irq[i].handler(alt_irq[i].context); 
 100412c:	e0bffd17 	ldw	r2,-12(fp)
 1004130:	00c021b4 	movhi	r3,134
 1004134:	18c0f204 	addi	r3,r3,968
 1004138:	100490fa 	slli	r2,r2,3
 100413c:	10c5883a 	add	r2,r2,r3
 1004140:	11400017 	ldw	r5,0(r2)
 1004144:	e0bffd17 	ldw	r2,-12(fp)
 1004148:	00c021b4 	movhi	r3,134
 100414c:	18c0f204 	addi	r3,r3,968
 1004150:	100490fa 	slli	r2,r2,3
 1004154:	10c5883a 	add	r2,r2,r3
 1004158:	10800104 	addi	r2,r2,4
 100415c:	11000017 	ldw	r4,0(r2)
 1004160:	283ee83a 	callr	r5
#ifndef NIOS2_EIC_PRESENT
static ALT_INLINE alt_u32 ALT_ALWAYS_INLINE alt_irq_pending (void)
{
  alt_u32 active;

  NIOS2_READ_IPENDING (active);
 1004164:	0005313a 	rdctl	r2,ipending
 1004168:	e0bffb15 	stw	r2,-20(fp)

  return active;
 100416c:	e0bffb17 	ldw	r2,-20(fp)
      mask <<= 1;
      i++;

    } while (1);

    active = alt_irq_pending ();
 1004170:	e0bfff15 	stw	r2,-4(fp)
    
  } while (active);
 1004174:	e0bfff17 	ldw	r2,-4(fp)
 1004178:	1004c03a 	cmpne	r2,r2,zero
 100417c:	103fe31e 	bne	r2,zero,100410c <alt_irq_handler+0x20>
 1004180:	00000706 	br	10041a0 <alt_irq_handler+0xb4>
#else
        alt_irq[i].handler(alt_irq[i].context, i); 
#endif
        break;
      }
      mask <<= 1;
 1004184:	e0bffe17 	ldw	r2,-8(fp)
 1004188:	1085883a 	add	r2,r2,r2
 100418c:	e0bffe15 	stw	r2,-8(fp)
      i++;
 1004190:	e0bffd17 	ldw	r2,-12(fp)
 1004194:	10800044 	addi	r2,r2,1
 1004198:	e0bffd15 	stw	r2,-12(fp)

    } while (1);
 100419c:	003fde06 	br	1004118 <alt_irq_handler+0x2c>
  /*
   * Notify the operating system that interrupt processing is complete.
   */ 

  ALT_OS_INT_EXIT();
}
 10041a0:	e037883a 	mov	sp,fp
 10041a4:	dfc00117 	ldw	ra,4(sp)
 10041a8:	df000017 	ldw	fp,0(sp)
 10041ac:	dec00204 	addi	sp,sp,8
 10041b0:	f800283a 	ret

Disassembly of section .text:

00800194 <_start>:

    /* Assume the data cache size is always a power of two. */
#if NIOS2_DCACHE_SIZE > 0x8000
    movhi r2, %hi(NIOS2_DCACHE_SIZE)
#else
    movui r2, NIOS2_DCACHE_SIZE
  800194:	00820014 	movui	r2,2048
#endif

0:
    initd 0(r2)
  800198:	10000033 	initd	0(r2)
    addi r2, r2, -NIOS2_DCACHE_LINE_SIZE
  80019c:	10bff804 	addi	r2,r2,-32
    bgt r2, zero, 0b
  8001a0:	00bffd16 	blt	zero,r2,800198 <_start+0x4>
#if (NIOS2_NUM_OF_SHADOW_REG_SETS == 0)    
    /*
     * Now that the caches are initialized, set up the stack pointer.
     * The value provided by the linker is assumed to be correctly aligned.
     */
    movhi sp, %hi(__alt_stack_pointer)
  8001a4:	06c04034 	movhi	sp,256
    ori sp, sp, %lo(__alt_stack_pointer)
  8001a8:	dec00014 	ori	sp,sp,0

    /* Set up the global pointer. */
    movhi gp, %hi(_gp)
  8001ac:	068021b4 	movhi	gp,134
    ori gp, gp, %lo(_gp)
  8001b0:	d6938b14 	ori	gp,gp,20012
 */
#ifndef ALT_SIM_OPTIMIZE
    /* Log that the BSS is about to be cleared. */
    ALT_LOG_PUTS(alt_log_msg_bss)

    movhi r2, %hi(__bss_start)
  8001b4:	00802174 	movhi	r2,133
    ori r2, r2, %lo(__bss_start)
  8001b8:	10bc1714 	ori	r2,r2,61532

    movhi r3, %hi(__bss_end)
  8001bc:	00c021b4 	movhi	r3,134
    ori r3, r3, %lo(__bss_end)
  8001c0:	18c19614 	ori	r3,r3,1624

    beq r2, r3, 1f
  8001c4:	10c00326 	beq	r2,r3,8001d4 <_start+0x40>

0:
    stw zero, (r2)
  8001c8:	10000015 	stw	zero,0(r2)
    addi r2, r2, 4
  8001cc:	10800104 	addi	r2,r2,4
    bltu r2, r3, 0b
  8001d0:	10fffd36 	bltu	r2,r3,8001c8 <_start+0x34>
     * section aren't defined until alt_load() has been called).
     */
    mov   et, zero
#endif

    call alt_load
  8001d4:	085474c0 	call	85474c <alt_load>

    /* Log that alt_main is about to be called. */
    ALT_LOG_PUTS(alt_log_msg_alt_main)

    /* Call the C entry point. It should never return. */
    call alt_main
  8001d8:	08549880 	call	854988 <alt_main>

008001dc <alt_after_alt_main>:

    /* Wait in infinite loop in case alt_main does return. */
alt_after_alt_main:
    br alt_after_alt_main
  8001dc:	003fff06 	br	8001dc <alt_after_alt_main>

008001e0 <_ZN3FSMC2Ev>:
#include "unistd.h"
#include "altera_avalon_pio_regs.h"
#include <streambuf>
#include <iostream>

FSM::FSM() {
  8001e0:	defffe04 	addi	sp,sp,-8
  8001e4:	df000115 	stw	fp,4(sp)
  8001e8:	df000104 	addi	fp,sp,4
  8001ec:	e13fff15 	stw	r4,-4(fp)
  8001f0:	008021b4 	movhi	r2,134
  8001f4:	10a2d904 	addi	r2,r2,-29852
  8001f8:	e0ffff17 	ldw	r3,-4(fp)
  8001fc:	18800015 	stw	r2,0(r3)
	_current_state = init;
  800200:	e0bfff17 	ldw	r2,-4(fp)
  800204:	10000115 	stw	zero,4(r2)
}
  800208:	e037883a 	mov	sp,fp
  80020c:	df000017 	ldw	fp,0(sp)
  800210:	dec00104 	addi	sp,sp,4
  800214:	f800283a 	ret

00800218 <_ZN3FSMC1Ev>:
#include "unistd.h"
#include "altera_avalon_pio_regs.h"
#include <streambuf>
#include <iostream>

FSM::FSM() {
  800218:	defffe04 	addi	sp,sp,-8
  80021c:	df000115 	stw	fp,4(sp)
  800220:	df000104 	addi	fp,sp,4
  800224:	e13fff15 	stw	r4,-4(fp)
  800228:	008021b4 	movhi	r2,134
  80022c:	10a2d904 	addi	r2,r2,-29852
  800230:	e0ffff17 	ldw	r3,-4(fp)
  800234:	18800015 	stw	r2,0(r3)
	_current_state = init;
  800238:	e0bfff17 	ldw	r2,-4(fp)
  80023c:	10000115 	stw	zero,4(r2)
}
  800240:	e037883a 	mov	sp,fp
  800244:	df000017 	ldw	fp,0(sp)
  800248:	dec00104 	addi	sp,sp,4
  80024c:	f800283a 	ret

00800250 <_ZN3FSM10transitionEv>:
			_unset();
			break;
	}
}

void FSM::transition(void) {
  800250:	defffd04 	addi	sp,sp,-12
  800254:	df000215 	stw	fp,8(sp)
  800258:	df000204 	addi	fp,sp,8
  80025c:	e13ffe15 	stw	r4,-8(fp)

	switch (_current_state) {
  800260:	e0bffe17 	ldw	r2,-8(fp)
  800264:	10800117 	ldw	r2,4(r2)
  800268:	e0bfff15 	stw	r2,-4(fp)
  80026c:	e0ffff17 	ldw	r3,-4(fp)
  800270:	18800228 	cmpgeui	r2,r3,8
  800274:	1000171e 	bne	r2,zero,8002d4 <_ZN3FSM10transitionEv+0x84>
  800278:	e13fff17 	ldw	r4,-4(fp)
  80027c:	e13fff17 	ldw	r4,-4(fp)
  800280:	2105883a 	add	r2,r4,r4
  800284:	1087883a 	add	r3,r2,r2
  800288:	00802034 	movhi	r2,128
  80028c:	1080a704 	addi	r2,r2,668
  800290:	1885883a 	add	r2,r3,r2
  800294:	10800017 	ldw	r2,0(r2)
  800298:	1000683a 	jmp	r2
  80029c:	008002bc 	xorhi	r2,zero,10
  8002a0:	008002cc 	andi	r2,zero,11
  8002a4:	008002d4 	movui	r2,11
  8002a8:	008002d4 	movui	r2,11
  8002ac:	008002d4 	movui	r2,11
  8002b0:	008002d4 	movui	r2,11
  8002b4:	008002d4 	movui	r2,11
  8002b8:	008002d4 	movui	r2,11
		case init:
			_current_state = select_mode;
  8002bc:	e0fffe17 	ldw	r3,-8(fp)
  8002c0:	00800084 	movi	r2,2
  8002c4:	18800115 	stw	r2,4(r3)
			break;
  8002c8:	00000206 	br	8002d4 <_ZN3FSM10transitionEv+0x84>
			break;
		case spi_read_all:

			break;
		case unset:
			_current_state = init;
  8002cc:	e0bffe17 	ldw	r2,-8(fp)
  8002d0:	10000115 	stw	zero,4(r2)
			break;
	}
}
  8002d4:	e037883a 	mov	sp,fp
  8002d8:	df000017 	ldw	fp,0(sp)
  8002dc:	dec00104 	addi	sp,sp,4
  8002e0:	f800283a 	ret

008002e4 <_ZN3FSM6_unsetEv>:
			usleep(500000);
		}
	}
}

void FSM::_unset(void) {
  8002e4:	defffd04 	addi	sp,sp,-12
  8002e8:	dfc00215 	stw	ra,8(sp)
  8002ec:	df000115 	stw	fp,4(sp)
  8002f0:	df000104 	addi	fp,sp,4
  8002f4:	e13fff15 	stw	r4,-4(fp)

	delete _uart;
  8002f8:	e0bfff17 	ldw	r2,-4(fp)
  8002fc:	10800217 	ldw	r2,8(r2)
  800300:	1005003a 	cmpeq	r2,r2,zero
  800304:	1000081e 	bne	r2,zero,800328 <_ZN3FSM6_unsetEv+0x44>
  800308:	e0bfff17 	ldw	r2,-4(fp)
  80030c:	10800217 	ldw	r2,8(r2)
  800310:	10800017 	ldw	r2,0(r2)
  800314:	10800104 	addi	r2,r2,4
  800318:	10c00017 	ldw	r3,0(r2)
  80031c:	e0bfff17 	ldw	r2,-4(fp)
  800320:	11000217 	ldw	r4,8(r2)
  800324:	183ee83a 	callr	r3
	delete _spi;
  800328:	e0bfff17 	ldw	r2,-4(fp)
  80032c:	10800317 	ldw	r2,12(r2)
  800330:	1005003a 	cmpeq	r2,r2,zero
  800334:	1000081e 	bne	r2,zero,800358 <_ZN3FSM6_unsetEv+0x74>
  800338:	e0bfff17 	ldw	r2,-4(fp)
  80033c:	10800317 	ldw	r2,12(r2)
  800340:	10800017 	ldw	r2,0(r2)
  800344:	10800104 	addi	r2,r2,4
  800348:	10c00017 	ldw	r3,0(r2)
  80034c:	e0bfff17 	ldw	r2,-4(fp)
  800350:	11000317 	ldw	r4,12(r2)
  800354:	183ee83a 	callr	r3

	delete _bus_lvds_ctr;
  800358:	e0bfff17 	ldw	r2,-4(fp)
  80035c:	10800917 	ldw	r2,36(r2)
  800360:	1005003a 	cmpeq	r2,r2,zero
  800364:	1000081e 	bne	r2,zero,800388 <_ZN3FSM6_unsetEv+0xa4>
  800368:	e0bfff17 	ldw	r2,-4(fp)
  80036c:	10800917 	ldw	r2,36(r2)
  800370:	10800017 	ldw	r2,0(r2)
  800374:	10800104 	addi	r2,r2,4
  800378:	10c00017 	ldw	r3,0(r2)
  80037c:	e0bfff17 	ldw	r2,-4(fp)
  800380:	11000917 	ldw	r4,36(r2)
  800384:	183ee83a 	callr	r3
	delete _bus_lvds_ch0;
  800388:	e0bfff17 	ldw	r2,-4(fp)
  80038c:	10800a17 	ldw	r2,40(r2)
  800390:	1005003a 	cmpeq	r2,r2,zero
  800394:	1000081e 	bne	r2,zero,8003b8 <_ZN3FSM6_unsetEv+0xd4>
  800398:	e0bfff17 	ldw	r2,-4(fp)
  80039c:	10800a17 	ldw	r2,40(r2)
  8003a0:	10800017 	ldw	r2,0(r2)
  8003a4:	10800104 	addi	r2,r2,4
  8003a8:	10c00017 	ldw	r3,0(r2)
  8003ac:	e0bfff17 	ldw	r2,-4(fp)
  8003b0:	11000a17 	ldw	r4,40(r2)
  8003b4:	183ee83a 	callr	r3
	delete _bus_lvds_ch9;
  8003b8:	e0bfff17 	ldw	r2,-4(fp)
  8003bc:	10800b17 	ldw	r2,44(r2)
  8003c0:	1005003a 	cmpeq	r2,r2,zero
  8003c4:	1000081e 	bne	r2,zero,8003e8 <_ZN3FSM6_unsetEv+0x104>
  8003c8:	e0bfff17 	ldw	r2,-4(fp)
  8003cc:	10800b17 	ldw	r2,44(r2)
  8003d0:	10800017 	ldw	r2,0(r2)
  8003d4:	10800104 	addi	r2,r2,4
  8003d8:	10c00017 	ldw	r3,0(r2)
  8003dc:	e0bfff17 	ldw	r2,-4(fp)
  8003e0:	11000b17 	ldw	r4,44(r2)
  8003e4:	183ee83a 	callr	r3
	delete _lvds_clk_in;
  8003e8:	e0bfff17 	ldw	r2,-4(fp)
  8003ec:	10800c17 	ldw	r2,48(r2)
  8003f0:	1005003a 	cmpeq	r2,r2,zero
  8003f4:	1000081e 	bne	r2,zero,800418 <_ZN3FSM6_unsetEv+0x134>
  8003f8:	e0bfff17 	ldw	r2,-4(fp)
  8003fc:	10800c17 	ldw	r2,48(r2)
  800400:	10800017 	ldw	r2,0(r2)
  800404:	10800104 	addi	r2,r2,4
  800408:	10c00017 	ldw	r3,0(r2)
  80040c:	e0bfff17 	ldw	r2,-4(fp)
  800410:	11000c17 	ldw	r4,48(r2)
  800414:	183ee83a 	callr	r3
	delete _res_n;
  800418:	e0bfff17 	ldw	r2,-4(fp)
  80041c:	10800517 	ldw	r2,20(r2)
  800420:	1005003a 	cmpeq	r2,r2,zero
  800424:	1000081e 	bne	r2,zero,800448 <_ZN3FSM6_unsetEv+0x164>
  800428:	e0bfff17 	ldw	r2,-4(fp)
  80042c:	10800517 	ldw	r2,20(r2)
  800430:	10800017 	ldw	r2,0(r2)
  800434:	10800104 	addi	r2,r2,4
  800438:	10c00017 	ldw	r3,0(r2)
  80043c:	e0bfff17 	ldw	r2,-4(fp)
  800440:	11000517 	ldw	r4,20(r2)
  800444:	183ee83a 	callr	r3
	delete _frame_req;
  800448:	e0bfff17 	ldw	r2,-4(fp)
  80044c:	10800617 	ldw	r2,24(r2)
  800450:	1005003a 	cmpeq	r2,r2,zero
  800454:	1000081e 	bne	r2,zero,800478 <_ZN3FSM6_unsetEv+0x194>
  800458:	e0bfff17 	ldw	r2,-4(fp)
  80045c:	10800617 	ldw	r2,24(r2)
  800460:	10800017 	ldw	r2,0(r2)
  800464:	10800104 	addi	r2,r2,4
  800468:	10c00017 	ldw	r3,0(r2)
  80046c:	e0bfff17 	ldw	r2,-4(fp)
  800470:	11000617 	ldw	r4,24(r2)
  800474:	183ee83a 	callr	r3
	delete _bus_debug;
  800478:	e0bfff17 	ldw	r2,-4(fp)
  80047c:	10800717 	ldw	r2,28(r2)
  800480:	1005003a 	cmpeq	r2,r2,zero
  800484:	1000081e 	bne	r2,zero,8004a8 <_ZN3FSM6_unsetEv+0x1c4>
  800488:	e0bfff17 	ldw	r2,-4(fp)
  80048c:	10800717 	ldw	r2,28(r2)
  800490:	10800017 	ldw	r2,0(r2)
  800494:	10800104 	addi	r2,r2,4
  800498:	10c00017 	ldw	r3,0(r2)
  80049c:	e0bfff17 	ldw	r2,-4(fp)
  8004a0:	11000717 	ldw	r4,28(r2)
  8004a4:	183ee83a 	callr	r3

	delete _pio_output;
  8004a8:	e0bfff17 	ldw	r2,-4(fp)
  8004ac:	10800417 	ldw	r2,16(r2)
  8004b0:	1005003a 	cmpeq	r2,r2,zero
  8004b4:	1000081e 	bne	r2,zero,8004d8 <_ZN3FSM6_unsetEv+0x1f4>
  8004b8:	e0bfff17 	ldw	r2,-4(fp)
  8004bc:	10800417 	ldw	r2,16(r2)
  8004c0:	10800017 	ldw	r2,0(r2)
  8004c4:	10800104 	addi	r2,r2,4
  8004c8:	10c00017 	ldw	r3,0(r2)
  8004cc:	e0bfff17 	ldw	r2,-4(fp)
  8004d0:	11000417 	ldw	r4,16(r2)
  8004d4:	183ee83a 	callr	r3
	delete _pio_input;
  8004d8:	e0bfff17 	ldw	r2,-4(fp)
  8004dc:	10800817 	ldw	r2,32(r2)
  8004e0:	1005003a 	cmpeq	r2,r2,zero
  8004e4:	1000081e 	bne	r2,zero,800508 <_ZN3FSM6_unsetEv+0x224>
  8004e8:	e0bfff17 	ldw	r2,-4(fp)
  8004ec:	10800817 	ldw	r2,32(r2)
  8004f0:	10800017 	ldw	r2,0(r2)
  8004f4:	10800104 	addi	r2,r2,4
  8004f8:	10c00017 	ldw	r3,0(r2)
  8004fc:	e0bfff17 	ldw	r2,-4(fp)
  800500:	11000817 	ldw	r4,32(r2)
  800504:	183ee83a 	callr	r3
}
  800508:	e037883a 	mov	sp,fp
  80050c:	dfc00117 	ldw	ra,4(sp)
  800510:	df000017 	ldw	fp,0(sp)
  800514:	dec00204 	addi	sp,sp,8
  800518:	f800283a 	ret

0080051c <_ZN3FSM12_select_modeEv>:

void FSM::_select_mode(void) {
  80051c:	defffe04 	addi	sp,sp,-8
  800520:	df000115 	stw	fp,4(sp)
  800524:	df000104 	addi	fp,sp,4
  800528:	e13fff15 	stw	r4,-4(fp)
	// TODO Auto-generated destructor stub
}
  80052c:	e037883a 	mov	sp,fp
  800530:	df000017 	ldw	fp,0(sp)
  800534:	dec00104 	addi	sp,sp,4
  800538:	f800283a 	ret

0080053c <_ZN3FSM13_wait_requestEv>:

void FSM::_wait_request(void) {
  80053c:	defffe04 	addi	sp,sp,-8
  800540:	df000115 	stw	fp,4(sp)
  800544:	df000104 	addi	fp,sp,4
  800548:	e13fff15 	stw	r4,-4(fp)
	// TODO Auto-generated destructor stub
}
  80054c:	e037883a 	mov	sp,fp
  800550:	df000017 	ldw	fp,0(sp)
  800554:	dec00104 	addi	sp,sp,4
  800558:	f800283a 	ret

0080055c <_ZN3FSM9_spi_menuEv>:

void FSM::_spi_menu(void) {
  80055c:	defffe04 	addi	sp,sp,-8
  800560:	df000115 	stw	fp,4(sp)
  800564:	df000104 	addi	fp,sp,4
  800568:	e13fff15 	stw	r4,-4(fp)
	// TODO Auto-generated
}
  80056c:	e037883a 	mov	sp,fp
  800570:	df000017 	ldw	fp,0(sp)
  800574:	dec00104 	addi	sp,sp,4
  800578:	f800283a 	ret

0080057c <_ZN3FSM9_spi_readEv>:

void FSM::_spi_read(void) {
  80057c:	defffe04 	addi	sp,sp,-8
  800580:	df000115 	stw	fp,4(sp)
  800584:	df000104 	addi	fp,sp,4
  800588:	e13fff15 	stw	r4,-4(fp)
	// TODO Auto-generated
}
  80058c:	e037883a 	mov	sp,fp
  800590:	df000017 	ldw	fp,0(sp)
  800594:	dec00104 	addi	sp,sp,4
  800598:	f800283a 	ret

0080059c <_ZN3FSM10_spi_writeEv>:

void FSM::_spi_write(void) {
  80059c:	defffe04 	addi	sp,sp,-8
  8005a0:	df000115 	stw	fp,4(sp)
  8005a4:	df000104 	addi	fp,sp,4
  8005a8:	e13fff15 	stw	r4,-4(fp)
	// TODO Auto-generated
}
  8005ac:	e037883a 	mov	sp,fp
  8005b0:	df000017 	ldw	fp,0(sp)
  8005b4:	dec00104 	addi	sp,sp,4
  8005b8:	f800283a 	ret

008005bc <_Z41__static_initialization_and_destruction_0ii>:
  8005bc:	defffc04 	addi	sp,sp,-16
  8005c0:	dfc00315 	stw	ra,12(sp)
  8005c4:	df000215 	stw	fp,8(sp)
  8005c8:	df000204 	addi	fp,sp,8
  8005cc:	e13ffe15 	stw	r4,-8(fp)
  8005d0:	e17fff15 	stw	r5,-4(fp)
  8005d4:	e0bffe17 	ldw	r2,-8(fp)
  8005d8:	10800058 	cmpnei	r2,r2,1
  8005dc:	1000051e 	bne	r2,zero,8005f4 <_Z41__static_initialization_and_destruction_0ii+0x38>
  8005e0:	e0ffff17 	ldw	r3,-4(fp)
  8005e4:	00bfffd4 	movui	r2,65535
  8005e8:	1880021e 	bne	r3,r2,8005f4 <_Z41__static_initialization_and_destruction_0ii+0x38>
  extern wostream wclog;	///< Linked to standard error (buffered)
#endif
  //@}

  // For construction of filebuffers for cout, cin, cerr, clog et. al.
  static ios_base::Init __ioinit;
  8005ec:	d1288c04 	addi	r4,gp,-24016
  8005f0:	080347c0 	call	80347c <_ZNSt8ios_base4InitC1Ev>
  8005f4:	e0bffe17 	ldw	r2,-8(fp)
  8005f8:	1004c03a 	cmpne	r2,r2,zero
  8005fc:	1000051e 	bne	r2,zero,800614 <_Z41__static_initialization_and_destruction_0ii+0x58>
  800600:	e0ffff17 	ldw	r3,-4(fp)
  800604:	00bfffd4 	movui	r2,65535
  800608:	1880021e 	bne	r3,r2,800614 <_Z41__static_initialization_and_destruction_0ii+0x58>
  80060c:	d1288c04 	addi	r4,gp,-24016
  800610:	0802dd00 	call	802dd0 <_ZNSt8ios_base4InitD1Ev>
  800614:	e037883a 	mov	sp,fp
  800618:	dfc00117 	ldw	ra,4(sp)
  80061c:	df000017 	ldw	fp,0(sp)
  800620:	dec00204 	addi	sp,sp,8
  800624:	f800283a 	ret

00800628 <_GLOBAL__D__ZN3FSMC2Ev>:
  800628:	defffe04 	addi	sp,sp,-8
  80062c:	dfc00115 	stw	ra,4(sp)
  800630:	df000015 	stw	fp,0(sp)
  800634:	d839883a 	mov	fp,sp
  800638:	0009883a 	mov	r4,zero
  80063c:	017fffd4 	movui	r5,65535
  800640:	08005bc0 	call	8005bc <_Z41__static_initialization_and_destruction_0ii>
  800644:	e037883a 	mov	sp,fp
  800648:	dfc00117 	ldw	ra,4(sp)
  80064c:	df000017 	ldw	fp,0(sp)
  800650:	dec00204 	addi	sp,sp,8
  800654:	f800283a 	ret

00800658 <_GLOBAL__I__ZN3FSMC2Ev>:
}

void FSM::_spi_write(void) {
	// TODO Auto-generated
}
  800658:	defffe04 	addi	sp,sp,-8
  80065c:	dfc00115 	stw	ra,4(sp)
  800660:	df000015 	stw	fp,0(sp)
  800664:	d839883a 	mov	fp,sp
  800668:	01000044 	movi	r4,1
  80066c:	017fffd4 	movui	r5,65535
  800670:	08005bc0 	call	8005bc <_Z41__static_initialization_and_destruction_0ii>
  800674:	e037883a 	mov	sp,fp
  800678:	dfc00117 	ldw	ra,4(sp)
  80067c:	df000017 	ldw	fp,0(sp)
  800680:	dec00204 	addi	sp,sp,8
  800684:	f800283a 	ret

00800688 <_ZN3FSMD0Ev>:

FSM::FSM() {
	_current_state = init;
}

FSM::~FSM() {
  800688:	defffd04 	addi	sp,sp,-12
  80068c:	dfc00215 	stw	ra,8(sp)
  800690:	df000115 	stw	fp,4(sp)
  800694:	df000104 	addi	fp,sp,4
  800698:	e13fff15 	stw	r4,-4(fp)
  80069c:	00c021b4 	movhi	r3,134
  8006a0:	18e2d904 	addi	r3,r3,-29852
  8006a4:	e0bfff17 	ldw	r2,-4(fp)
  8006a8:	10c00015 	stw	r3,0(r2)
	_unset();
  8006ac:	e13fff17 	ldw	r4,-4(fp)
  8006b0:	08002e40 	call	8002e4 <_ZN3FSM6_unsetEv>
}
  8006b4:	00800044 	movi	r2,1
  8006b8:	10803fcc 	andi	r2,r2,255
  8006bc:	1005003a 	cmpeq	r2,r2,zero
  8006c0:	1000021e 	bne	r2,zero,8006cc <_ZN3FSMD0Ev+0x44>
  8006c4:	e13fff17 	ldw	r4,-4(fp)
  8006c8:	0837aa00 	call	837aa0 <_ZdlPv>
  8006cc:	e037883a 	mov	sp,fp
  8006d0:	dfc00117 	ldw	ra,4(sp)
  8006d4:	df000017 	ldw	fp,0(sp)
  8006d8:	dec00204 	addi	sp,sp,8
  8006dc:	f800283a 	ret

008006e0 <_ZN3FSMD1Ev>:

FSM::FSM() {
	_current_state = init;
}

FSM::~FSM() {
  8006e0:	defffd04 	addi	sp,sp,-12
  8006e4:	dfc00215 	stw	ra,8(sp)
  8006e8:	df000115 	stw	fp,4(sp)
  8006ec:	df000104 	addi	fp,sp,4
  8006f0:	e13fff15 	stw	r4,-4(fp)
  8006f4:	00c021b4 	movhi	r3,134
  8006f8:	18e2d904 	addi	r3,r3,-29852
  8006fc:	e0bfff17 	ldw	r2,-4(fp)
  800700:	10c00015 	stw	r3,0(r2)
	_unset();
  800704:	e13fff17 	ldw	r4,-4(fp)
  800708:	08002e40 	call	8002e4 <_ZN3FSM6_unsetEv>
}
  80070c:	0005883a 	mov	r2,zero
  800710:	10803fcc 	andi	r2,r2,255
  800714:	1005003a 	cmpeq	r2,r2,zero
  800718:	1000021e 	bne	r2,zero,800724 <_ZN3FSMD1Ev+0x44>
  80071c:	e13fff17 	ldw	r4,-4(fp)
  800720:	0837aa00 	call	837aa0 <_ZdlPv>
  800724:	e037883a 	mov	sp,fp
  800728:	dfc00117 	ldw	ra,4(sp)
  80072c:	df000017 	ldw	fp,0(sp)
  800730:	dec00204 	addi	sp,sp,8
  800734:	f800283a 	ret

00800738 <_ZN3FSMD2Ev>:

FSM::FSM() {
	_current_state = init;
}

FSM::~FSM() {
  800738:	defffd04 	addi	sp,sp,-12
  80073c:	dfc00215 	stw	ra,8(sp)
  800740:	df000115 	stw	fp,4(sp)
  800744:	df000104 	addi	fp,sp,4
  800748:	e13fff15 	stw	r4,-4(fp)
  80074c:	00c021b4 	movhi	r3,134
  800750:	18e2d904 	addi	r3,r3,-29852
  800754:	e0bfff17 	ldw	r2,-4(fp)
  800758:	10c00015 	stw	r3,0(r2)
	_unset();
  80075c:	e13fff17 	ldw	r4,-4(fp)
  800760:	08002e40 	call	8002e4 <_ZN3FSM6_unsetEv>
}
  800764:	0005883a 	mov	r2,zero
  800768:	10803fcc 	andi	r2,r2,255
  80076c:	1005003a 	cmpeq	r2,r2,zero
  800770:	1000021e 	bne	r2,zero,80077c <_ZN3FSMD2Ev+0x44>
  800774:	e13fff17 	ldw	r4,-4(fp)
  800778:	0837aa00 	call	837aa0 <_ZdlPv>
  80077c:	e037883a 	mov	sp,fp
  800780:	dfc00117 	ldw	ra,4(sp)
  800784:	df000017 	ldw	fp,0(sp)
  800788:	dec00204 	addi	sp,sp,8
  80078c:	f800283a 	ret

00800790 <_ZN3FSM5_initEv>:
			_current_state = init;
			break;
	}
}

void FSM::_init(void) {
  800790:	deffbb04 	addi	sp,sp,-276
  800794:	dfc04415 	stw	ra,272(sp)
  800798:	df004315 	stw	fp,268(sp)
  80079c:	ddc04215 	stw	r23,264(sp)
  8007a0:	dd804115 	stw	r22,260(sp)
  8007a4:	dd404015 	stw	r21,256(sp)
  8007a8:	dd003f15 	stw	r20,252(sp)
  8007ac:	dcc03e15 	stw	r19,248(sp)
  8007b0:	dc803d15 	stw	r18,244(sp)
  8007b4:	dc403c15 	stw	r17,240(sp)
  8007b8:	dc003b15 	stw	r16,236(sp)
  8007bc:	df003b04 	addi	fp,sp,236
  8007c0:	e13fcb15 	stw	r4,-212(fp)
  8007c4:	00802134 	movhi	r2,132
  8007c8:	10a08504 	addi	r2,r2,-32236
  8007cc:	e0bfd215 	stw	r2,-184(fp)
  8007d0:	00802174 	movhi	r2,133
  8007d4:	109e6504 	addi	r2,r2,31124
  8007d8:	e0bfd315 	stw	r2,-180(fp)
  8007dc:	e0bfd404 	addi	r2,fp,-176
  8007e0:	e0ffc804 	addi	r3,fp,-224
  8007e4:	10c00015 	stw	r3,0(r2)
  8007e8:	00c02034 	movhi	r3,128
  8007ec:	18c34104 	addi	r3,r3,3332
  8007f0:	10c00115 	stw	r3,4(r2)
  8007f4:	16c00215 	stw	sp,8(r2)
  8007f8:	e13fcc04 	addi	r4,fp,-208
  8007fc:	08433d40 	call	8433d4 <_Unwind_SjLj_Register>

	this->_uart = new UART(UART_BASE, UART_IRQ, 64);
  800800:	00bfffc4 	movi	r2,-1
  800804:	e0bfcd15 	stw	r2,-204(fp)
  800808:	01000504 	movi	r4,20
  80080c:	0838bb40 	call	838bb4 <_Znwm>
  800810:	e0bffd15 	stw	r2,-12(fp)
  800814:	008002c4 	movi	r2,11
  800818:	e0bfcd15 	stw	r2,-204(fp)
  80081c:	e13ffd17 	ldw	r4,-12(fp)
  800820:	01404074 	movhi	r5,257
  800824:	29641004 	addi	r5,r5,-28608
  800828:	01800044 	movi	r6,1
  80082c:	01c01004 	movi	r7,64
  800830:	08024f40 	call	8024f4 <_ZN4UARTC1Emmj>
  800834:	e0bfcb17 	ldw	r2,-212(fp)
  800838:	e0fffd17 	ldw	r3,-12(fp)
  80083c:	10c00215 	stw	r3,8(r2)
	_uart->buffer_printf("Init UART ok\r\n");
  800840:	e0bfcb17 	ldw	r2,-212(fp)
  800844:	11000217 	ldw	r4,8(r2)
  800848:	00bfffc4 	movi	r2,-1
  80084c:	e0bfcd15 	stw	r2,-204(fp)
  800850:	014021b4 	movhi	r5,134
  800854:	2962ab04 	addi	r5,r5,-30036
  800858:	08022180 	call	802218 <_ZN4UART13buffer_printfEPKcz>

	this->_spi = new SPI(SPI_BASE);
  80085c:	01000204 	movi	r4,8
  800860:	0838bb40 	call	838bb4 <_Znwm>
  800864:	e0bffc15 	stw	r2,-16(fp)
  800868:	00800284 	movi	r2,10
  80086c:	e0bfcd15 	stw	r2,-204(fp)
  800870:	e13ffc17 	ldw	r4,-16(fp)
  800874:	01404074 	movhi	r5,257
  800878:	29641804 	addi	r5,r5,-28576
  80087c:	0801de00 	call	801de0 <_ZN3SPIC1Em>
  800880:	00000a06 	br	8008ac <_ZN3FSM5_initEv+0x11c>
  800884:	e0bffe17 	ldw	r2,-8(fp)
  800888:	e0bfe315 	stw	r2,-116(fp)
	}
}

void FSM::_init(void) {

	this->_uart = new UART(UART_BASE, UART_IRQ, 64);
  80088c:	e13ffd17 	ldw	r4,-12(fp)
  800890:	0837aa00 	call	837aa0 <_ZdlPv>
  800894:	e0ffe317 	ldw	r3,-116(fp)
  800898:	e0fffe15 	stw	r3,-8(fp)
  80089c:	00bfffc4 	movi	r2,-1
  8008a0:	e0bfcd15 	stw	r2,-204(fp)
  8008a4:	e13ffe17 	ldw	r4,-8(fp)
  8008a8:	08436a00 	call	8436a0 <_Unwind_SjLj_Resume>
	_uart->buffer_printf("Init UART ok\r\n");

	this->_spi = new SPI(SPI_BASE);
  8008ac:	e0bfcb17 	ldw	r2,-212(fp)
  8008b0:	e0fffc17 	ldw	r3,-16(fp)
  8008b4:	10c00315 	stw	r3,12(r2)
	_uart->buffer_printf("Init SPI ok\r\n");
  8008b8:	e0bfcb17 	ldw	r2,-212(fp)
  8008bc:	11000217 	ldw	r4,8(r2)
  8008c0:	00bfffc4 	movi	r2,-1
  8008c4:	e0bfcd15 	stw	r2,-204(fp)
  8008c8:	014021b4 	movhi	r5,134
  8008cc:	2962af04 	addi	r5,r5,-30020
  8008d0:	08022180 	call	802218 <_ZN4UART13buffer_printfEPKcz>

	_pio_input = new PIO(DATA_LVDS_IN_BASE, DATA_LVDS_IN_DATA_WIDTH, PIO::INPUT);
  8008d4:	01000504 	movi	r4,20
  8008d8:	0838bb40 	call	838bb4 <_Znwm>
  8008dc:	e0bffb15 	stw	r2,-20(fp)
  8008e0:	00800244 	movi	r2,9
  8008e4:	e0bfcd15 	stw	r2,-204(fp)
  8008e8:	e13ffb17 	ldw	r4,-20(fp)
  8008ec:	01404074 	movhi	r5,257
  8008f0:	29642404 	addi	r5,r5,-28528
  8008f4:	01800804 	movi	r6,32
  8008f8:	000f883a 	mov	r7,zero
  8008fc:	08011f00 	call	8011f0 <_ZN3PIOC1EmhNS_4ModeE>
  800900:	00000a06 	br	80092c <_ZN3FSM5_initEv+0x19c>
  800904:	e0bffe17 	ldw	r2,-8(fp)
  800908:	e0bfe215 	stw	r2,-120(fp)
void FSM::_init(void) {

	this->_uart = new UART(UART_BASE, UART_IRQ, 64);
	_uart->buffer_printf("Init UART ok\r\n");

	this->_spi = new SPI(SPI_BASE);
  80090c:	e13ffc17 	ldw	r4,-16(fp)
  800910:	0837aa00 	call	837aa0 <_ZdlPv>
  800914:	e0ffe217 	ldw	r3,-120(fp)
  800918:	e0fffe15 	stw	r3,-8(fp)
  80091c:	00bfffc4 	movi	r2,-1
  800920:	e0bfcd15 	stw	r2,-204(fp)
  800924:	e13ffe17 	ldw	r4,-8(fp)
  800928:	08436a00 	call	8436a0 <_Unwind_SjLj_Resume>
	_uart->buffer_printf("Init SPI ok\r\n");

	_pio_input = new PIO(DATA_LVDS_IN_BASE, DATA_LVDS_IN_DATA_WIDTH, PIO::INPUT);
  80092c:	e0bfcb17 	ldw	r2,-212(fp)
  800930:	e0fffb17 	ldw	r3,-20(fp)
  800934:	10c00815 	stw	r3,32(r2)
	_bus_lvds_ctr = new PIO_Bus(*_pio_input, 1, 10, 1);
  800938:	00bfffc4 	movi	r2,-1
  80093c:	e0bfcd15 	stw	r2,-204(fp)
  800940:	01000504 	movi	r4,20
  800944:	0838bb40 	call	838bb4 <_Znwm>
  800948:	e0bffa15 	stw	r2,-24(fp)
  80094c:	e0bfcb17 	ldw	r2,-212(fp)
  800950:	11400817 	ldw	r5,32(r2)
  800954:	00800044 	movi	r2,1
  800958:	d8800015 	stw	r2,0(sp)
  80095c:	00800204 	movi	r2,8
  800960:	e0bfcd15 	stw	r2,-204(fp)
  800964:	e13ffa17 	ldw	r4,-24(fp)
  800968:	01800044 	movi	r6,1
  80096c:	01c00284 	movi	r7,10
  800970:	08014740 	call	801474 <_ZN7PIO_BusC1ER3PIOhhh>
  800974:	00000a06 	br	8009a0 <_ZN3FSM5_initEv+0x210>
  800978:	e0bffe17 	ldw	r2,-8(fp)
  80097c:	e0bfe115 	stw	r2,-124(fp)
	_uart->buffer_printf("Init UART ok\r\n");

	this->_spi = new SPI(SPI_BASE);
	_uart->buffer_printf("Init SPI ok\r\n");

	_pio_input = new PIO(DATA_LVDS_IN_BASE, DATA_LVDS_IN_DATA_WIDTH, PIO::INPUT);
  800980:	e13ffb17 	ldw	r4,-20(fp)
  800984:	0837aa00 	call	837aa0 <_ZdlPv>
  800988:	e0ffe117 	ldw	r3,-124(fp)
  80098c:	e0fffe15 	stw	r3,-8(fp)
  800990:	00bfffc4 	movi	r2,-1
  800994:	e0bfcd15 	stw	r2,-204(fp)
  800998:	e13ffe17 	ldw	r4,-8(fp)
  80099c:	08436a00 	call	8436a0 <_Unwind_SjLj_Resume>
	_bus_lvds_ctr = new PIO_Bus(*_pio_input, 1, 10, 1);
  8009a0:	e0bfcb17 	ldw	r2,-212(fp)
  8009a4:	e0fffa17 	ldw	r3,-24(fp)
  8009a8:	10c00915 	stw	r3,36(r2)
	_bus_lvds_ch0 = new PIO_Bus(*_pio_input, 2, 10, 11);
  8009ac:	00bfffc4 	movi	r2,-1
  8009b0:	e0bfcd15 	stw	r2,-204(fp)
  8009b4:	01000504 	movi	r4,20
  8009b8:	0838bb40 	call	838bb4 <_Znwm>
  8009bc:	e0bff915 	stw	r2,-28(fp)
  8009c0:	e0bfcb17 	ldw	r2,-212(fp)
  8009c4:	11400817 	ldw	r5,32(r2)
  8009c8:	008002c4 	movi	r2,11
  8009cc:	d8800015 	stw	r2,0(sp)
  8009d0:	008001c4 	movi	r2,7
  8009d4:	e0bfcd15 	stw	r2,-204(fp)
  8009d8:	e13ff917 	ldw	r4,-28(fp)
  8009dc:	01800084 	movi	r6,2
  8009e0:	01c00284 	movi	r7,10
  8009e4:	08014740 	call	801474 <_ZN7PIO_BusC1ER3PIOhhh>
  8009e8:	00000a06 	br	800a14 <_ZN3FSM5_initEv+0x284>
  8009ec:	e0bffe17 	ldw	r2,-8(fp)
  8009f0:	e0bfe015 	stw	r2,-128(fp)

	this->_spi = new SPI(SPI_BASE);
	_uart->buffer_printf("Init SPI ok\r\n");

	_pio_input = new PIO(DATA_LVDS_IN_BASE, DATA_LVDS_IN_DATA_WIDTH, PIO::INPUT);
	_bus_lvds_ctr = new PIO_Bus(*_pio_input, 1, 10, 1);
  8009f4:	e13ffa17 	ldw	r4,-24(fp)
  8009f8:	0837aa00 	call	837aa0 <_ZdlPv>
  8009fc:	e0ffe017 	ldw	r3,-128(fp)
  800a00:	e0fffe15 	stw	r3,-8(fp)
  800a04:	00bfffc4 	movi	r2,-1
  800a08:	e0bfcd15 	stw	r2,-204(fp)
  800a0c:	e13ffe17 	ldw	r4,-8(fp)
  800a10:	08436a00 	call	8436a0 <_Unwind_SjLj_Resume>
	_bus_lvds_ch0 = new PIO_Bus(*_pio_input, 2, 10, 11);
  800a14:	e0bfcb17 	ldw	r2,-212(fp)
  800a18:	e0fff917 	ldw	r3,-28(fp)
  800a1c:	10c00a15 	stw	r3,40(r2)
	_bus_lvds_ch9 = new PIO_Bus(*_pio_input, 3, 10, 21);
  800a20:	00bfffc4 	movi	r2,-1
  800a24:	e0bfcd15 	stw	r2,-204(fp)
  800a28:	01000504 	movi	r4,20
  800a2c:	0838bb40 	call	838bb4 <_Znwm>
  800a30:	e0bff815 	stw	r2,-32(fp)
  800a34:	e0bfcb17 	ldw	r2,-212(fp)
  800a38:	11400817 	ldw	r5,32(r2)
  800a3c:	00800544 	movi	r2,21
  800a40:	d8800015 	stw	r2,0(sp)
  800a44:	00800184 	movi	r2,6
  800a48:	e0bfcd15 	stw	r2,-204(fp)
  800a4c:	e13ff817 	ldw	r4,-32(fp)
  800a50:	018000c4 	movi	r6,3
  800a54:	01c00284 	movi	r7,10
  800a58:	08014740 	call	801474 <_ZN7PIO_BusC1ER3PIOhhh>
  800a5c:	00000a06 	br	800a88 <_ZN3FSM5_initEv+0x2f8>
  800a60:	e0bffe17 	ldw	r2,-8(fp)
  800a64:	e0bfdf15 	stw	r2,-132(fp)
	this->_spi = new SPI(SPI_BASE);
	_uart->buffer_printf("Init SPI ok\r\n");

	_pio_input = new PIO(DATA_LVDS_IN_BASE, DATA_LVDS_IN_DATA_WIDTH, PIO::INPUT);
	_bus_lvds_ctr = new PIO_Bus(*_pio_input, 1, 10, 1);
	_bus_lvds_ch0 = new PIO_Bus(*_pio_input, 2, 10, 11);
  800a68:	e13ff917 	ldw	r4,-28(fp)
  800a6c:	0837aa00 	call	837aa0 <_ZdlPv>
  800a70:	e0ffdf17 	ldw	r3,-132(fp)
  800a74:	e0fffe15 	stw	r3,-8(fp)
  800a78:	00bfffc4 	movi	r2,-1
  800a7c:	e0bfcd15 	stw	r2,-204(fp)
  800a80:	e13ffe17 	ldw	r4,-8(fp)
  800a84:	08436a00 	call	8436a0 <_Unwind_SjLj_Resume>
	_bus_lvds_ch9 = new PIO_Bus(*_pio_input, 3, 10, 21);
  800a88:	e0bfcb17 	ldw	r2,-212(fp)
  800a8c:	e0fff817 	ldw	r3,-32(fp)
  800a90:	10c00b15 	stw	r3,44(r2)
	_lvds_clk_in= new PIO_Pin(*_pio_input, 1, 0x0001);
  800a94:	00bfffc4 	movi	r2,-1
  800a98:	e0bfcd15 	stw	r2,-204(fp)
  800a9c:	01000404 	movi	r4,16
  800aa0:	0838bb40 	call	838bb4 <_Znwm>
  800aa4:	e0bff715 	stw	r2,-36(fp)
  800aa8:	e0bfcb17 	ldw	r2,-212(fp)
  800aac:	11400817 	ldw	r5,32(r2)
  800ab0:	00800144 	movi	r2,5
  800ab4:	e0bfcd15 	stw	r2,-204(fp)
  800ab8:	e13ff717 	ldw	r4,-36(fp)
  800abc:	01800044 	movi	r6,1
  800ac0:	01c00044 	movi	r7,1
  800ac4:	0801af00 	call	801af0 <_ZN7PIO_PinC1ER3PIOhj>
  800ac8:	00000a06 	br	800af4 <_ZN3FSM5_initEv+0x364>
  800acc:	e0bffe17 	ldw	r2,-8(fp)
  800ad0:	e0bfde15 	stw	r2,-136(fp)
	_uart->buffer_printf("Init SPI ok\r\n");

	_pio_input = new PIO(DATA_LVDS_IN_BASE, DATA_LVDS_IN_DATA_WIDTH, PIO::INPUT);
	_bus_lvds_ctr = new PIO_Bus(*_pio_input, 1, 10, 1);
	_bus_lvds_ch0 = new PIO_Bus(*_pio_input, 2, 10, 11);
	_bus_lvds_ch9 = new PIO_Bus(*_pio_input, 3, 10, 21);
  800ad4:	e13ff817 	ldw	r4,-32(fp)
  800ad8:	0837aa00 	call	837aa0 <_ZdlPv>
  800adc:	e0ffde17 	ldw	r3,-136(fp)
  800ae0:	e0fffe15 	stw	r3,-8(fp)
  800ae4:	00bfffc4 	movi	r2,-1
  800ae8:	e0bfcd15 	stw	r2,-204(fp)
  800aec:	e13ffe17 	ldw	r4,-8(fp)
  800af0:	08436a00 	call	8436a0 <_Unwind_SjLj_Resume>
	_lvds_clk_in= new PIO_Pin(*_pio_input, 1, 0x0001);
  800af4:	e0bfcb17 	ldw	r2,-212(fp)
  800af8:	e0fff717 	ldw	r3,-36(fp)
  800afc:	10c00c15 	stw	r3,48(r2)
	_uart->buffer_printf("Init PIO input ok\r\n");
  800b00:	e0bfcb17 	ldw	r2,-212(fp)
  800b04:	11000217 	ldw	r4,8(r2)
  800b08:	00bfffc4 	movi	r2,-1
  800b0c:	e0bfcd15 	stw	r2,-204(fp)
  800b10:	014021b4 	movhi	r5,134
  800b14:	2962b304 	addi	r5,r5,-30004
  800b18:	08022180 	call	802218 <_ZN4UART13buffer_printfEPKcz>

	_pio_output = new PIO(CMV_TRANSMIT_DATA_BASE, CMV_TRANSMIT_DATA_DATA_WIDTH,
	    PIO::OUTPUT);
  800b1c:	01000504 	movi	r4,20
  800b20:	0838bb40 	call	838bb4 <_Znwm>
  800b24:	e0bff615 	stw	r2,-40(fp)
  800b28:	00800104 	movi	r2,4
  800b2c:	e0bfcd15 	stw	r2,-204(fp)
  800b30:	e13ff617 	ldw	r4,-40(fp)
  800b34:	01404074 	movhi	r5,257
  800b38:	29642004 	addi	r5,r5,-28544
  800b3c:	01800204 	movi	r6,8
  800b40:	01c00044 	movi	r7,1
  800b44:	08011f00 	call	8011f0 <_ZN3PIOC1EmhNS_4ModeE>
  800b48:	00000a06 	br	800b74 <_ZN3FSM5_initEv+0x3e4>
  800b4c:	e0bffe17 	ldw	r2,-8(fp)
  800b50:	e0bfdd15 	stw	r2,-140(fp)

	_pio_input = new PIO(DATA_LVDS_IN_BASE, DATA_LVDS_IN_DATA_WIDTH, PIO::INPUT);
	_bus_lvds_ctr = new PIO_Bus(*_pio_input, 1, 10, 1);
	_bus_lvds_ch0 = new PIO_Bus(*_pio_input, 2, 10, 11);
	_bus_lvds_ch9 = new PIO_Bus(*_pio_input, 3, 10, 21);
	_lvds_clk_in= new PIO_Pin(*_pio_input, 1, 0x0001);
  800b54:	e13ff717 	ldw	r4,-36(fp)
  800b58:	0837aa00 	call	837aa0 <_ZdlPv>
  800b5c:	e0ffdd17 	ldw	r3,-140(fp)
  800b60:	e0fffe15 	stw	r3,-8(fp)
  800b64:	00bfffc4 	movi	r2,-1
  800b68:	e0bfcd15 	stw	r2,-204(fp)
  800b6c:	e13ffe17 	ldw	r4,-8(fp)
  800b70:	08436a00 	call	8436a0 <_Unwind_SjLj_Resume>
	_uart->buffer_printf("Init PIO input ok\r\n");

	_pio_output = new PIO(CMV_TRANSMIT_DATA_BASE, CMV_TRANSMIT_DATA_DATA_WIDTH,
	    PIO::OUTPUT);
  800b74:	e0bfcb17 	ldw	r2,-212(fp)
  800b78:	e0fff617 	ldw	r3,-40(fp)
  800b7c:	10c00415 	stw	r3,16(r2)
	_res_n= new PIO_Pin(*_pio_output, 0, 0x01);
  800b80:	00bfffc4 	movi	r2,-1
  800b84:	e0bfcd15 	stw	r2,-204(fp)
  800b88:	01000404 	movi	r4,16
  800b8c:	0838bb40 	call	838bb4 <_Znwm>
  800b90:	e0bff515 	stw	r2,-44(fp)
  800b94:	e0bfcb17 	ldw	r2,-212(fp)
  800b98:	11400417 	ldw	r5,16(r2)
  800b9c:	008000c4 	movi	r2,3
  800ba0:	e0bfcd15 	stw	r2,-204(fp)
  800ba4:	e13ff517 	ldw	r4,-44(fp)
  800ba8:	000d883a 	mov	r6,zero
  800bac:	01c00044 	movi	r7,1
  800bb0:	0801af00 	call	801af0 <_ZN7PIO_PinC1ER3PIOhj>
  800bb4:	00000a06 	br	800be0 <_ZN3FSM5_initEv+0x450>
  800bb8:	e0bffe17 	ldw	r2,-8(fp)
  800bbc:	e0bfdc15 	stw	r2,-144(fp)
	_bus_lvds_ch9 = new PIO_Bus(*_pio_input, 3, 10, 21);
	_lvds_clk_in= new PIO_Pin(*_pio_input, 1, 0x0001);
	_uart->buffer_printf("Init PIO input ok\r\n");

	_pio_output = new PIO(CMV_TRANSMIT_DATA_BASE, CMV_TRANSMIT_DATA_DATA_WIDTH,
	    PIO::OUTPUT);
  800bc0:	e13ff617 	ldw	r4,-40(fp)
  800bc4:	0837aa00 	call	837aa0 <_ZdlPv>
  800bc8:	e0ffdc17 	ldw	r3,-144(fp)
  800bcc:	e0fffe15 	stw	r3,-8(fp)
  800bd0:	00bfffc4 	movi	r2,-1
  800bd4:	e0bfcd15 	stw	r2,-204(fp)
  800bd8:	e13ffe17 	ldw	r4,-8(fp)
  800bdc:	08436a00 	call	8436a0 <_Unwind_SjLj_Resume>
	_res_n= new PIO_Pin(*_pio_output, 0, 0x01);
  800be0:	e0bfcb17 	ldw	r2,-212(fp)
  800be4:	e0fff517 	ldw	r3,-44(fp)
  800be8:	10c00515 	stw	r3,20(r2)
	_frame_req= new PIO_Pin(*_pio_output, 1, 0x02);
  800bec:	00bfffc4 	movi	r2,-1
  800bf0:	e0bfcd15 	stw	r2,-204(fp)
  800bf4:	01000404 	movi	r4,16
  800bf8:	0838bb40 	call	838bb4 <_Znwm>
  800bfc:	e0bff415 	stw	r2,-48(fp)
  800c00:	e0bfcb17 	ldw	r2,-212(fp)
  800c04:	11400417 	ldw	r5,16(r2)
  800c08:	00800084 	movi	r2,2
  800c0c:	e0bfcd15 	stw	r2,-204(fp)
  800c10:	e13ff417 	ldw	r4,-48(fp)
  800c14:	01800044 	movi	r6,1
  800c18:	01c00084 	movi	r7,2
  800c1c:	0801af00 	call	801af0 <_ZN7PIO_PinC1ER3PIOhj>
  800c20:	00000a06 	br	800c4c <_ZN3FSM5_initEv+0x4bc>
  800c24:	e0bffe17 	ldw	r2,-8(fp)
  800c28:	e0bfdb15 	stw	r2,-148(fp)
	_lvds_clk_in= new PIO_Pin(*_pio_input, 1, 0x0001);
	_uart->buffer_printf("Init PIO input ok\r\n");

	_pio_output = new PIO(CMV_TRANSMIT_DATA_BASE, CMV_TRANSMIT_DATA_DATA_WIDTH,
	    PIO::OUTPUT);
	_res_n= new PIO_Pin(*_pio_output, 0, 0x01);
  800c2c:	e13ff517 	ldw	r4,-44(fp)
  800c30:	0837aa00 	call	837aa0 <_ZdlPv>
  800c34:	e0ffdb17 	ldw	r3,-148(fp)
  800c38:	e0fffe15 	stw	r3,-8(fp)
  800c3c:	00bfffc4 	movi	r2,-1
  800c40:	e0bfcd15 	stw	r2,-204(fp)
  800c44:	e13ffe17 	ldw	r4,-8(fp)
  800c48:	08436a00 	call	8436a0 <_Unwind_SjLj_Resume>
	_frame_req= new PIO_Pin(*_pio_output, 1, 0x02);
  800c4c:	e0bfcb17 	ldw	r2,-212(fp)
  800c50:	e0fff417 	ldw	r3,-48(fp)
  800c54:	10c00615 	stw	r3,24(r2)
	_bus_debug= new PIO_Bus(*_pio_output, 1, 6, 2);
  800c58:	00bfffc4 	movi	r2,-1
  800c5c:	e0bfcd15 	stw	r2,-204(fp)
  800c60:	01000504 	movi	r4,20
  800c64:	0838bb40 	call	838bb4 <_Znwm>
  800c68:	e0bff315 	stw	r2,-52(fp)
  800c6c:	e0bfcb17 	ldw	r2,-212(fp)
  800c70:	11400417 	ldw	r5,16(r2)
  800c74:	00800084 	movi	r2,2
  800c78:	d8800015 	stw	r2,0(sp)
  800c7c:	00800044 	movi	r2,1
  800c80:	e0bfcd15 	stw	r2,-204(fp)
  800c84:	e13ff317 	ldw	r4,-52(fp)
  800c88:	01800044 	movi	r6,1
  800c8c:	01c00184 	movi	r7,6
  800c90:	08014740 	call	801474 <_ZN7PIO_BusC1ER3PIOhhh>
  800c94:	00000a06 	br	800cc0 <_ZN3FSM5_initEv+0x530>
  800c98:	e0bffe17 	ldw	r2,-8(fp)
  800c9c:	e0bfda15 	stw	r2,-152(fp)
	_uart->buffer_printf("Init PIO input ok\r\n");

	_pio_output = new PIO(CMV_TRANSMIT_DATA_BASE, CMV_TRANSMIT_DATA_DATA_WIDTH,
	    PIO::OUTPUT);
	_res_n= new PIO_Pin(*_pio_output, 0, 0x01);
	_frame_req= new PIO_Pin(*_pio_output, 1, 0x02);
  800ca0:	e13ff417 	ldw	r4,-48(fp)
  800ca4:	0837aa00 	call	837aa0 <_ZdlPv>
  800ca8:	e0ffda17 	ldw	r3,-152(fp)
  800cac:	e0fffe15 	stw	r3,-8(fp)
  800cb0:	00bfffc4 	movi	r2,-1
  800cb4:	e0bfcd15 	stw	r2,-204(fp)
  800cb8:	e13ffe17 	ldw	r4,-8(fp)
  800cbc:	08436a00 	call	8436a0 <_Unwind_SjLj_Resume>
	_bus_debug= new PIO_Bus(*_pio_output, 1, 6, 2);
  800cc0:	e0bfcb17 	ldw	r2,-212(fp)
  800cc4:	e0fff317 	ldw	r3,-52(fp)
  800cc8:	10c00715 	stw	r3,28(r2)

	_uart->buffer_printf("Init PIO output ok\r\n");
  800ccc:	e0bfcb17 	ldw	r2,-212(fp)
  800cd0:	11000217 	ldw	r4,8(r2)
  800cd4:	00bfffc4 	movi	r2,-1
  800cd8:	e0bfcd15 	stw	r2,-204(fp)
  800cdc:	014021b4 	movhi	r5,134
  800ce0:	2962b804 	addi	r5,r5,-29984
  800ce4:	08022180 	call	802218 <_ZN4UART13buffer_printfEPKcz>
	_frame_req->off();


	_uart->buffer_printf("set RES N = 1\r\n");*/

	_res_n->on();
  800ce8:	e0bfcb17 	ldw	r2,-212(fp)
  800cec:	11000517 	ldw	r4,20(r2)
  800cf0:	0801d440 	call	801d44 <_ZN7PIO_Pin2onEv>
	_frame_req->off();
  800cf4:	e0bfcb17 	ldw	r2,-212(fp)
  800cf8:	11000617 	ldw	r4,24(r2)
  800cfc:	0801ce40 	call	801ce4 <_ZN7PIO_Pin3offEv>
  800d00:	00002d06 	br	800db8 <_ZN3FSM5_initEv+0x628>
  800d04:	e7003804 	addi	fp,fp,224
  800d08:	e0bfcd17 	ldw	r2,-204(fp)
  800d0c:	e0bfff15 	stw	r2,-4(fp)
  800d10:	e0ffce17 	ldw	r3,-200(fp)
  800d14:	e0fffe15 	stw	r3,-8(fp)
  800d18:	e0ffff17 	ldw	r3,-4(fp)
  800d1c:	18800060 	cmpeqi	r2,r3,1
  800d20:	103fdd1e 	bne	r2,zero,800c98 <_ZN3FSM5_initEv+0x508>
  800d24:	e0ffff17 	ldw	r3,-4(fp)
  800d28:	188000a0 	cmpeqi	r2,r3,2
  800d2c:	103fbd1e 	bne	r2,zero,800c24 <_ZN3FSM5_initEv+0x494>
  800d30:	e0ffff17 	ldw	r3,-4(fp)
  800d34:	188000e0 	cmpeqi	r2,r3,3
  800d38:	103f9f1e 	bne	r2,zero,800bb8 <_ZN3FSM5_initEv+0x428>
  800d3c:	e0ffff17 	ldw	r3,-4(fp)
  800d40:	18800120 	cmpeqi	r2,r3,4
  800d44:	103f811e 	bne	r2,zero,800b4c <_ZN3FSM5_initEv+0x3bc>
  800d48:	e0ffff17 	ldw	r3,-4(fp)
  800d4c:	18800160 	cmpeqi	r2,r3,5
  800d50:	103f5e1e 	bne	r2,zero,800acc <_ZN3FSM5_initEv+0x33c>
  800d54:	e0ffff17 	ldw	r3,-4(fp)
  800d58:	188001a0 	cmpeqi	r2,r3,6
  800d5c:	103f401e 	bne	r2,zero,800a60 <_ZN3FSM5_initEv+0x2d0>
  800d60:	e0ffff17 	ldw	r3,-4(fp)
  800d64:	188001e0 	cmpeqi	r2,r3,7
  800d68:	103f201e 	bne	r2,zero,8009ec <_ZN3FSM5_initEv+0x25c>
  800d6c:	e0ffff17 	ldw	r3,-4(fp)
  800d70:	18800220 	cmpeqi	r2,r3,8
  800d74:	103f001e 	bne	r2,zero,800978 <_ZN3FSM5_initEv+0x1e8>
  800d78:	e0ffff17 	ldw	r3,-4(fp)
  800d7c:	18800260 	cmpeqi	r2,r3,9
  800d80:	103ee01e 	bne	r2,zero,800904 <_ZN3FSM5_initEv+0x174>
  800d84:	e0ffff17 	ldw	r3,-4(fp)
  800d88:	188002a0 	cmpeqi	r2,r3,10
  800d8c:	103ebd1e 	bne	r2,zero,800884 <_ZN3FSM5_initEv+0xf4>
  800d90:	e0bffe17 	ldw	r2,-8(fp)
  800d94:	e0bfd915 	stw	r2,-156(fp)

	_pio_output = new PIO(CMV_TRANSMIT_DATA_BASE, CMV_TRANSMIT_DATA_DATA_WIDTH,
	    PIO::OUTPUT);
	_res_n= new PIO_Pin(*_pio_output, 0, 0x01);
	_frame_req= new PIO_Pin(*_pio_output, 1, 0x02);
	_bus_debug= new PIO_Bus(*_pio_output, 1, 6, 2);
  800d98:	e13ff317 	ldw	r4,-52(fp)
  800d9c:	0837aa00 	call	837aa0 <_ZdlPv>
  800da0:	e0ffd917 	ldw	r3,-156(fp)
  800da4:	e0fffe15 	stw	r3,-8(fp)
  800da8:	00bfffc4 	movi	r2,-1
  800dac:	e0bfcd15 	stw	r2,-204(fp)
  800db0:	e13ffe17 	ldw	r4,-8(fp)
  800db4:	08436a00 	call	8436a0 <_Unwind_SjLj_Resume>
	_res_n->on();
	_frame_req->off();

	while(1)
	{
		_uart->buffer_printf("change ff\r\n");
  800db8:	e0bfcb17 	ldw	r2,-212(fp)
  800dbc:	11000217 	ldw	r4,8(r2)
  800dc0:	00bfffc4 	movi	r2,-1
  800dc4:	e0bfcd15 	stw	r2,-204(fp)
  800dc8:	014021b4 	movhi	r5,134
  800dcc:	2962be04 	addi	r5,r5,-29960
  800dd0:	08022180 	call	802218 <_ZN4UART13buffer_printfEPKcz>
		_spi->writeCMVRegister(78, 0xff);
  800dd4:	e0bfcb17 	ldw	r2,-212(fp)
  800dd8:	11000317 	ldw	r4,12(r2)
  800ddc:	01401384 	movi	r5,78
  800de0:	01803fc4 	movi	r6,255
  800de4:	0801e8c0 	call	801e8c <_ZN3SPI16writeCMVRegisterEhh>
		for(int i=0; i<10;i++)
  800de8:	e03fca15 	stw	zero,-216(fp)
  800dec:	00002a06 	br	800e98 <_ZN3FSM5_initEv+0x708>
		{
			_uart->buffer_printf(
	    "PIO_input=%08x | CLK=%01d | CTR=%03x | CH0=%03x | CH9=%03x \r\n",
	    _pio_input->getValue(), _lvds_clk_in->getValue(),  _bus_lvds_ctr->getValue(),
	    _bus_lvds_ch0->getValue(), _bus_lvds_ch9->getValue());
  800df0:	e0bfcb17 	ldw	r2,-212(fp)
  800df4:	10800217 	ldw	r2,8(r2)
  800df8:	e0bff215 	stw	r2,-56(fp)
  800dfc:	e0bfcb17 	ldw	r2,-212(fp)
  800e00:	11000817 	ldw	r4,32(r2)
  800e04:	00bfffc4 	movi	r2,-1
  800e08:	e0bfcd15 	stw	r2,-204(fp)
  800e0c:	08011380 	call	801138 <_ZN3PIO8getValueEv>
  800e10:	e0bff115 	stw	r2,-60(fp)
  800e14:	e0bfcb17 	ldw	r2,-212(fp)
  800e18:	11000c17 	ldw	r4,48(r2)
  800e1c:	0801c400 	call	801c40 <_ZN7PIO_Pin8getValueEv>
  800e20:	10803fcc 	andi	r2,r2,255
  800e24:	e0bff015 	stw	r2,-64(fp)
  800e28:	e0bfcb17 	ldw	r2,-212(fp)
  800e2c:	11000917 	ldw	r4,36(r2)
  800e30:	08015000 	call	801500 <_ZN7PIO_Bus8getValueEv>
  800e34:	e0bfef15 	stw	r2,-68(fp)
  800e38:	e0bfcb17 	ldw	r2,-212(fp)
  800e3c:	11000a17 	ldw	r4,40(r2)
  800e40:	08015000 	call	801500 <_ZN7PIO_Bus8getValueEv>
  800e44:	e0bfee15 	stw	r2,-72(fp)
  800e48:	e0bfcb17 	ldw	r2,-212(fp)
  800e4c:	11000b17 	ldw	r4,44(r2)
  800e50:	08015000 	call	801500 <_ZN7PIO_Bus8getValueEv>
  800e54:	e0ffef17 	ldw	r3,-68(fp)
  800e58:	d8c00015 	stw	r3,0(sp)
  800e5c:	e0ffee17 	ldw	r3,-72(fp)
  800e60:	d8c00115 	stw	r3,4(sp)
  800e64:	d8800215 	stw	r2,8(sp)
  800e68:	e13ff217 	ldw	r4,-56(fp)
  800e6c:	014021b4 	movhi	r5,134
  800e70:	2962c104 	addi	r5,r5,-29948
  800e74:	e1bff117 	ldw	r6,-60(fp)
  800e78:	e1fff017 	ldw	r7,-64(fp)
  800e7c:	08022180 	call	802218 <_ZN4UART13buffer_printfEPKcz>
			usleep(500000);
  800e80:	01000234 	movhi	r4,8
  800e84:	21284804 	addi	r4,r4,-24288
  800e88:	0854f940 	call	854f94 <usleep>

	while(1)
	{
		_uart->buffer_printf("change ff\r\n");
		_spi->writeCMVRegister(78, 0xff);
		for(int i=0; i<10;i++)
  800e8c:	e0bfca17 	ldw	r2,-216(fp)
  800e90:	10800044 	addi	r2,r2,1
  800e94:	e0bfca15 	stw	r2,-216(fp)
  800e98:	e0bfca17 	ldw	r2,-216(fp)
  800e9c:	10800290 	cmplti	r2,r2,10
  800ea0:	103fd31e 	bne	r2,zero,800df0 <_ZN3FSM5_initEv+0x660>
	    _pio_input->getValue(), _lvds_clk_in->getValue(),  _bus_lvds_ctr->getValue(),
	    _bus_lvds_ch0->getValue(), _bus_lvds_ch9->getValue());
			usleep(500000);
		}

		_uart->buffer_printf("change 00\r\n");
  800ea4:	e0bfcb17 	ldw	r2,-212(fp)
  800ea8:	11000217 	ldw	r4,8(r2)
  800eac:	00bfffc4 	movi	r2,-1
  800eb0:	e0bfcd15 	stw	r2,-204(fp)
  800eb4:	014021b4 	movhi	r5,134
  800eb8:	2962d104 	addi	r5,r5,-29884
  800ebc:	08022180 	call	802218 <_ZN4UART13buffer_printfEPKcz>
		_spi->writeCMVRegister(78, 0x00);
  800ec0:	e0bfcb17 	ldw	r2,-212(fp)
  800ec4:	11000317 	ldw	r4,12(r2)
  800ec8:	01401384 	movi	r5,78
  800ecc:	000d883a 	mov	r6,zero
  800ed0:	0801e8c0 	call	801e8c <_ZN3SPI16writeCMVRegisterEhh>
		for(int i=0; i<10;i++)
  800ed4:	e03fc915 	stw	zero,-220(fp)
  800ed8:	00002a06 	br	800f84 <_ZN3FSM5_initEv+0x7f4>
		{
			_uart->buffer_printf(
			    "PIO_input=%08x | CLK=%01d | CTR=%03x | CH0=%03x | CH9=%03x \r\n",
			    _pio_input->getValue(), _lvds_clk_in->getValue(),  _bus_lvds_ctr->getValue(),
			    _bus_lvds_ch0->getValue(), _bus_lvds_ch9->getValue());
  800edc:	e0bfcb17 	ldw	r2,-212(fp)
  800ee0:	10800217 	ldw	r2,8(r2)
  800ee4:	e0bfed15 	stw	r2,-76(fp)
  800ee8:	e0bfcb17 	ldw	r2,-212(fp)
  800eec:	11000817 	ldw	r4,32(r2)
  800ef0:	00bfffc4 	movi	r2,-1
  800ef4:	e0bfcd15 	stw	r2,-204(fp)
  800ef8:	08011380 	call	801138 <_ZN3PIO8getValueEv>
  800efc:	e0bfec15 	stw	r2,-80(fp)
  800f00:	e0bfcb17 	ldw	r2,-212(fp)
  800f04:	11000c17 	ldw	r4,48(r2)
  800f08:	0801c400 	call	801c40 <_ZN7PIO_Pin8getValueEv>
  800f0c:	10803fcc 	andi	r2,r2,255
  800f10:	e0bfeb15 	stw	r2,-84(fp)
  800f14:	e0bfcb17 	ldw	r2,-212(fp)
  800f18:	11000917 	ldw	r4,36(r2)
  800f1c:	08015000 	call	801500 <_ZN7PIO_Bus8getValueEv>
  800f20:	e0bfea15 	stw	r2,-88(fp)
  800f24:	e0bfcb17 	ldw	r2,-212(fp)
  800f28:	11000a17 	ldw	r4,40(r2)
  800f2c:	08015000 	call	801500 <_ZN7PIO_Bus8getValueEv>
  800f30:	e0bfe915 	stw	r2,-92(fp)
  800f34:	e0bfcb17 	ldw	r2,-212(fp)
  800f38:	11000b17 	ldw	r4,44(r2)
  800f3c:	08015000 	call	801500 <_ZN7PIO_Bus8getValueEv>
  800f40:	e0ffea17 	ldw	r3,-88(fp)
  800f44:	d8c00015 	stw	r3,0(sp)
  800f48:	e0ffe917 	ldw	r3,-92(fp)
  800f4c:	d8c00115 	stw	r3,4(sp)
  800f50:	d8800215 	stw	r2,8(sp)
  800f54:	e13fed17 	ldw	r4,-76(fp)
  800f58:	014021b4 	movhi	r5,134
  800f5c:	2962c104 	addi	r5,r5,-29948
  800f60:	e1bfec17 	ldw	r6,-80(fp)
  800f64:	e1ffeb17 	ldw	r7,-84(fp)
  800f68:	08022180 	call	802218 <_ZN4UART13buffer_printfEPKcz>
			usleep(500000);
  800f6c:	01000234 	movhi	r4,8
  800f70:	21284804 	addi	r4,r4,-24288
  800f74:	0854f940 	call	854f94 <usleep>
			usleep(500000);
		}

		_uart->buffer_printf("change 00\r\n");
		_spi->writeCMVRegister(78, 0x00);
		for(int i=0; i<10;i++)
  800f78:	e0bfc917 	ldw	r2,-220(fp)
  800f7c:	10800044 	addi	r2,r2,1
  800f80:	e0bfc915 	stw	r2,-220(fp)
  800f84:	e0bfc917 	ldw	r2,-220(fp)
  800f88:	10800290 	cmplti	r2,r2,10
  800f8c:	103fd31e 	bne	r2,zero,800edc <_ZN3FSM5_initEv+0x74c>
			    _pio_input->getValue(), _lvds_clk_in->getValue(),  _bus_lvds_ctr->getValue(),
			    _bus_lvds_ch0->getValue(), _bus_lvds_ch9->getValue());
			usleep(500000);
		}

		_uart->buffer_printf("change 07\r\n");
  800f90:	e0bfcb17 	ldw	r2,-212(fp)
  800f94:	11000217 	ldw	r4,8(r2)
  800f98:	00bfffc4 	movi	r2,-1
  800f9c:	e0bfcd15 	stw	r2,-204(fp)
  800fa0:	014021b4 	movhi	r5,134
  800fa4:	2962d404 	addi	r5,r5,-29872
  800fa8:	08022180 	call	802218 <_ZN4UART13buffer_printfEPKcz>
		_spi->writeCMVRegister(78, 0x07);
  800fac:	e0bfcb17 	ldw	r2,-212(fp)
  800fb0:	11000317 	ldw	r4,12(r2)
  800fb4:	01401384 	movi	r5,78
  800fb8:	018001c4 	movi	r6,7
  800fbc:	0801e8c0 	call	801e8c <_ZN3SPI16writeCMVRegisterEhh>
		for(int i=0; i<10;i++)
  800fc0:	e03fc815 	stw	zero,-224(fp)
  800fc4:	00002a06 	br	801070 <_ZN3FSM5_initEv+0x8e0>
		{
			_uart->buffer_printf(
			    "PIO_input=%08x | CLK=%01d | CTR=%03x | CH0=%03x | CH9=%03x \r\n",
			    _pio_input->getValue(), _lvds_clk_in->getValue(),  _bus_lvds_ctr->getValue(),
			    _bus_lvds_ch0->getValue(), _bus_lvds_ch9->getValue());
  800fc8:	e0bfcb17 	ldw	r2,-212(fp)
  800fcc:	10800217 	ldw	r2,8(r2)
  800fd0:	e0bfe815 	stw	r2,-96(fp)
  800fd4:	e0bfcb17 	ldw	r2,-212(fp)
  800fd8:	11000817 	ldw	r4,32(r2)
  800fdc:	00bfffc4 	movi	r2,-1
  800fe0:	e0bfcd15 	stw	r2,-204(fp)
  800fe4:	08011380 	call	801138 <_ZN3PIO8getValueEv>
  800fe8:	e0bfe715 	stw	r2,-100(fp)
  800fec:	e0bfcb17 	ldw	r2,-212(fp)
  800ff0:	11000c17 	ldw	r4,48(r2)
  800ff4:	0801c400 	call	801c40 <_ZN7PIO_Pin8getValueEv>
  800ff8:	10803fcc 	andi	r2,r2,255
  800ffc:	e0bfe615 	stw	r2,-104(fp)
  801000:	e0bfcb17 	ldw	r2,-212(fp)
  801004:	11000917 	ldw	r4,36(r2)
  801008:	08015000 	call	801500 <_ZN7PIO_Bus8getValueEv>
  80100c:	e0bfe515 	stw	r2,-108(fp)
  801010:	e0bfcb17 	ldw	r2,-212(fp)
  801014:	11000a17 	ldw	r4,40(r2)
  801018:	08015000 	call	801500 <_ZN7PIO_Bus8getValueEv>
  80101c:	e0bfe415 	stw	r2,-112(fp)
  801020:	e0bfcb17 	ldw	r2,-212(fp)
  801024:	11000b17 	ldw	r4,44(r2)
  801028:	08015000 	call	801500 <_ZN7PIO_Bus8getValueEv>
  80102c:	e0ffe517 	ldw	r3,-108(fp)
  801030:	d8c00015 	stw	r3,0(sp)
  801034:	e0ffe417 	ldw	r3,-112(fp)
  801038:	d8c00115 	stw	r3,4(sp)
  80103c:	d8800215 	stw	r2,8(sp)
  801040:	e13fe817 	ldw	r4,-96(fp)
  801044:	014021b4 	movhi	r5,134
  801048:	2962c104 	addi	r5,r5,-29948
  80104c:	e1bfe717 	ldw	r6,-100(fp)
  801050:	e1ffe617 	ldw	r7,-104(fp)
  801054:	08022180 	call	802218 <_ZN4UART13buffer_printfEPKcz>
			usleep(500000);
  801058:	01000234 	movhi	r4,8
  80105c:	21284804 	addi	r4,r4,-24288
  801060:	0854f940 	call	854f94 <usleep>
			usleep(500000);
		}

		_uart->buffer_printf("change 07\r\n");
		_spi->writeCMVRegister(78, 0x07);
		for(int i=0; i<10;i++)
  801064:	e0bfc817 	ldw	r2,-224(fp)
  801068:	10800044 	addi	r2,r2,1
  80106c:	e0bfc815 	stw	r2,-224(fp)
  801070:	e0bfc817 	ldw	r2,-224(fp)
  801074:	10800290 	cmplti	r2,r2,10
  801078:	103fd31e 	bne	r2,zero,800fc8 <_ZN3FSM5_initEv+0x838>
	_uart->buffer_printf("set RES N = 1\r\n");*/

	_res_n->on();
	_frame_req->off();

	while(1)
  80107c:	003f4e06 	br	800db8 <_ZN3FSM5_initEv+0x628>

00801080 <_ZN3FSM6actionEv>:

FSM::~FSM() {
	_unset();
}

void FSM::action(void) {
  801080:	defffc04 	addi	sp,sp,-16
  801084:	dfc00315 	stw	ra,12(sp)
  801088:	df000215 	stw	fp,8(sp)
  80108c:	df000204 	addi	fp,sp,8
  801090:	e13ffe15 	stw	r4,-8(fp)

	switch (_current_state) {
  801094:	e0bffe17 	ldw	r2,-8(fp)
  801098:	10800117 	ldw	r2,4(r2)
  80109c:	e0bfff15 	stw	r2,-4(fp)
  8010a0:	e0ffff17 	ldw	r3,-4(fp)
  8010a4:	18800228 	cmpgeui	r2,r3,8
  8010a8:	1000161e 	bne	r2,zero,801104 <_ZN3FSM6actionEv+0x84>
  8010ac:	e13fff17 	ldw	r4,-4(fp)
  8010b0:	e13fff17 	ldw	r4,-4(fp)
  8010b4:	2105883a 	add	r2,r4,r4
  8010b8:	1087883a 	add	r3,r2,r2
  8010bc:	00802034 	movhi	r2,128
  8010c0:	10843404 	addi	r2,r2,4304
  8010c4:	1885883a 	add	r2,r3,r2
  8010c8:	10800017 	ldw	r2,0(r2)
  8010cc:	1000683a 	jmp	r2
  8010d0:	008010f0 	cmpltui	r2,zero,67
  8010d4:	008010fc 	xorhi	r2,zero,67
  8010d8:	00801104 	movi	r2,68
  8010dc:	00801104 	movi	r2,68
  8010e0:	00801104 	movi	r2,68
  8010e4:	00801104 	movi	r2,68
  8010e8:	00801104 	movi	r2,68
  8010ec:	00801104 	movi	r2,68

		case init:
			_init();
  8010f0:	e13ffe17 	ldw	r4,-8(fp)
  8010f4:	08007900 	call	800790 <_ZN3FSM5_initEv>
			break;
  8010f8:	00000206 	br	801104 <_ZN3FSM6actionEv+0x84>
			break;
		case spi_read_all:

			break;
		case unset:
			_unset();
  8010fc:	e13ffe17 	ldw	r4,-8(fp)
  801100:	08002e40 	call	8002e4 <_ZN3FSM6_unsetEv>
			break;
	}
}
  801104:	e037883a 	mov	sp,fp
  801108:	dfc00117 	ldw	ra,4(sp)
  80110c:	df000017 	ldw	fp,0(sp)
  801110:	dec00204 	addi	sp,sp,8
  801114:	f800283a 	ret

00801118 <_ZN3PIO9_init_irqEv>:
}

PIO::~PIO() {
}

void PIO::_init_irq( void ) { }
  801118:	defffe04 	addi	sp,sp,-8
  80111c:	df000115 	stw	fp,4(sp)
  801120:	df000104 	addi	fp,sp,4
  801124:	e13fff15 	stw	r4,-4(fp)
  801128:	e037883a 	mov	sp,fp
  80112c:	df000017 	ldw	fp,0(sp)
  801130:	dec00104 	addi	sp,sp,4
  801134:	f800283a 	ret

00801138 <_ZN3PIO8getValueEv>:





unsigned int PIO::getValue() {
  801138:	defffe04 	addi	sp,sp,-8
  80113c:	df000115 	stw	fp,4(sp)
  801140:	df000104 	addi	fp,sp,4
  801144:	e13fff15 	stw	r4,-4(fp)
	return IORD_ALTERA_AVALON_PIO_DATA(_base_address);
  801148:	e0bfff17 	ldw	r2,-4(fp)
  80114c:	10800217 	ldw	r2,8(r2)
  801150:	10800037 	ldwio	r2,0(r2)
}
  801154:	e037883a 	mov	sp,fp
  801158:	df000017 	ldw	fp,0(sp)
  80115c:	dec00104 	addi	sp,sp,4
  801160:	f800283a 	ret

00801164 <_ZN3PIO8setValueEj>:

void PIO::setValue(unsigned int val) {
  801164:	defffc04 	addi	sp,sp,-16
  801168:	dfc00315 	stw	ra,12(sp)
  80116c:	df000215 	stw	fp,8(sp)
  801170:	df000204 	addi	fp,sp,8
  801174:	e13ffe15 	stw	r4,-8(fp)
  801178:	e17fff15 	stw	r5,-4(fp)
	if (_mode == PIO::INPUT) throw("Change value of PIO in input mode");
  80117c:	e0bffe17 	ldw	r2,-8(fp)
  801180:	10800317 	ldw	r2,12(r2)
  801184:	1004c03a 	cmpne	r2,r2,zero
  801188:	10000b1e 	bne	r2,zero,8011b8 <_ZN3PIO8setValueEj+0x54>
  80118c:	01000104 	movi	r4,4
  801190:	0838e800 	call	838e80 <__cxa_allocate_exception>
  801194:	1009883a 	mov	r4,r2
  801198:	2007883a 	mov	r3,r4
  80119c:	008021b4 	movhi	r2,134
  8011a0:	10a2db04 	addi	r2,r2,-29844
  8011a4:	18800015 	stw	r2,0(r3)
  8011a8:	014021b4 	movhi	r5,134
  8011ac:	29683f04 	addi	r5,r5,-24324
  8011b0:	000d883a 	mov	r6,zero
  8011b4:	0836ef80 	call	836ef8 <__cxa_throw>
	IOWR_ALTERA_AVALON_PIO_DATA(_base_address, val);
  8011b8:	e0bffe17 	ldw	r2,-8(fp)
  8011bc:	10800217 	ldw	r2,8(r2)
  8011c0:	e0ffff17 	ldw	r3,-4(fp)
  8011c4:	10c00035 	stwio	r3,0(r2)
	_value= this->getValue();
  8011c8:	e13ffe17 	ldw	r4,-8(fp)
  8011cc:	08011380 	call	801138 <_ZN3PIO8getValueEv>
  8011d0:	1007883a 	mov	r3,r2
  8011d4:	e0bffe17 	ldw	r2,-8(fp)
  8011d8:	10c00415 	stw	r3,16(r2)
}
  8011dc:	e037883a 	mov	sp,fp
  8011e0:	dfc00117 	ldw	ra,4(sp)
  8011e4:	df000017 	ldw	fp,0(sp)
  8011e8:	dec00204 	addi	sp,sp,8
  8011ec:	f800283a 	ret

008011f0 <_ZN3PIOC1EmhNS_4ModeE>:
#include "PIO.h"
#include "altera_avalon_pio_regs.h"


PIO::PIO(const unsigned long base_address, const unsigned char width,
    Mode mode)
  8011f0:	defffa04 	addi	sp,sp,-24
  8011f4:	dfc00515 	stw	ra,20(sp)
  8011f8:	df000415 	stw	fp,16(sp)
  8011fc:	df000404 	addi	fp,sp,16
  801200:	e13ffc15 	stw	r4,-16(fp)
  801204:	e17ffd15 	stw	r5,-12(fp)
  801208:	e1ffff15 	stw	r7,-4(fp)
  80120c:	e1bffe05 	stb	r6,-8(fp)
	:  _base_address( base_address ), _width( width ), _mode(mode)
  801210:	00c021b4 	movhi	r3,134
  801214:	18e2e604 	addi	r3,r3,-29800
  801218:	e0bffc17 	ldw	r2,-16(fp)
  80121c:	10c00015 	stw	r3,0(r2)
  801220:	e0fffc17 	ldw	r3,-16(fp)
  801224:	e0bffe03 	ldbu	r2,-8(fp)
  801228:	18800105 	stb	r2,4(r3)
  80122c:	e0fffc17 	ldw	r3,-16(fp)
  801230:	e0bffd17 	ldw	r2,-12(fp)
  801234:	18800215 	stw	r2,8(r3)
  801238:	e0fffc17 	ldw	r3,-16(fp)
  80123c:	e0bfff17 	ldw	r2,-4(fp)
  801240:	18800315 	stw	r2,12(r3)
{
	_value= this->getValue();
  801244:	e13ffc17 	ldw	r4,-16(fp)
  801248:	08011380 	call	801138 <_ZN3PIO8getValueEv>
  80124c:	1007883a 	mov	r3,r2
  801250:	e0bffc17 	ldw	r2,-16(fp)
  801254:	10c00415 	stw	r3,16(r2)
	_init_irq();
  801258:	e13ffc17 	ldw	r4,-16(fp)
  80125c:	08011180 	call	801118 <_ZN3PIO9_init_irqEv>
}
  801260:	e037883a 	mov	sp,fp
  801264:	dfc00117 	ldw	ra,4(sp)
  801268:	df000017 	ldw	fp,0(sp)
  80126c:	dec00204 	addi	sp,sp,8
  801270:	f800283a 	ret

00801274 <_ZN3PIOC2EmhNS_4ModeE>:
#include "PIO.h"
#include "altera_avalon_pio_regs.h"


PIO::PIO(const unsigned long base_address, const unsigned char width,
    Mode mode)
  801274:	defffa04 	addi	sp,sp,-24
  801278:	dfc00515 	stw	ra,20(sp)
  80127c:	df000415 	stw	fp,16(sp)
  801280:	df000404 	addi	fp,sp,16
  801284:	e13ffc15 	stw	r4,-16(fp)
  801288:	e17ffd15 	stw	r5,-12(fp)
  80128c:	e1ffff15 	stw	r7,-4(fp)
  801290:	e1bffe05 	stb	r6,-8(fp)
	:  _base_address( base_address ), _width( width ), _mode(mode)
  801294:	00c021b4 	movhi	r3,134
  801298:	18e2e604 	addi	r3,r3,-29800
  80129c:	e0bffc17 	ldw	r2,-16(fp)
  8012a0:	10c00015 	stw	r3,0(r2)
  8012a4:	e0fffc17 	ldw	r3,-16(fp)
  8012a8:	e0bffe03 	ldbu	r2,-8(fp)
  8012ac:	18800105 	stb	r2,4(r3)
  8012b0:	e0fffc17 	ldw	r3,-16(fp)
  8012b4:	e0bffd17 	ldw	r2,-12(fp)
  8012b8:	18800215 	stw	r2,8(r3)
  8012bc:	e0fffc17 	ldw	r3,-16(fp)
  8012c0:	e0bfff17 	ldw	r2,-4(fp)
  8012c4:	18800315 	stw	r2,12(r3)
{
	_value= this->getValue();
  8012c8:	e13ffc17 	ldw	r4,-16(fp)
  8012cc:	08011380 	call	801138 <_ZN3PIO8getValueEv>
  8012d0:	1007883a 	mov	r3,r2
  8012d4:	e0bffc17 	ldw	r2,-16(fp)
  8012d8:	10c00415 	stw	r3,16(r2)
	_init_irq();
  8012dc:	e13ffc17 	ldw	r4,-16(fp)
  8012e0:	08011180 	call	801118 <_ZN3PIO9_init_irqEv>
}
  8012e4:	e037883a 	mov	sp,fp
  8012e8:	dfc00117 	ldw	ra,4(sp)
  8012ec:	df000017 	ldw	fp,0(sp)
  8012f0:	dec00204 	addi	sp,sp,8
  8012f4:	f800283a 	ret

008012f8 <_ZN3PIOD0Ev>:

PIO::~PIO() {
  8012f8:	defffd04 	addi	sp,sp,-12
  8012fc:	dfc00215 	stw	ra,8(sp)
  801300:	df000115 	stw	fp,4(sp)
  801304:	df000104 	addi	fp,sp,4
  801308:	e13fff15 	stw	r4,-4(fp)
  80130c:	00c021b4 	movhi	r3,134
  801310:	18e2e604 	addi	r3,r3,-29800
  801314:	e0bfff17 	ldw	r2,-4(fp)
  801318:	10c00015 	stw	r3,0(r2)
}
  80131c:	00800044 	movi	r2,1
  801320:	10803fcc 	andi	r2,r2,255
  801324:	1005003a 	cmpeq	r2,r2,zero
  801328:	1000021e 	bne	r2,zero,801334 <_ZN3PIOD0Ev+0x3c>
  80132c:	e13fff17 	ldw	r4,-4(fp)
  801330:	0837aa00 	call	837aa0 <_ZdlPv>
  801334:	e037883a 	mov	sp,fp
  801338:	dfc00117 	ldw	ra,4(sp)
  80133c:	df000017 	ldw	fp,0(sp)
  801340:	dec00204 	addi	sp,sp,8
  801344:	f800283a 	ret

00801348 <_ZN3PIOD1Ev>:
{
	_value= this->getValue();
	_init_irq();
}

PIO::~PIO() {
  801348:	defffd04 	addi	sp,sp,-12
  80134c:	dfc00215 	stw	ra,8(sp)
  801350:	df000115 	stw	fp,4(sp)
  801354:	df000104 	addi	fp,sp,4
  801358:	e13fff15 	stw	r4,-4(fp)
  80135c:	00c021b4 	movhi	r3,134
  801360:	18e2e604 	addi	r3,r3,-29800
  801364:	e0bfff17 	ldw	r2,-4(fp)
  801368:	10c00015 	stw	r3,0(r2)
}
  80136c:	0005883a 	mov	r2,zero
  801370:	10803fcc 	andi	r2,r2,255
  801374:	1005003a 	cmpeq	r2,r2,zero
  801378:	1000021e 	bne	r2,zero,801384 <_ZN3PIOD1Ev+0x3c>
  80137c:	e13fff17 	ldw	r4,-4(fp)
  801380:	0837aa00 	call	837aa0 <_ZdlPv>
  801384:	e037883a 	mov	sp,fp
  801388:	dfc00117 	ldw	ra,4(sp)
  80138c:	df000017 	ldw	fp,0(sp)
  801390:	dec00204 	addi	sp,sp,8
  801394:	f800283a 	ret

00801398 <_ZN3PIOD2Ev>:
{
	_value= this->getValue();
	_init_irq();
}

PIO::~PIO() {
  801398:	defffd04 	addi	sp,sp,-12
  80139c:	dfc00215 	stw	ra,8(sp)
  8013a0:	df000115 	stw	fp,4(sp)
  8013a4:	df000104 	addi	fp,sp,4
  8013a8:	e13fff15 	stw	r4,-4(fp)
  8013ac:	00c021b4 	movhi	r3,134
  8013b0:	18e2e604 	addi	r3,r3,-29800
  8013b4:	e0bfff17 	ldw	r2,-4(fp)
  8013b8:	10c00015 	stw	r3,0(r2)
}
  8013bc:	0005883a 	mov	r2,zero
  8013c0:	10803fcc 	andi	r2,r2,255
  8013c4:	1005003a 	cmpeq	r2,r2,zero
  8013c8:	1000021e 	bne	r2,zero,8013d4 <_ZN3PIOD2Ev+0x3c>
  8013cc:	e13fff17 	ldw	r4,-4(fp)
  8013d0:	0837aa00 	call	837aa0 <_ZdlPv>
  8013d4:	e037883a 	mov	sp,fp
  8013d8:	dfc00117 	ldw	ra,4(sp)
  8013dc:	df000017 	ldw	fp,0(sp)
  8013e0:	dec00204 	addi	sp,sp,8
  8013e4:	f800283a 	ret

008013e8 <_ZN7PIO_BusC2ER3PIOhhh>:
 */

#include "PIO_Bus.h"

PIO_Bus::PIO_Bus(PIO& pio, const unsigned char id, const unsigned char width,
    const unsigned char left_shift):
  8013e8:	defffa04 	addi	sp,sp,-24
  8013ec:	df000515 	stw	fp,20(sp)
  8013f0:	df000504 	addi	fp,sp,20
  8013f4:	e13ffb15 	stw	r4,-20(fp)
  8013f8:	e17ffc15 	stw	r5,-16(fp)
  8013fc:	e0800117 	ldw	r2,4(fp)
  801400:	e1bffd05 	stb	r6,-12(fp)
  801404:	e1fffe05 	stb	r7,-8(fp)
  801408:	e0bfff05 	stb	r2,-4(fp)
    _pio(pio), _left_shift(left_shift), _id(id)
, _mask(((1 << width)-1) << left_shift)
  80140c:	00c021b4 	movhi	r3,134
  801410:	18e2eb04 	addi	r3,r3,-29780
  801414:	e0bffb17 	ldw	r2,-20(fp)
  801418:	10c00015 	stw	r3,0(r2)
  80141c:	e0fffb17 	ldw	r3,-20(fp)
  801420:	e0bffc17 	ldw	r2,-16(fp)
  801424:	18800115 	stw	r2,4(r3)
  801428:	e0fffe03 	ldbu	r3,-8(fp)
  80142c:	00800044 	movi	r2,1
  801430:	10c4983a 	sll	r2,r2,r3
  801434:	10ffffc4 	addi	r3,r2,-1
  801438:	e0bfff03 	ldbu	r2,-4(fp)
  80143c:	1884983a 	sll	r2,r3,r2
  801440:	1007883a 	mov	r3,r2
  801444:	e0bffb17 	ldw	r2,-20(fp)
  801448:	10c00215 	stw	r3,8(r2)
  80144c:	e0fffb17 	ldw	r3,-20(fp)
  801450:	e0bfff03 	ldbu	r2,-4(fp)
  801454:	18800305 	stb	r2,12(r3)
  801458:	e0fffd03 	ldbu	r3,-12(fp)
  80145c:	e0bffb17 	ldw	r2,-20(fp)
  801460:	10c00415 	stw	r3,16(r2)
    {
}
  801464:	e037883a 	mov	sp,fp
  801468:	df000017 	ldw	fp,0(sp)
  80146c:	dec00104 	addi	sp,sp,4
  801470:	f800283a 	ret

00801474 <_ZN7PIO_BusC1ER3PIOhhh>:
 */

#include "PIO_Bus.h"

PIO_Bus::PIO_Bus(PIO& pio, const unsigned char id, const unsigned char width,
    const unsigned char left_shift):
  801474:	defffa04 	addi	sp,sp,-24
  801478:	df000515 	stw	fp,20(sp)
  80147c:	df000504 	addi	fp,sp,20
  801480:	e13ffb15 	stw	r4,-20(fp)
  801484:	e17ffc15 	stw	r5,-16(fp)
  801488:	e0800117 	ldw	r2,4(fp)
  80148c:	e1bffd05 	stb	r6,-12(fp)
  801490:	e1fffe05 	stb	r7,-8(fp)
  801494:	e0bfff05 	stb	r2,-4(fp)
    _pio(pio), _left_shift(left_shift), _id(id)
, _mask(((1 << width)-1) << left_shift)
  801498:	00c021b4 	movhi	r3,134
  80149c:	18e2eb04 	addi	r3,r3,-29780
  8014a0:	e0bffb17 	ldw	r2,-20(fp)
  8014a4:	10c00015 	stw	r3,0(r2)
  8014a8:	e0fffb17 	ldw	r3,-20(fp)
  8014ac:	e0bffc17 	ldw	r2,-16(fp)
  8014b0:	18800115 	stw	r2,4(r3)
  8014b4:	e0fffe03 	ldbu	r3,-8(fp)
  8014b8:	00800044 	movi	r2,1
  8014bc:	10c4983a 	sll	r2,r2,r3
  8014c0:	10ffffc4 	addi	r3,r2,-1
  8014c4:	e0bfff03 	ldbu	r2,-4(fp)
  8014c8:	1884983a 	sll	r2,r3,r2
  8014cc:	1007883a 	mov	r3,r2
  8014d0:	e0bffb17 	ldw	r2,-20(fp)
  8014d4:	10c00215 	stw	r3,8(r2)
  8014d8:	e0fffb17 	ldw	r3,-20(fp)
  8014dc:	e0bfff03 	ldbu	r2,-4(fp)
  8014e0:	18800305 	stb	r2,12(r3)
  8014e4:	e0fffd03 	ldbu	r3,-12(fp)
  8014e8:	e0bffb17 	ldw	r2,-20(fp)
  8014ec:	10c00415 	stw	r3,16(r2)
    {
}
  8014f0:	e037883a 	mov	sp,fp
  8014f4:	df000017 	ldw	fp,0(sp)
  8014f8:	dec00104 	addi	sp,sp,4
  8014fc:	f800283a 	ret

00801500 <_ZN7PIO_Bus8getValueEv>:

PIO_Bus::~PIO_Bus() {
}

unsigned int PIO_Bus::getValue() {
  801500:	defffd04 	addi	sp,sp,-12
  801504:	dfc00215 	stw	ra,8(sp)
  801508:	df000115 	stw	fp,4(sp)
  80150c:	df000104 	addi	fp,sp,4
  801510:	e13fff15 	stw	r4,-4(fp)
	return (_pio.getValue() & _mask) >> _left_shift;
  801514:	e0bfff17 	ldw	r2,-4(fp)
  801518:	11000117 	ldw	r4,4(r2)
  80151c:	08011380 	call	801138 <_ZN3PIO8getValueEv>
  801520:	1007883a 	mov	r3,r2
  801524:	e0bfff17 	ldw	r2,-4(fp)
  801528:	10800217 	ldw	r2,8(r2)
  80152c:	1886703a 	and	r3,r3,r2
  801530:	e0bfff17 	ldw	r2,-4(fp)
  801534:	10800303 	ldbu	r2,12(r2)
  801538:	10803fcc 	andi	r2,r2,255
  80153c:	1884d83a 	srl	r2,r3,r2
}
  801540:	e037883a 	mov	sp,fp
  801544:	dfc00117 	ldw	ra,4(sp)
  801548:	df000017 	ldw	fp,0(sp)
  80154c:	dec00204 	addi	sp,sp,8
  801550:	f800283a 	ret

00801554 <_ZN7PIO_Bus8setValueEj>:

void PIO_Bus::setValue(unsigned int val) {
  801554:	defffb04 	addi	sp,sp,-20
  801558:	dfc00415 	stw	ra,16(sp)
  80155c:	df000315 	stw	fp,12(sp)
  801560:	dc000215 	stw	r16,8(sp)
  801564:	df000204 	addi	fp,sp,8
  801568:	e13ffe15 	stw	r4,-8(fp)
  80156c:	e17fff15 	stw	r5,-4(fp)
	_pio.setValue((_pio.getValue() & (~_mask) ) | (( val << _left_shift) & _mask));
  801570:	e0bffe17 	ldw	r2,-8(fp)
  801574:	14000117 	ldw	r16,4(r2)
  801578:	e0bffe17 	ldw	r2,-8(fp)
  80157c:	11000117 	ldw	r4,4(r2)
  801580:	08011380 	call	801138 <_ZN3PIO8getValueEv>
  801584:	1007883a 	mov	r3,r2
  801588:	e0bffe17 	ldw	r2,-8(fp)
  80158c:	10800217 	ldw	r2,8(r2)
  801590:	0084303a 	nor	r2,zero,r2
  801594:	1888703a 	and	r4,r3,r2
  801598:	e0bffe17 	ldw	r2,-8(fp)
  80159c:	10800303 	ldbu	r2,12(r2)
  8015a0:	10c03fcc 	andi	r3,r2,255
  8015a4:	e0bfff17 	ldw	r2,-4(fp)
  8015a8:	10c6983a 	sll	r3,r2,r3
  8015ac:	e0bffe17 	ldw	r2,-8(fp)
  8015b0:	10800217 	ldw	r2,8(r2)
  8015b4:	1884703a 	and	r2,r3,r2
  8015b8:	208ab03a 	or	r5,r4,r2
  8015bc:	8009883a 	mov	r4,r16
  8015c0:	08011640 	call	801164 <_ZN3PIO8setValueEj>
}
  8015c4:	e037883a 	mov	sp,fp
  8015c8:	dfc00217 	ldw	ra,8(sp)
  8015cc:	df000117 	ldw	fp,4(sp)
  8015d0:	dc000017 	ldw	r16,0(sp)
  8015d4:	dec00304 	addi	sp,sp,12
  8015d8:	f800283a 	ret

008015dc <_ZN7PIO_Bus11allPinTogleEv>:

void PIO_Bus::allPinOff() {
	setValue(0x00);
}

void PIO_Bus::allPinTogle() {
  8015dc:	defffd04 	addi	sp,sp,-12
  8015e0:	dfc00215 	stw	ra,8(sp)
  8015e4:	df000115 	stw	fp,4(sp)
  8015e8:	df000104 	addi	fp,sp,4
  8015ec:	e13fff15 	stw	r4,-4(fp)
	setValue(~getValue());
  8015f0:	e13fff17 	ldw	r4,-4(fp)
  8015f4:	08015000 	call	801500 <_ZN7PIO_Bus8getValueEv>
  8015f8:	008a303a 	nor	r5,zero,r2
  8015fc:	e13fff17 	ldw	r4,-4(fp)
  801600:	08015540 	call	801554 <_ZN7PIO_Bus8setValueEj>
}
  801604:	e037883a 	mov	sp,fp
  801608:	dfc00117 	ldw	ra,4(sp)
  80160c:	df000017 	ldw	fp,0(sp)
  801610:	dec00204 	addi	sp,sp,8
  801614:	f800283a 	ret

00801618 <_ZN7PIO_Bus9allPinOffEv>:

void PIO_Bus::allPinOn() {
	setValue(0xffffffff);
}

void PIO_Bus::allPinOff() {
  801618:	defffd04 	addi	sp,sp,-12
  80161c:	dfc00215 	stw	ra,8(sp)
  801620:	df000115 	stw	fp,4(sp)
  801624:	df000104 	addi	fp,sp,4
  801628:	e13fff15 	stw	r4,-4(fp)
	setValue(0x00);
  80162c:	e13fff17 	ldw	r4,-4(fp)
  801630:	000b883a 	mov	r5,zero
  801634:	08015540 	call	801554 <_ZN7PIO_Bus8setValueEj>
}
  801638:	e037883a 	mov	sp,fp
  80163c:	dfc00117 	ldw	ra,4(sp)
  801640:	df000017 	ldw	fp,0(sp)
  801644:	dec00204 	addi	sp,sp,8
  801648:	f800283a 	ret

0080164c <_ZN7PIO_Bus8allPinOnEv>:

void PIO_Bus::setValue(unsigned int val) {
	_pio.setValue((_pio.getValue() & (~_mask) ) | (( val << _left_shift) & _mask));
}

void PIO_Bus::allPinOn() {
  80164c:	defffd04 	addi	sp,sp,-12
  801650:	dfc00215 	stw	ra,8(sp)
  801654:	df000115 	stw	fp,4(sp)
  801658:	df000104 	addi	fp,sp,4
  80165c:	e13fff15 	stw	r4,-4(fp)
	setValue(0xffffffff);
  801660:	e13fff17 	ldw	r4,-4(fp)
  801664:	017fffc4 	movi	r5,-1
  801668:	08015540 	call	801554 <_ZN7PIO_Bus8setValueEj>
}
  80166c:	e037883a 	mov	sp,fp
  801670:	dfc00117 	ldw	ra,4(sp)
  801674:	df000017 	ldw	fp,0(sp)
  801678:	dec00204 	addi	sp,sp,8
  80167c:	f800283a 	ret

00801680 <_ZN7PIO_BusD0Ev>:
    _pio(pio), _left_shift(left_shift), _id(id)
, _mask(((1 << width)-1) << left_shift)
    {
}

PIO_Bus::~PIO_Bus() {
  801680:	defffd04 	addi	sp,sp,-12
  801684:	dfc00215 	stw	ra,8(sp)
  801688:	df000115 	stw	fp,4(sp)
  80168c:	df000104 	addi	fp,sp,4
  801690:	e13fff15 	stw	r4,-4(fp)
  801694:	00c021b4 	movhi	r3,134
  801698:	18e2eb04 	addi	r3,r3,-29780
  80169c:	e0bfff17 	ldw	r2,-4(fp)
  8016a0:	10c00015 	stw	r3,0(r2)
}
  8016a4:	00800044 	movi	r2,1
  8016a8:	10803fcc 	andi	r2,r2,255
  8016ac:	1005003a 	cmpeq	r2,r2,zero
  8016b0:	1000021e 	bne	r2,zero,8016bc <_ZN7PIO_BusD0Ev+0x3c>
  8016b4:	e13fff17 	ldw	r4,-4(fp)
  8016b8:	0837aa00 	call	837aa0 <_ZdlPv>
  8016bc:	e037883a 	mov	sp,fp
  8016c0:	dfc00117 	ldw	ra,4(sp)
  8016c4:	df000017 	ldw	fp,0(sp)
  8016c8:	dec00204 	addi	sp,sp,8
  8016cc:	f800283a 	ret

008016d0 <_ZN7PIO_BusD1Ev>:
    _pio(pio), _left_shift(left_shift), _id(id)
, _mask(((1 << width)-1) << left_shift)
    {
}

PIO_Bus::~PIO_Bus() {
  8016d0:	defffd04 	addi	sp,sp,-12
  8016d4:	dfc00215 	stw	ra,8(sp)
  8016d8:	df000115 	stw	fp,4(sp)
  8016dc:	df000104 	addi	fp,sp,4
  8016e0:	e13fff15 	stw	r4,-4(fp)
  8016e4:	00c021b4 	movhi	r3,134
  8016e8:	18e2eb04 	addi	r3,r3,-29780
  8016ec:	e0bfff17 	ldw	r2,-4(fp)
  8016f0:	10c00015 	stw	r3,0(r2)
}
  8016f4:	0005883a 	mov	r2,zero
  8016f8:	10803fcc 	andi	r2,r2,255
  8016fc:	1005003a 	cmpeq	r2,r2,zero
  801700:	1000021e 	bne	r2,zero,80170c <_ZN7PIO_BusD1Ev+0x3c>
  801704:	e13fff17 	ldw	r4,-4(fp)
  801708:	0837aa00 	call	837aa0 <_ZdlPv>
  80170c:	e037883a 	mov	sp,fp
  801710:	dfc00117 	ldw	ra,4(sp)
  801714:	df000017 	ldw	fp,0(sp)
  801718:	dec00204 	addi	sp,sp,8
  80171c:	f800283a 	ret

00801720 <_ZN7PIO_BusD2Ev>:
    _pio(pio), _left_shift(left_shift), _id(id)
, _mask(((1 << width)-1) << left_shift)
    {
}

PIO_Bus::~PIO_Bus() {
  801720:	defffd04 	addi	sp,sp,-12
  801724:	dfc00215 	stw	ra,8(sp)
  801728:	df000115 	stw	fp,4(sp)
  80172c:	df000104 	addi	fp,sp,4
  801730:	e13fff15 	stw	r4,-4(fp)
  801734:	00c021b4 	movhi	r3,134
  801738:	18e2eb04 	addi	r3,r3,-29780
  80173c:	e0bfff17 	ldw	r2,-4(fp)
  801740:	10c00015 	stw	r3,0(r2)
}
  801744:	0005883a 	mov	r2,zero
  801748:	10803fcc 	andi	r2,r2,255
  80174c:	1005003a 	cmpeq	r2,r2,zero
  801750:	1000021e 	bne	r2,zero,80175c <_ZN7PIO_BusD2Ev+0x3c>
  801754:	e13fff17 	ldw	r4,-4(fp)
  801758:	0837aa00 	call	837aa0 <_ZdlPv>
  80175c:	e037883a 	mov	sp,fp
  801760:	dfc00117 	ldw	ra,4(sp)
  801764:	df000017 	ldw	fp,0(sp)
  801768:	dec00204 	addi	sp,sp,8
  80176c:	f800283a 	ret

00801770 <_Z41__static_initialization_and_destruction_0ii>:
	/* Reset the edge capture register. */
	IOWR_ALTERA_AVALON_PIO_EDGE_CAP(DATA_LVDS_IN_BASE, 0x0);

	/* Register the ISR. */
	alt_irq_register(DATA_LVDS_IN_IRQ, edge_capture_pio_ptr, pio_it);
}
  801770:	defffc04 	addi	sp,sp,-16
  801774:	dfc00315 	stw	ra,12(sp)
  801778:	df000215 	stw	fp,8(sp)
  80177c:	df000204 	addi	fp,sp,8
  801780:	e13ffe15 	stw	r4,-8(fp)
  801784:	e17fff15 	stw	r5,-4(fp)
  801788:	e0bffe17 	ldw	r2,-8(fp)
  80178c:	10800058 	cmpnei	r2,r2,1
  801790:	1000051e 	bne	r2,zero,8017a8 <_Z41__static_initialization_and_destruction_0ii+0x38>
  801794:	e0ffff17 	ldw	r3,-4(fp)
  801798:	00bfffd4 	movui	r2,65535
  80179c:	1880021e 	bne	r3,r2,8017a8 <_Z41__static_initialization_and_destruction_0ii+0x38>
  8017a0:	d1288d04 	addi	r4,gp,-24012
  8017a4:	080347c0 	call	80347c <_ZNSt8ios_base4InitC1Ev>
  8017a8:	e0bffe17 	ldw	r2,-8(fp)
  8017ac:	1004c03a 	cmpne	r2,r2,zero
  8017b0:	1000051e 	bne	r2,zero,8017c8 <_Z41__static_initialization_and_destruction_0ii+0x58>
  8017b4:	e0ffff17 	ldw	r3,-4(fp)
  8017b8:	00bfffd4 	movui	r2,65535
  8017bc:	1880021e 	bne	r3,r2,8017c8 <_Z41__static_initialization_and_destruction_0ii+0x58>
  8017c0:	d1288d04 	addi	r4,gp,-24012
  8017c4:	0802dd00 	call	802dd0 <_ZNSt8ios_base4InitD1Ev>
  8017c8:	e037883a 	mov	sp,fp
  8017cc:	dfc00117 	ldw	ra,4(sp)
  8017d0:	df000017 	ldw	fp,0(sp)
  8017d4:	dec00204 	addi	sp,sp,8
  8017d8:	f800283a 	ret

008017dc <_GLOBAL__D__ZN8PIO_LVDSC2EmhN3PIO4ModeE>:
  8017dc:	defffe04 	addi	sp,sp,-8
  8017e0:	dfc00115 	stw	ra,4(sp)
  8017e4:	df000015 	stw	fp,0(sp)
  8017e8:	d839883a 	mov	fp,sp
  8017ec:	0009883a 	mov	r4,zero
  8017f0:	017fffd4 	movui	r5,65535
  8017f4:	08017700 	call	801770 <_Z41__static_initialization_and_destruction_0ii>
  8017f8:	e037883a 	mov	sp,fp
  8017fc:	dfc00117 	ldw	ra,4(sp)
  801800:	df000017 	ldw	fp,0(sp)
  801804:	dec00204 	addi	sp,sp,8
  801808:	f800283a 	ret

0080180c <_GLOBAL__I__ZN8PIO_LVDSC2EmhN3PIO4ModeE>:
	IOWR_ALTERA_AVALON_PIO_EDGE_CAP(DATA_LVDS_IN_BASE, 0x0);

	/* Register the ISR. */
	alt_irq_register(DATA_LVDS_IN_IRQ, edge_capture_pio_ptr, pio_it);
}
  80180c:	defffe04 	addi	sp,sp,-8
  801810:	dfc00115 	stw	ra,4(sp)
  801814:	df000015 	stw	fp,0(sp)
  801818:	d839883a 	mov	fp,sp
  80181c:	01000044 	movi	r4,1
  801820:	017fffd4 	movui	r5,65535
  801824:	08017700 	call	801770 <_Z41__static_initialization_and_destruction_0ii>
  801828:	e037883a 	mov	sp,fp
  80182c:	dfc00117 	ldw	ra,4(sp)
  801830:	df000017 	ldw	fp,0(sp)
  801834:	dec00204 	addi	sp,sp,8
  801838:	f800283a 	ret

0080183c <_Z6pio_itPv>:

PIO_LVDS::~PIO_LVDS() {

}

static void pio_it(void* context) {
  80183c:	defffe04 	addi	sp,sp,-8
  801840:	df000115 	stw	fp,4(sp)
  801844:	df000104 	addi	fp,sp,4
  801848:	e13fff15 	stw	r4,-4(fp)
	/*
	 * Read the edge capture register on the button PIO.
	 * Store value.
	 */
	/* Write to the edge capture register to reset it. */
	IOWR_ALTERA_AVALON_PIO_EDGE_CAP(DATA_LVDS_IN_BASE, 0);
  80184c:	00804074 	movhi	r2,257
  801850:	10a42704 	addi	r2,r2,-28516
  801854:	10000035 	stwio	zero,0(r2)
	/* reset interrupt capability for the Button PIO. */
	IOWR_ALTERA_AVALON_PIO_IRQ_MASK(DATA_LVDS_IN_BASE, 0x01);
  801858:	00c04074 	movhi	r3,257
  80185c:	18e42604 	addi	r3,r3,-28520
  801860:	00800044 	movi	r2,1
  801864:	18800035 	stwio	r2,0(r3)

}
  801868:	e037883a 	mov	sp,fp
  80186c:	df000017 	ldw	fp,0(sp)
  801870:	dec00104 	addi	sp,sp,4
  801874:	f800283a 	ret

00801878 <_ZN8PIO_LVDS9_init_irqEv>:

void PIO_LVDS::_init_irq(void) {
  801878:	defffc04 	addi	sp,sp,-16
  80187c:	dfc00315 	stw	ra,12(sp)
  801880:	df000215 	stw	fp,8(sp)
  801884:	df000204 	addi	fp,sp,8
  801888:	e13fff15 	stw	r4,-4(fp)

	void* edge_capture_pio_ptr = (void*) &edge_capture_pio;
  80188c:	d0a88e04 	addi	r2,gp,-24008
  801890:	e0bffe15 	stw	r2,-8(fp)

	/* Enable all 4 button interrupts. */
	IOWR_ALTERA_AVALON_PIO_IRQ_MASK(DATA_LVDS_IN_BASE, 0x01);
  801894:	00c04074 	movhi	r3,257
  801898:	18e42604 	addi	r3,r3,-28520
  80189c:	00800044 	movi	r2,1
  8018a0:	18800035 	stwio	r2,0(r3)
	/* Reset the edge capture register. */
	IOWR_ALTERA_AVALON_PIO_EDGE_CAP(DATA_LVDS_IN_BASE, 0x0);
  8018a4:	00804074 	movhi	r2,257
  8018a8:	10a42704 	addi	r2,r2,-28516
  8018ac:	10000035 	stwio	zero,0(r2)

	/* Register the ISR. */
	alt_irq_register(DATA_LVDS_IN_IRQ, edge_capture_pio_ptr, pio_it);
  8018b0:	010000c4 	movi	r4,3
  8018b4:	e17ffe17 	ldw	r5,-8(fp)
  8018b8:	01802034 	movhi	r6,128
  8018bc:	31860f04 	addi	r6,r6,6204
  8018c0:	08542cc0 	call	8542cc <alt_irq_register>
}
  8018c4:	e037883a 	mov	sp,fp
  8018c8:	dfc00117 	ldw	ra,4(sp)
  8018cc:	df000017 	ldw	fp,0(sp)
  8018d0:	dec00204 	addi	sp,sp,8
  8018d4:	f800283a 	ret

008018d8 <_ZN8PIO_LVDSD0Ev>:
PIO_LVDS::PIO_LVDS(const unsigned long base_address, const unsigned char width,
    Mode mode) :
		PIO(base_address, width, mode) {
}

PIO_LVDS::~PIO_LVDS() {
  8018d8:	defffd04 	addi	sp,sp,-12
  8018dc:	dfc00215 	stw	ra,8(sp)
  8018e0:	df000115 	stw	fp,4(sp)
  8018e4:	df000104 	addi	fp,sp,4
  8018e8:	e13fff15 	stw	r4,-4(fp)
  8018ec:	00c021b4 	movhi	r3,134
  8018f0:	18e2f204 	addi	r3,r3,-29752
  8018f4:	e0bfff17 	ldw	r2,-4(fp)
  8018f8:	10c00015 	stw	r3,0(r2)

}
  8018fc:	e13fff17 	ldw	r4,-4(fp)
  801900:	08013980 	call	801398 <_ZN3PIOD2Ev>
  801904:	00800044 	movi	r2,1
  801908:	10803fcc 	andi	r2,r2,255
  80190c:	1005003a 	cmpeq	r2,r2,zero
  801910:	1000021e 	bne	r2,zero,80191c <_ZN8PIO_LVDSD0Ev+0x44>
  801914:	e13fff17 	ldw	r4,-4(fp)
  801918:	0837aa00 	call	837aa0 <_ZdlPv>
  80191c:	e037883a 	mov	sp,fp
  801920:	dfc00117 	ldw	ra,4(sp)
  801924:	df000017 	ldw	fp,0(sp)
  801928:	dec00204 	addi	sp,sp,8
  80192c:	f800283a 	ret

00801930 <_ZN8PIO_LVDSD1Ev>:
PIO_LVDS::PIO_LVDS(const unsigned long base_address, const unsigned char width,
    Mode mode) :
		PIO(base_address, width, mode) {
}

PIO_LVDS::~PIO_LVDS() {
  801930:	defffd04 	addi	sp,sp,-12
  801934:	dfc00215 	stw	ra,8(sp)
  801938:	df000115 	stw	fp,4(sp)
  80193c:	df000104 	addi	fp,sp,4
  801940:	e13fff15 	stw	r4,-4(fp)
  801944:	00c021b4 	movhi	r3,134
  801948:	18e2f204 	addi	r3,r3,-29752
  80194c:	e0bfff17 	ldw	r2,-4(fp)
  801950:	10c00015 	stw	r3,0(r2)

}
  801954:	e13fff17 	ldw	r4,-4(fp)
  801958:	08013980 	call	801398 <_ZN3PIOD2Ev>
  80195c:	0005883a 	mov	r2,zero
  801960:	10803fcc 	andi	r2,r2,255
  801964:	1005003a 	cmpeq	r2,r2,zero
  801968:	1000021e 	bne	r2,zero,801974 <_ZN8PIO_LVDSD1Ev+0x44>
  80196c:	e13fff17 	ldw	r4,-4(fp)
  801970:	0837aa00 	call	837aa0 <_ZdlPv>
  801974:	e037883a 	mov	sp,fp
  801978:	dfc00117 	ldw	ra,4(sp)
  80197c:	df000017 	ldw	fp,0(sp)
  801980:	dec00204 	addi	sp,sp,8
  801984:	f800283a 	ret

00801988 <_ZN8PIO_LVDSD2Ev>:
PIO_LVDS::PIO_LVDS(const unsigned long base_address, const unsigned char width,
    Mode mode) :
		PIO(base_address, width, mode) {
}

PIO_LVDS::~PIO_LVDS() {
  801988:	defffd04 	addi	sp,sp,-12
  80198c:	dfc00215 	stw	ra,8(sp)
  801990:	df000115 	stw	fp,4(sp)
  801994:	df000104 	addi	fp,sp,4
  801998:	e13fff15 	stw	r4,-4(fp)
  80199c:	00c021b4 	movhi	r3,134
  8019a0:	18e2f204 	addi	r3,r3,-29752
  8019a4:	e0bfff17 	ldw	r2,-4(fp)
  8019a8:	10c00015 	stw	r3,0(r2)

}
  8019ac:	e13fff17 	ldw	r4,-4(fp)
  8019b0:	08013980 	call	801398 <_ZN3PIOD2Ev>
  8019b4:	0005883a 	mov	r2,zero
  8019b8:	10803fcc 	andi	r2,r2,255
  8019bc:	1005003a 	cmpeq	r2,r2,zero
  8019c0:	1000021e 	bne	r2,zero,8019cc <_ZN8PIO_LVDSD2Ev+0x44>
  8019c4:	e13fff17 	ldw	r4,-4(fp)
  8019c8:	0837aa00 	call	837aa0 <_ZdlPv>
  8019cc:	e037883a 	mov	sp,fp
  8019d0:	dfc00117 	ldw	ra,4(sp)
  8019d4:	df000017 	ldw	fp,0(sp)
  8019d8:	dec00204 	addi	sp,sp,8
  8019dc:	f800283a 	ret

008019e0 <_ZN8PIO_LVDSC1EmhN3PIO4ModeE>:
#include "string.h"
#include "stdarg.h"
static volatile int edge_capture_pio;

PIO_LVDS::PIO_LVDS(const unsigned long base_address, const unsigned char width,
    Mode mode) :
  8019e0:	defffa04 	addi	sp,sp,-24
  8019e4:	dfc00515 	stw	ra,20(sp)
  8019e8:	df000415 	stw	fp,16(sp)
  8019ec:	df000404 	addi	fp,sp,16
  8019f0:	e13ffc15 	stw	r4,-16(fp)
  8019f4:	e17ffd15 	stw	r5,-12(fp)
  8019f8:	e1ffff15 	stw	r7,-4(fp)
  8019fc:	e1bffe05 	stb	r6,-8(fp)
		PIO(base_address, width, mode) {
  801a00:	e13ffc17 	ldw	r4,-16(fp)
  801a04:	e1bffe03 	ldbu	r6,-8(fp)
  801a08:	e17ffd17 	ldw	r5,-12(fp)
  801a0c:	e1ffff17 	ldw	r7,-4(fp)
  801a10:	08012740 	call	801274 <_ZN3PIOC2EmhNS_4ModeE>
  801a14:	00c021b4 	movhi	r3,134
  801a18:	18e2f204 	addi	r3,r3,-29752
  801a1c:	e0bffc17 	ldw	r2,-16(fp)
  801a20:	10c00015 	stw	r3,0(r2)
}
  801a24:	e037883a 	mov	sp,fp
  801a28:	dfc00117 	ldw	ra,4(sp)
  801a2c:	df000017 	ldw	fp,0(sp)
  801a30:	dec00204 	addi	sp,sp,8
  801a34:	f800283a 	ret

00801a38 <_ZN8PIO_LVDSC2EmhN3PIO4ModeE>:
#include "string.h"
#include "stdarg.h"
static volatile int edge_capture_pio;

PIO_LVDS::PIO_LVDS(const unsigned long base_address, const unsigned char width,
    Mode mode) :
  801a38:	defffa04 	addi	sp,sp,-24
  801a3c:	dfc00515 	stw	ra,20(sp)
  801a40:	df000415 	stw	fp,16(sp)
  801a44:	df000404 	addi	fp,sp,16
  801a48:	e13ffc15 	stw	r4,-16(fp)
  801a4c:	e17ffd15 	stw	r5,-12(fp)
  801a50:	e1ffff15 	stw	r7,-4(fp)
  801a54:	e1bffe05 	stb	r6,-8(fp)
		PIO(base_address, width, mode) {
  801a58:	e13ffc17 	ldw	r4,-16(fp)
  801a5c:	e1bffe03 	ldbu	r6,-8(fp)
  801a60:	e17ffd17 	ldw	r5,-12(fp)
  801a64:	e1ffff17 	ldw	r7,-4(fp)
  801a68:	08012740 	call	801274 <_ZN3PIOC2EmhNS_4ModeE>
  801a6c:	00c021b4 	movhi	r3,134
  801a70:	18e2f204 	addi	r3,r3,-29752
  801a74:	e0bffc17 	ldw	r2,-16(fp)
  801a78:	10c00015 	stw	r3,0(r2)
}
  801a7c:	e037883a 	mov	sp,fp
  801a80:	dfc00117 	ldw	ra,4(sp)
  801a84:	df000017 	ldw	fp,0(sp)
  801a88:	dec00204 	addi	sp,sp,8
  801a8c:	f800283a 	ret

00801a90 <_ZN7PIO_PinC2ER3PIOhj>:
 *      Author: innovlab
 */

#include "PIO_Pin.h"

PIO_Pin::PIO_Pin(PIO& pio, unsigned char id, unsigned int mask) :
  801a90:	defffb04 	addi	sp,sp,-20
  801a94:	df000415 	stw	fp,16(sp)
  801a98:	df000404 	addi	fp,sp,16
  801a9c:	e13ffc15 	stw	r4,-16(fp)
  801aa0:	e17ffd15 	stw	r5,-12(fp)
  801aa4:	e1ffff15 	stw	r7,-4(fp)
  801aa8:	e1bffe05 	stb	r6,-8(fp)
		_pio(pio), _id(id), _mask(mask) {
  801aac:	00c021b4 	movhi	r3,134
  801ab0:	18e30004 	addi	r3,r3,-29696
  801ab4:	e0bffc17 	ldw	r2,-16(fp)
  801ab8:	10c00015 	stw	r3,0(r2)
  801abc:	e0fffc17 	ldw	r3,-16(fp)
  801ac0:	e0bffd17 	ldw	r2,-12(fp)
  801ac4:	18800115 	stw	r2,4(r3)
  801ac8:	e0fffc17 	ldw	r3,-16(fp)
  801acc:	e0bffe03 	ldbu	r2,-8(fp)
  801ad0:	18800205 	stb	r2,8(r3)
  801ad4:	e0fffc17 	ldw	r3,-16(fp)
  801ad8:	e0bfff17 	ldw	r2,-4(fp)
  801adc:	18800315 	stw	r2,12(r3)
}
  801ae0:	e037883a 	mov	sp,fp
  801ae4:	df000017 	ldw	fp,0(sp)
  801ae8:	dec00104 	addi	sp,sp,4
  801aec:	f800283a 	ret

00801af0 <_ZN7PIO_PinC1ER3PIOhj>:
 *      Author: innovlab
 */

#include "PIO_Pin.h"

PIO_Pin::PIO_Pin(PIO& pio, unsigned char id, unsigned int mask) :
  801af0:	defffb04 	addi	sp,sp,-20
  801af4:	df000415 	stw	fp,16(sp)
  801af8:	df000404 	addi	fp,sp,16
  801afc:	e13ffc15 	stw	r4,-16(fp)
  801b00:	e17ffd15 	stw	r5,-12(fp)
  801b04:	e1ffff15 	stw	r7,-4(fp)
  801b08:	e1bffe05 	stb	r6,-8(fp)
		_pio(pio), _id(id), _mask(mask) {
  801b0c:	00c021b4 	movhi	r3,134
  801b10:	18e30004 	addi	r3,r3,-29696
  801b14:	e0bffc17 	ldw	r2,-16(fp)
  801b18:	10c00015 	stw	r3,0(r2)
  801b1c:	e0fffc17 	ldw	r3,-16(fp)
  801b20:	e0bffd17 	ldw	r2,-12(fp)
  801b24:	18800115 	stw	r2,4(r3)
  801b28:	e0fffc17 	ldw	r3,-16(fp)
  801b2c:	e0bffe03 	ldbu	r2,-8(fp)
  801b30:	18800205 	stb	r2,8(r3)
  801b34:	e0fffc17 	ldw	r3,-16(fp)
  801b38:	e0bfff17 	ldw	r2,-4(fp)
  801b3c:	18800315 	stw	r2,12(r3)
}
  801b40:	e037883a 	mov	sp,fp
  801b44:	df000017 	ldw	fp,0(sp)
  801b48:	dec00104 	addi	sp,sp,4
  801b4c:	f800283a 	ret

00801b50 <_ZN7PIO_PinD0Ev>:
	return ((_pio.getValue() & _mask) != 0);
}



PIO_Pin::~PIO_Pin() {
  801b50:	defffd04 	addi	sp,sp,-12
  801b54:	dfc00215 	stw	ra,8(sp)
  801b58:	df000115 	stw	fp,4(sp)
  801b5c:	df000104 	addi	fp,sp,4
  801b60:	e13fff15 	stw	r4,-4(fp)
  801b64:	00c021b4 	movhi	r3,134
  801b68:	18e30004 	addi	r3,r3,-29696
  801b6c:	e0bfff17 	ldw	r2,-4(fp)
  801b70:	10c00015 	stw	r3,0(r2)
}
  801b74:	00800044 	movi	r2,1
  801b78:	10803fcc 	andi	r2,r2,255
  801b7c:	1005003a 	cmpeq	r2,r2,zero
  801b80:	1000021e 	bne	r2,zero,801b8c <_ZN7PIO_PinD0Ev+0x3c>
  801b84:	e13fff17 	ldw	r4,-4(fp)
  801b88:	0837aa00 	call	837aa0 <_ZdlPv>
  801b8c:	e037883a 	mov	sp,fp
  801b90:	dfc00117 	ldw	ra,4(sp)
  801b94:	df000017 	ldw	fp,0(sp)
  801b98:	dec00204 	addi	sp,sp,8
  801b9c:	f800283a 	ret

00801ba0 <_ZN7PIO_PinD1Ev>:
	return ((_pio.getValue() & _mask) != 0);
}



PIO_Pin::~PIO_Pin() {
  801ba0:	defffd04 	addi	sp,sp,-12
  801ba4:	dfc00215 	stw	ra,8(sp)
  801ba8:	df000115 	stw	fp,4(sp)
  801bac:	df000104 	addi	fp,sp,4
  801bb0:	e13fff15 	stw	r4,-4(fp)
  801bb4:	00c021b4 	movhi	r3,134
  801bb8:	18e30004 	addi	r3,r3,-29696
  801bbc:	e0bfff17 	ldw	r2,-4(fp)
  801bc0:	10c00015 	stw	r3,0(r2)
}
  801bc4:	0005883a 	mov	r2,zero
  801bc8:	10803fcc 	andi	r2,r2,255
  801bcc:	1005003a 	cmpeq	r2,r2,zero
  801bd0:	1000021e 	bne	r2,zero,801bdc <_ZN7PIO_PinD1Ev+0x3c>
  801bd4:	e13fff17 	ldw	r4,-4(fp)
  801bd8:	0837aa00 	call	837aa0 <_ZdlPv>
  801bdc:	e037883a 	mov	sp,fp
  801be0:	dfc00117 	ldw	ra,4(sp)
  801be4:	df000017 	ldw	fp,0(sp)
  801be8:	dec00204 	addi	sp,sp,8
  801bec:	f800283a 	ret

00801bf0 <_ZN7PIO_PinD2Ev>:
	return ((_pio.getValue() & _mask) != 0);
}



PIO_Pin::~PIO_Pin() {
  801bf0:	defffd04 	addi	sp,sp,-12
  801bf4:	dfc00215 	stw	ra,8(sp)
  801bf8:	df000115 	stw	fp,4(sp)
  801bfc:	df000104 	addi	fp,sp,4
  801c00:	e13fff15 	stw	r4,-4(fp)
  801c04:	00c021b4 	movhi	r3,134
  801c08:	18e30004 	addi	r3,r3,-29696
  801c0c:	e0bfff17 	ldw	r2,-4(fp)
  801c10:	10c00015 	stw	r3,0(r2)
}
  801c14:	0005883a 	mov	r2,zero
  801c18:	10803fcc 	andi	r2,r2,255
  801c1c:	1005003a 	cmpeq	r2,r2,zero
  801c20:	1000021e 	bne	r2,zero,801c2c <_ZN7PIO_PinD2Ev+0x3c>
  801c24:	e13fff17 	ldw	r4,-4(fp)
  801c28:	0837aa00 	call	837aa0 <_ZdlPv>
  801c2c:	e037883a 	mov	sp,fp
  801c30:	dfc00117 	ldw	ra,4(sp)
  801c34:	df000017 	ldw	fp,0(sp)
  801c38:	dec00204 	addi	sp,sp,8
  801c3c:	f800283a 	ret

00801c40 <_ZN7PIO_Pin8getValueEv>:

void PIO_Pin::toggle(void) {
	_pio.setValue(_pio.getValue() ^ _mask);
}

unsigned char PIO_Pin::getValue(void) {
  801c40:	defffd04 	addi	sp,sp,-12
  801c44:	dfc00215 	stw	ra,8(sp)
  801c48:	df000115 	stw	fp,4(sp)
  801c4c:	df000104 	addi	fp,sp,4
  801c50:	e13fff15 	stw	r4,-4(fp)
	return ((_pio.getValue() & _mask) != 0);
  801c54:	e0bfff17 	ldw	r2,-4(fp)
  801c58:	11000117 	ldw	r4,4(r2)
  801c5c:	08011380 	call	801138 <_ZN3PIO8getValueEv>
  801c60:	1007883a 	mov	r3,r2
  801c64:	e0bfff17 	ldw	r2,-4(fp)
  801c68:	10800317 	ldw	r2,12(r2)
  801c6c:	1884703a 	and	r2,r3,r2
  801c70:	1004c03a 	cmpne	r2,r2,zero
}
  801c74:	e037883a 	mov	sp,fp
  801c78:	dfc00117 	ldw	ra,4(sp)
  801c7c:	df000017 	ldw	fp,0(sp)
  801c80:	dec00204 	addi	sp,sp,8
  801c84:	f800283a 	ret

00801c88 <_ZN7PIO_Pin6toggleEv>:

void PIO_Pin::off(void) {
	_pio.setValue(_pio.getValue() & (~_mask));
}

void PIO_Pin::toggle(void) {
  801c88:	defffc04 	addi	sp,sp,-16
  801c8c:	dfc00315 	stw	ra,12(sp)
  801c90:	df000215 	stw	fp,8(sp)
  801c94:	dc000115 	stw	r16,4(sp)
  801c98:	df000104 	addi	fp,sp,4
  801c9c:	e13fff15 	stw	r4,-4(fp)
	_pio.setValue(_pio.getValue() ^ _mask);
  801ca0:	e0bfff17 	ldw	r2,-4(fp)
  801ca4:	14000117 	ldw	r16,4(r2)
  801ca8:	e0bfff17 	ldw	r2,-4(fp)
  801cac:	11000117 	ldw	r4,4(r2)
  801cb0:	08011380 	call	801138 <_ZN3PIO8getValueEv>
  801cb4:	1007883a 	mov	r3,r2
  801cb8:	e0bfff17 	ldw	r2,-4(fp)
  801cbc:	10800317 	ldw	r2,12(r2)
  801cc0:	188af03a 	xor	r5,r3,r2
  801cc4:	8009883a 	mov	r4,r16
  801cc8:	08011640 	call	801164 <_ZN3PIO8setValueEj>
}
  801ccc:	e037883a 	mov	sp,fp
  801cd0:	dfc00217 	ldw	ra,8(sp)
  801cd4:	df000117 	ldw	fp,4(sp)
  801cd8:	dc000017 	ldw	r16,0(sp)
  801cdc:	dec00304 	addi	sp,sp,12
  801ce0:	f800283a 	ret

00801ce4 <_ZN7PIO_Pin3offEv>:

void PIO_Pin::on(void) {
	_pio.setValue(_pio.getValue() | _mask);
}

void PIO_Pin::off(void) {
  801ce4:	defffc04 	addi	sp,sp,-16
  801ce8:	dfc00315 	stw	ra,12(sp)
  801cec:	df000215 	stw	fp,8(sp)
  801cf0:	dc000115 	stw	r16,4(sp)
  801cf4:	df000104 	addi	fp,sp,4
  801cf8:	e13fff15 	stw	r4,-4(fp)
	_pio.setValue(_pio.getValue() & (~_mask));
  801cfc:	e0bfff17 	ldw	r2,-4(fp)
  801d00:	14000117 	ldw	r16,4(r2)
  801d04:	e0bfff17 	ldw	r2,-4(fp)
  801d08:	11000117 	ldw	r4,4(r2)
  801d0c:	08011380 	call	801138 <_ZN3PIO8getValueEv>
  801d10:	1007883a 	mov	r3,r2
  801d14:	e0bfff17 	ldw	r2,-4(fp)
  801d18:	10800317 	ldw	r2,12(r2)
  801d1c:	0084303a 	nor	r2,zero,r2
  801d20:	188a703a 	and	r5,r3,r2
  801d24:	8009883a 	mov	r4,r16
  801d28:	08011640 	call	801164 <_ZN3PIO8setValueEj>
}
  801d2c:	e037883a 	mov	sp,fp
  801d30:	dfc00217 	ldw	ra,8(sp)
  801d34:	df000117 	ldw	fp,4(sp)
  801d38:	dc000017 	ldw	r16,0(sp)
  801d3c:	dec00304 	addi	sp,sp,12
  801d40:	f800283a 	ret

00801d44 <_ZN7PIO_Pin2onEv>:

PIO_Pin::PIO_Pin(PIO& pio, unsigned char id, unsigned int mask) :
		_pio(pio), _id(id), _mask(mask) {
}

void PIO_Pin::on(void) {
  801d44:	defffc04 	addi	sp,sp,-16
  801d48:	dfc00315 	stw	ra,12(sp)
  801d4c:	df000215 	stw	fp,8(sp)
  801d50:	dc000115 	stw	r16,4(sp)
  801d54:	df000104 	addi	fp,sp,4
  801d58:	e13fff15 	stw	r4,-4(fp)
	_pio.setValue(_pio.getValue() | _mask);
  801d5c:	e0bfff17 	ldw	r2,-4(fp)
  801d60:	14000117 	ldw	r16,4(r2)
  801d64:	e0bfff17 	ldw	r2,-4(fp)
  801d68:	11000117 	ldw	r4,4(r2)
  801d6c:	08011380 	call	801138 <_ZN3PIO8getValueEv>
  801d70:	1007883a 	mov	r3,r2
  801d74:	e0bfff17 	ldw	r2,-4(fp)
  801d78:	10800317 	ldw	r2,12(r2)
  801d7c:	188ab03a 	or	r5,r3,r2
  801d80:	8009883a 	mov	r4,r16
  801d84:	08011640 	call	801164 <_ZN3PIO8setValueEj>
}
  801d88:	e037883a 	mov	sp,fp
  801d8c:	dfc00217 	ldw	ra,8(sp)
  801d90:	df000117 	ldw	fp,4(sp)
  801d94:	dc000017 	ldw	r16,0(sp)
  801d98:	dec00304 	addi	sp,sp,12
  801d9c:	f800283a 	ret

00801da0 <_ZN3SPIC2Em>:

#include "SPI.h"
#include "altera_avalon_spi.h"


SPI::SPI(unsigned long base_address){
  801da0:	defffd04 	addi	sp,sp,-12
  801da4:	df000215 	stw	fp,8(sp)
  801da8:	df000204 	addi	fp,sp,8
  801dac:	e13ffe15 	stw	r4,-8(fp)
  801db0:	e17fff15 	stw	r5,-4(fp)
  801db4:	00c021b4 	movhi	r3,134
  801db8:	18e30704 	addi	r3,r3,-29668
  801dbc:	e0bffe17 	ldw	r2,-8(fp)
  801dc0:	10c00015 	stw	r3,0(r2)
	_base_address= base_address;
  801dc4:	e0fffe17 	ldw	r3,-8(fp)
  801dc8:	e0bfff17 	ldw	r2,-4(fp)
  801dcc:	18800115 	stw	r2,4(r3)
}
  801dd0:	e037883a 	mov	sp,fp
  801dd4:	df000017 	ldw	fp,0(sp)
  801dd8:	dec00104 	addi	sp,sp,4
  801ddc:	f800283a 	ret

00801de0 <_ZN3SPIC1Em>:

#include "SPI.h"
#include "altera_avalon_spi.h"


SPI::SPI(unsigned long base_address){
  801de0:	defffd04 	addi	sp,sp,-12
  801de4:	df000215 	stw	fp,8(sp)
  801de8:	df000204 	addi	fp,sp,8
  801dec:	e13ffe15 	stw	r4,-8(fp)
  801df0:	e17fff15 	stw	r5,-4(fp)
  801df4:	00c021b4 	movhi	r3,134
  801df8:	18e30704 	addi	r3,r3,-29668
  801dfc:	e0bffe17 	ldw	r2,-8(fp)
  801e00:	10c00015 	stw	r3,0(r2)
	_base_address= base_address;
  801e04:	e0fffe17 	ldw	r3,-8(fp)
  801e08:	e0bfff17 	ldw	r2,-4(fp)
  801e0c:	18800115 	stw	r2,4(r3)
}
  801e10:	e037883a 	mov	sp,fp
  801e14:	df000017 	ldw	fp,0(sp)
  801e18:	dec00104 	addi	sp,sp,4
  801e1c:	f800283a 	ret

00801e20 <_ZN3SPI15readCMVRegisterEh>:

SPI::~SPI(){}


unsigned char SPI::readCMVRegister(unsigned char address) {
  801e20:	defff804 	addi	sp,sp,-32
  801e24:	dfc00715 	stw	ra,28(sp)
  801e28:	df000615 	stw	fp,24(sp)
  801e2c:	df000604 	addi	fp,sp,24
  801e30:	e13ffe15 	stw	r4,-8(fp)
  801e34:	e17fff05 	stb	r5,-4(fp)

  unsigned char write_data[1];
  unsigned char read_data[1];

  write_data[0]= address & 0x7F;
  801e38:	e0bfff03 	ldbu	r2,-4(fp)
  801e3c:	10801fcc 	andi	r2,r2,127
  801e40:	e0bffd05 	stb	r2,-12(fp)

	alt_avalon_spi_command( _base_address, SPI_SLAVE_CMV_ENABLE, 1, write_data, 1, read_data, 0x00);
  801e44:	e0bffe17 	ldw	r2,-8(fp)
  801e48:	11000117 	ldw	r4,4(r2)
  801e4c:	00800044 	movi	r2,1
  801e50:	d8800015 	stw	r2,0(sp)
  801e54:	e0bffd44 	addi	r2,fp,-11
  801e58:	d8800115 	stw	r2,4(sp)
  801e5c:	d8000215 	stw	zero,8(sp)
  801e60:	000b883a 	mov	r5,zero
  801e64:	01800044 	movi	r6,1
  801e68:	e1fffd04 	addi	r7,fp,-12
  801e6c:	0855cc00 	call	855cc0 <alt_avalon_spi_command>

	return read_data[0];
  801e70:	e0bffd43 	ldbu	r2,-11(fp)
  801e74:	10803fcc 	andi	r2,r2,255
}
  801e78:	e037883a 	mov	sp,fp
  801e7c:	dfc00117 	ldw	ra,4(sp)
  801e80:	df000017 	ldw	fp,0(sp)
  801e84:	dec00204 	addi	sp,sp,8
  801e88:	f800283a 	ret

00801e8c <_ZN3SPI16writeCMVRegisterEhh>:

bool SPI::writeCMVRegister(unsigned char address, unsigned char value)
  801e8c:	defff704 	addi	sp,sp,-36
  801e90:	dfc00815 	stw	ra,32(sp)
  801e94:	df000715 	stw	fp,28(sp)
  801e98:	df000704 	addi	fp,sp,28
  801e9c:	e13ffd15 	stw	r4,-12(fp)
  801ea0:	e17ffe05 	stb	r5,-8(fp)
  801ea4:	e1bfff05 	stb	r6,-4(fp)
{
  unsigned char write_data[2];
  write_data[0]= address | 0x80;
  801ea8:	e0fffe03 	ldbu	r3,-8(fp)
  801eac:	00bfe004 	movi	r2,-128
  801eb0:	1884b03a 	or	r2,r3,r2
  801eb4:	e0bffc05 	stb	r2,-16(fp)
  write_data[1]= value;
  801eb8:	e0bfff03 	ldbu	r2,-4(fp)
  801ebc:	e0bffc45 	stb	r2,-15(fp)

	alt_avalon_spi_command( _base_address, SPI_SLAVE_CMV_ENABLE, 2, write_data, 0, 0x00, 0x00);
  801ec0:	e0bffd17 	ldw	r2,-12(fp)
  801ec4:	11000117 	ldw	r4,4(r2)
  801ec8:	d8000015 	stw	zero,0(sp)
  801ecc:	d8000115 	stw	zero,4(sp)
  801ed0:	d8000215 	stw	zero,8(sp)
  801ed4:	000b883a 	mov	r5,zero
  801ed8:	01800084 	movi	r6,2
  801edc:	e1fffc04 	addi	r7,fp,-16
  801ee0:	0855cc00 	call	855cc0 <alt_avalon_spi_command>

	return (value == this->readCMVRegister(address));
  801ee4:	e17ffe03 	ldbu	r5,-8(fp)
  801ee8:	e13ffd17 	ldw	r4,-12(fp)
  801eec:	0801e200 	call	801e20 <_ZN3SPI15readCMVRegisterEh>
  801ef0:	10c03fcc 	andi	r3,r2,255
  801ef4:	e0bfff03 	ldbu	r2,-4(fp)
  801ef8:	1885003a 	cmpeq	r2,r3,r2
}
  801efc:	e037883a 	mov	sp,fp
  801f00:	dfc00117 	ldw	ra,4(sp)
  801f04:	df000017 	ldw	fp,0(sp)
  801f08:	dec00204 	addi	sp,sp,8
  801f0c:	f800283a 	ret

00801f10 <_ZN3SPID0Ev>:

SPI::SPI(unsigned long base_address){
	_base_address= base_address;
}

SPI::~SPI(){}
  801f10:	defffd04 	addi	sp,sp,-12
  801f14:	dfc00215 	stw	ra,8(sp)
  801f18:	df000115 	stw	fp,4(sp)
  801f1c:	df000104 	addi	fp,sp,4
  801f20:	e13fff15 	stw	r4,-4(fp)
  801f24:	00c021b4 	movhi	r3,134
  801f28:	18e30704 	addi	r3,r3,-29668
  801f2c:	e0bfff17 	ldw	r2,-4(fp)
  801f30:	10c00015 	stw	r3,0(r2)
  801f34:	00800044 	movi	r2,1
  801f38:	10803fcc 	andi	r2,r2,255
  801f3c:	1005003a 	cmpeq	r2,r2,zero
  801f40:	1000021e 	bne	r2,zero,801f4c <_ZN3SPID0Ev+0x3c>
  801f44:	e13fff17 	ldw	r4,-4(fp)
  801f48:	0837aa00 	call	837aa0 <_ZdlPv>
  801f4c:	e037883a 	mov	sp,fp
  801f50:	dfc00117 	ldw	ra,4(sp)
  801f54:	df000017 	ldw	fp,0(sp)
  801f58:	dec00204 	addi	sp,sp,8
  801f5c:	f800283a 	ret

00801f60 <_ZN3SPID1Ev>:
  801f60:	defffd04 	addi	sp,sp,-12
  801f64:	dfc00215 	stw	ra,8(sp)
  801f68:	df000115 	stw	fp,4(sp)
  801f6c:	df000104 	addi	fp,sp,4
  801f70:	e13fff15 	stw	r4,-4(fp)
  801f74:	00c021b4 	movhi	r3,134
  801f78:	18e30704 	addi	r3,r3,-29668
  801f7c:	e0bfff17 	ldw	r2,-4(fp)
  801f80:	10c00015 	stw	r3,0(r2)
  801f84:	0005883a 	mov	r2,zero
  801f88:	10803fcc 	andi	r2,r2,255
  801f8c:	1005003a 	cmpeq	r2,r2,zero
  801f90:	1000021e 	bne	r2,zero,801f9c <_ZN3SPID1Ev+0x3c>
  801f94:	e13fff17 	ldw	r4,-4(fp)
  801f98:	0837aa00 	call	837aa0 <_ZdlPv>
  801f9c:	e037883a 	mov	sp,fp
  801fa0:	dfc00117 	ldw	ra,4(sp)
  801fa4:	df000017 	ldw	fp,0(sp)
  801fa8:	dec00204 	addi	sp,sp,8
  801fac:	f800283a 	ret

00801fb0 <_ZN3SPID2Ev>:
  801fb0:	defffd04 	addi	sp,sp,-12
  801fb4:	dfc00215 	stw	ra,8(sp)
  801fb8:	df000115 	stw	fp,4(sp)
  801fbc:	df000104 	addi	fp,sp,4
  801fc0:	e13fff15 	stw	r4,-4(fp)
  801fc4:	00c021b4 	movhi	r3,134
  801fc8:	18e30704 	addi	r3,r3,-29668
  801fcc:	e0bfff17 	ldw	r2,-4(fp)
  801fd0:	10c00015 	stw	r3,0(r2)
  801fd4:	0005883a 	mov	r2,zero
  801fd8:	10803fcc 	andi	r2,r2,255
  801fdc:	1005003a 	cmpeq	r2,r2,zero
  801fe0:	1000021e 	bne	r2,zero,801fec <_ZN3SPID2Ev+0x3c>
  801fe4:	e13fff17 	ldw	r4,-4(fp)
  801fe8:	0837aa00 	call	837aa0 <_ZdlPv>
  801fec:	e037883a 	mov	sp,fp
  801ff0:	dfc00117 	ldw	ra,4(sp)
  801ff4:	df000017 	ldw	fp,0(sp)
  801ff8:	dec00204 	addi	sp,sp,8
  801ffc:	f800283a 	ret

00802000 <_ZN4UART16inBuffer_isEmptyEv>:
UART::~UART() {
	delete _in_buffer;
	free(irq_context);
}

bool UART::inBuffer_isEmpty(void) {
  802000:	defffd04 	addi	sp,sp,-12
  802004:	dfc00215 	stw	ra,8(sp)
  802008:	df000115 	stw	fp,4(sp)
  80200c:	df000104 	addi	fp,sp,4
  802010:	e13fff15 	stw	r4,-4(fp)
	return _in_buffer->isEmpty();
  802014:	e0bfff17 	ldw	r2,-4(fp)
  802018:	11000117 	ldw	r4,4(r2)
  80201c:	08028440 	call	802844 <_ZN4FIFOIcE7isEmptyEv>
  802020:	10803fcc 	andi	r2,r2,255
}
  802024:	e037883a 	mov	sp,fp
  802028:	dfc00117 	ldw	ra,4(sp)
  80202c:	df000017 	ldw	fp,0(sp)
  802030:	dec00204 	addi	sp,sp,8
  802034:	f800283a 	ret

00802038 <_Z41__static_initialization_and_destruction_0ii>:

void UART::buffer_putstr(const char* str) {
	int len = strlen(str);
	for (int i = 0; i < len; i++)
		send(str[i]);
}
  802038:	defffc04 	addi	sp,sp,-16
  80203c:	dfc00315 	stw	ra,12(sp)
  802040:	df000215 	stw	fp,8(sp)
  802044:	df000204 	addi	fp,sp,8
  802048:	e13ffe15 	stw	r4,-8(fp)
  80204c:	e17fff15 	stw	r5,-4(fp)
  802050:	e0bffe17 	ldw	r2,-8(fp)
  802054:	10800058 	cmpnei	r2,r2,1
  802058:	1000051e 	bne	r2,zero,802070 <_Z41__static_initialization_and_destruction_0ii+0x38>
  80205c:	e0ffff17 	ldw	r3,-4(fp)
  802060:	00bfffd4 	movui	r2,65535
  802064:	1880021e 	bne	r3,r2,802070 <_Z41__static_initialization_and_destruction_0ii+0x38>
  802068:	d1288f04 	addi	r4,gp,-24004
  80206c:	080347c0 	call	80347c <_ZNSt8ios_base4InitC1Ev>
  802070:	e0bffe17 	ldw	r2,-8(fp)
  802074:	1004c03a 	cmpne	r2,r2,zero
  802078:	1000051e 	bne	r2,zero,802090 <_Z41__static_initialization_and_destruction_0ii+0x58>
  80207c:	e0ffff17 	ldw	r3,-4(fp)
  802080:	00bfffd4 	movui	r2,65535
  802084:	1880021e 	bne	r3,r2,802090 <_Z41__static_initialization_and_destruction_0ii+0x58>
  802088:	d1288f04 	addi	r4,gp,-24004
  80208c:	0802dd00 	call	802dd0 <_ZNSt8ios_base4InitD1Ev>
  802090:	e037883a 	mov	sp,fp
  802094:	dfc00117 	ldw	ra,4(sp)
  802098:	df000017 	ldw	fp,0(sp)
  80209c:	dec00204 	addi	sp,sp,8
  8020a0:	f800283a 	ret

008020a4 <_GLOBAL__D__ZN4UARTC2Emmj>:
/*
void UART::operator<<(ostream& output, const UART& uart) {
  8020a4:	defffe04 	addi	sp,sp,-8
  8020a8:	dfc00115 	stw	ra,4(sp)
  8020ac:	df000015 	stw	fp,0(sp)
  8020b0:	d839883a 	mov	fp,sp
  8020b4:	0009883a 	mov	r4,zero
  8020b8:	017fffd4 	movui	r5,65535
  8020bc:	08020380 	call	802038 <_Z41__static_initialization_and_destruction_0ii>
  8020c0:	e037883a 	mov	sp,fp
  8020c4:	dfc00117 	ldw	ra,4(sp)
  8020c8:	df000017 	ldw	fp,0(sp)
  8020cc:	dec00204 	addi	sp,sp,8
  8020d0:	f800283a 	ret

008020d4 <_GLOBAL__I__ZN4UARTC2Emmj>:
void UART::buffer_putstr(const char* str) {
	int len = strlen(str);
	for (int i = 0; i < len; i++)
		send(str[i]);
}
/*
  8020d4:	defffe04 	addi	sp,sp,-8
  8020d8:	dfc00115 	stw	ra,4(sp)
  8020dc:	df000015 	stw	fp,0(sp)
  8020e0:	d839883a 	mov	fp,sp
  8020e4:	01000044 	movi	r4,1
  8020e8:	017fffd4 	movui	r5,65535
  8020ec:	08020380 	call	802038 <_Z41__static_initialization_and_destruction_0ii>
  8020f0:	e037883a 	mov	sp,fp
  8020f4:	dfc00117 	ldw	ra,4(sp)
  8020f8:	df000017 	ldw	fp,0(sp)
  8020fc:	dec00204 	addi	sp,sp,8
  802100:	f800283a 	ret

00802104 <_ZN4UART4sendEc>:

char UART::buffer_getchar(void) {
	return _in_buffer->pull();
}

void UART::send(char c) {
  802104:	defffd04 	addi	sp,sp,-12
  802108:	df000215 	stw	fp,8(sp)
  80210c:	df000204 	addi	fp,sp,8
  802110:	e13ffe15 	stw	r4,-8(fp)
  802114:	e17fff05 	stb	r5,-4(fp)
	while (!(IORD_ALTERA_AVALON_UART_STATUS( _base_adress )
  802118:	e0bffe17 	ldw	r2,-8(fp)
  80211c:	10800217 	ldw	r2,8(r2)
  802120:	10800204 	addi	r2,r2,8
  802124:	10800037 	ldwio	r2,0(r2)
  802128:	1080100c 	andi	r2,r2,64
  80212c:	1005003a 	cmpeq	r2,r2,zero
  802130:	10803fcc 	andi	r2,r2,255
  802134:	1004c03a 	cmpne	r2,r2,zero
  802138:	103ff71e 	bne	r2,zero,802118 <_ZN4UART4sendEc+0x14>
	    & ALTERA_AVALON_UART_STATUS_TRDY_MSK))
		;
	IOWR_ALTERA_AVALON_UART_TXDATA(_base_adress, c);
  80213c:	e0bffe17 	ldw	r2,-8(fp)
  802140:	10800217 	ldw	r2,8(r2)
  802144:	10800104 	addi	r2,r2,4
  802148:	e0ffff07 	ldb	r3,-4(fp)
  80214c:	10c00035 	stwio	r3,0(r2)
}
  802150:	e037883a 	mov	sp,fp
  802154:	df000017 	ldw	fp,0(sp)
  802158:	dec00104 	addi	sp,sp,4
  80215c:	f800283a 	ret

00802160 <_ZN4UART13buffer_putstrEPKc>:

void UART::buffer_putchar(const char character) {
	send(character);
}

void UART::buffer_putstr(const char* str) {
  802160:	defffa04 	addi	sp,sp,-24
  802164:	dfc00515 	stw	ra,20(sp)
  802168:	df000415 	stw	fp,16(sp)
  80216c:	df000404 	addi	fp,sp,16
  802170:	e13ffe15 	stw	r4,-8(fp)
  802174:	e17fff15 	stw	r5,-4(fp)
	int len = strlen(str);
  802178:	e13fff17 	ldw	r4,-4(fp)
  80217c:	08482f80 	call	8482f8 <strlen>
  802180:	e0bffd15 	stw	r2,-12(fp)
	for (int i = 0; i < len; i++)
  802184:	e03ffc15 	stw	zero,-16(fp)
  802188:	00000d06 	br	8021c0 <_ZN4UART13buffer_putstrEPKc+0x60>
		send(str[i]);
  80218c:	e0bffc17 	ldw	r2,-16(fp)
  802190:	1007883a 	mov	r3,r2
  802194:	e0bfff17 	ldw	r2,-4(fp)
  802198:	1885883a 	add	r2,r3,r2
  80219c:	10800003 	ldbu	r2,0(r2)
  8021a0:	11403fcc 	andi	r5,r2,255
  8021a4:	2940201c 	xori	r5,r5,128
  8021a8:	297fe004 	addi	r5,r5,-128
  8021ac:	e13ffe17 	ldw	r4,-8(fp)
  8021b0:	08021040 	call	802104 <_ZN4UART4sendEc>
	send(character);
}

void UART::buffer_putstr(const char* str) {
	int len = strlen(str);
	for (int i = 0; i < len; i++)
  8021b4:	e0bffc17 	ldw	r2,-16(fp)
  8021b8:	10800044 	addi	r2,r2,1
  8021bc:	e0bffc15 	stw	r2,-16(fp)
  8021c0:	e0fffc17 	ldw	r3,-16(fp)
  8021c4:	e0bffd17 	ldw	r2,-12(fp)
  8021c8:	18bff016 	blt	r3,r2,80218c <_ZN4UART13buffer_putstrEPKc+0x2c>
		send(str[i]);
}
  8021cc:	e037883a 	mov	sp,fp
  8021d0:	dfc00117 	ldw	ra,4(sp)
  8021d4:	df000017 	ldw	fp,0(sp)
  8021d8:	dec00204 	addi	sp,sp,8
  8021dc:	f800283a 	ret

008021e0 <_ZN4UART14buffer_putcharEc>:

	for (int i = 0; i < len; i++)
		send(buffer[i]);
}

void UART::buffer_putchar(const char character) {
  8021e0:	defffc04 	addi	sp,sp,-16
  8021e4:	dfc00315 	stw	ra,12(sp)
  8021e8:	df000215 	stw	fp,8(sp)
  8021ec:	df000204 	addi	fp,sp,8
  8021f0:	e13ffe15 	stw	r4,-8(fp)
  8021f4:	e17fff05 	stb	r5,-4(fp)
	send(character);
  8021f8:	e17fff07 	ldb	r5,-4(fp)
  8021fc:	e13ffe17 	ldw	r4,-8(fp)
  802200:	08021040 	call	802104 <_ZN4UART4sendEc>
}
  802204:	e037883a 	mov	sp,fp
  802208:	dfc00117 	ldw	ra,4(sp)
  80220c:	df000017 	ldw	fp,0(sp)
  802210:	dec00204 	addi	sp,sp,8
  802214:	f800283a 	ret

00802218 <_ZN4UART13buffer_printfEPKcz>:
	    & ALTERA_AVALON_UART_STATUS_TRDY_MSK))
		;
	IOWR_ALTERA_AVALON_UART_TXDATA(_base_adress, c);
}

void UART::buffer_printf(const char* format, ...) {
  802218:	deffb704 	addi	sp,sp,-292
  80221c:	dfc04615 	stw	ra,280(sp)
  802220:	df004515 	stw	fp,276(sp)
  802224:	df004504 	addi	fp,sp,276
  802228:	e13ffe15 	stw	r4,-8(fp)
  80222c:	e1800215 	stw	r6,8(fp)
  802230:	e1c00315 	stw	r7,12(fp)
  802234:	e17fff15 	stw	r5,-4(fp)

	char buffer[255];
	int len;

	va_list args;
	va_start(args, format);
  802238:	e0800204 	addi	r2,fp,8
  80223c:	e0bfbd15 	stw	r2,-268(fp)
	len = vsnprintf(buffer, 255, format, args);
  802240:	e1ffbd17 	ldw	r7,-268(fp)
  802244:	e13fbe04 	addi	r4,fp,-264
  802248:	01403fc4 	movi	r5,255
  80224c:	e1bfff17 	ldw	r6,-4(fp)
  802250:	084d4380 	call	84d438 <vsnprintf>
  802254:	e0bfbc15 	stw	r2,-272(fp)
	va_end(args);

	for (int i = 0; i < len; i++)
  802258:	e03fbb15 	stw	zero,-276(fp)
  80225c:	00000c06 	br	802290 <_ZN4UART13buffer_printfEPKcz+0x78>
		send(buffer[i]);
  802260:	e0ffbb17 	ldw	r3,-276(fp)
  802264:	e0bfbe04 	addi	r2,fp,-264
  802268:	10c5883a 	add	r2,r2,r3
  80226c:	10800003 	ldbu	r2,0(r2)
  802270:	11403fcc 	andi	r5,r2,255
  802274:	2940201c 	xori	r5,r5,128
  802278:	297fe004 	addi	r5,r5,-128
  80227c:	e13ffe17 	ldw	r4,-8(fp)
  802280:	08021040 	call	802104 <_ZN4UART4sendEc>
	va_list args;
	va_start(args, format);
	len = vsnprintf(buffer, 255, format, args);
	va_end(args);

	for (int i = 0; i < len; i++)
  802284:	e0bfbb17 	ldw	r2,-276(fp)
  802288:	10800044 	addi	r2,r2,1
  80228c:	e0bfbb15 	stw	r2,-276(fp)
  802290:	e0ffbb17 	ldw	r3,-276(fp)
  802294:	e0bfbc17 	ldw	r2,-272(fp)
  802298:	18bff116 	blt	r3,r2,802260 <_ZN4UART13buffer_printfEPKcz+0x48>
		send(buffer[i]);
}
  80229c:	e037883a 	mov	sp,fp
  8022a0:	dfc00117 	ldw	ra,4(sp)
  8022a4:	df000017 	ldw	fp,0(sp)
  8022a8:	dec00404 	addi	sp,sp,16
  8022ac:	f800283a 	ret

008022b0 <_ZN4UART14buffer_getcharEv>:

bool UART::inBuffer_isEmpty(void) {
	return _in_buffer->isEmpty();
}

char UART::buffer_getchar(void) {
  8022b0:	defffd04 	addi	sp,sp,-12
  8022b4:	dfc00215 	stw	ra,8(sp)
  8022b8:	df000115 	stw	fp,4(sp)
  8022bc:	df000104 	addi	fp,sp,4
  8022c0:	e13fff15 	stw	r4,-4(fp)
	return _in_buffer->pull();
  8022c4:	e0bfff17 	ldw	r2,-4(fp)
  8022c8:	11000117 	ldw	r4,4(r2)
  8022cc:	080296c0 	call	80296c <_ZN4FIFOIcE4pullEv>
  8022d0:	10803fcc 	andi	r2,r2,255
  8022d4:	1080201c 	xori	r2,r2,128
  8022d8:	10bfe004 	addi	r2,r2,-128
}
  8022dc:	e037883a 	mov	sp,fp
  8022e0:	dfc00117 	ldw	ra,4(sp)
  8022e4:	df000017 	ldw	fp,0(sp)
  8022e8:	dec00204 	addi	sp,sp,8
  8022ec:	f800283a 	ret

008022f0 <_Z23_UART_receive_interruptPv>:
#include "string.h"
#include "stdarg.h"

#include <sstream>

static void _UART_receive_interrupt(void* context) {
  8022f0:	defffc04 	addi	sp,sp,-16
  8022f4:	dfc00315 	stw	ra,12(sp)
  8022f8:	df000215 	stw	fp,8(sp)
  8022fc:	df000204 	addi	fp,sp,8
  802300:	e13fff15 	stw	r4,-4(fp)
	UART_interrupt_context* interrupt_context = (UART_interrupt_context*) context;
  802304:	e0bfff17 	ldw	r2,-4(fp)
  802308:	e0bffe15 	stw	r2,-8(fp)
	interrupt_context->_in_buffer->push(
	    (char) (IORD_ALTERA_AVALON_UART_RXDATA(interrupt_context->_base_adress)));
  80230c:	e0bffe17 	ldw	r2,-8(fp)
  802310:	11000017 	ldw	r4,0(r2)
  802314:	e0bffe17 	ldw	r2,-8(fp)
  802318:	10800117 	ldw	r2,4(r2)
  80231c:	10800037 	ldwio	r2,0(r2)
  802320:	11403fcc 	andi	r5,r2,255
  802324:	2940201c 	xori	r5,r5,128
  802328:	297fe004 	addi	r5,r5,-128
  80232c:	0802a300 	call	802a30 <_ZN4FIFOIcE4pushEc>
	IOWR_ALTERA_AVALON_UART_RXDATA( interrupt_context->_base_adress, 0);
  802330:	e0bffe17 	ldw	r2,-8(fp)
  802334:	10800117 	ldw	r2,4(r2)
  802338:	10000035 	stwio	zero,0(r2)
}
  80233c:	e037883a 	mov	sp,fp
  802340:	dfc00117 	ldw	ra,4(sp)
  802344:	df000017 	ldw	fp,0(sp)
  802348:	dec00204 	addi	sp,sp,8
  80234c:	f800283a 	ret

00802350 <_ZN4UARTD0Ev>:
	irq_context->_base_adress = _base_adress;
	irq_context->_in_buffer = _in_buffer;
	alt_irq_register(irq, irq_context, _UART_receive_interrupt);
}

UART::~UART() {
  802350:	defffd04 	addi	sp,sp,-12
  802354:	dfc00215 	stw	ra,8(sp)
  802358:	df000115 	stw	fp,4(sp)
  80235c:	df000104 	addi	fp,sp,4
  802360:	e13fff15 	stw	r4,-4(fp)
  802364:	00c021b4 	movhi	r3,134
  802368:	18e31a04 	addi	r3,r3,-29592
  80236c:	e0bfff17 	ldw	r2,-4(fp)
  802370:	10c00015 	stw	r3,0(r2)
	delete _in_buffer;
  802374:	e0bfff17 	ldw	r2,-4(fp)
  802378:	10800117 	ldw	r2,4(r2)
  80237c:	1005003a 	cmpeq	r2,r2,zero
  802380:	1000081e 	bne	r2,zero,8023a4 <_ZN4UARTD0Ev+0x54>
  802384:	e0bfff17 	ldw	r2,-4(fp)
  802388:	10800117 	ldw	r2,4(r2)
  80238c:	10800017 	ldw	r2,0(r2)
  802390:	10800104 	addi	r2,r2,4
  802394:	10c00017 	ldw	r3,0(r2)
  802398:	e0bfff17 	ldw	r2,-4(fp)
  80239c:	11000117 	ldw	r4,4(r2)
  8023a0:	183ee83a 	callr	r3
	free(irq_context);
  8023a4:	e0bfff17 	ldw	r2,-4(fp)
  8023a8:	11000417 	ldw	r4,16(r2)
  8023ac:	08458300 	call	845830 <free>
}
  8023b0:	00800044 	movi	r2,1
  8023b4:	10803fcc 	andi	r2,r2,255
  8023b8:	1005003a 	cmpeq	r2,r2,zero
  8023bc:	1000021e 	bne	r2,zero,8023c8 <_ZN4UARTD0Ev+0x78>
  8023c0:	e13fff17 	ldw	r4,-4(fp)
  8023c4:	0837aa00 	call	837aa0 <_ZdlPv>
  8023c8:	e037883a 	mov	sp,fp
  8023cc:	dfc00117 	ldw	ra,4(sp)
  8023d0:	df000017 	ldw	fp,0(sp)
  8023d4:	dec00204 	addi	sp,sp,8
  8023d8:	f800283a 	ret

008023dc <_ZN4UARTD1Ev>:
	irq_context->_base_adress = _base_adress;
	irq_context->_in_buffer = _in_buffer;
	alt_irq_register(irq, irq_context, _UART_receive_interrupt);
}

UART::~UART() {
  8023dc:	defffd04 	addi	sp,sp,-12
  8023e0:	dfc00215 	stw	ra,8(sp)
  8023e4:	df000115 	stw	fp,4(sp)
  8023e8:	df000104 	addi	fp,sp,4
  8023ec:	e13fff15 	stw	r4,-4(fp)
  8023f0:	00c021b4 	movhi	r3,134
  8023f4:	18e31a04 	addi	r3,r3,-29592
  8023f8:	e0bfff17 	ldw	r2,-4(fp)
  8023fc:	10c00015 	stw	r3,0(r2)
	delete _in_buffer;
  802400:	e0bfff17 	ldw	r2,-4(fp)
  802404:	10800117 	ldw	r2,4(r2)
  802408:	1005003a 	cmpeq	r2,r2,zero
  80240c:	1000081e 	bne	r2,zero,802430 <_ZN4UARTD1Ev+0x54>
  802410:	e0bfff17 	ldw	r2,-4(fp)
  802414:	10800117 	ldw	r2,4(r2)
  802418:	10800017 	ldw	r2,0(r2)
  80241c:	10800104 	addi	r2,r2,4
  802420:	10c00017 	ldw	r3,0(r2)
  802424:	e0bfff17 	ldw	r2,-4(fp)
  802428:	11000117 	ldw	r4,4(r2)
  80242c:	183ee83a 	callr	r3
	free(irq_context);
  802430:	e0bfff17 	ldw	r2,-4(fp)
  802434:	11000417 	ldw	r4,16(r2)
  802438:	08458300 	call	845830 <free>
}
  80243c:	0005883a 	mov	r2,zero
  802440:	10803fcc 	andi	r2,r2,255
  802444:	1005003a 	cmpeq	r2,r2,zero
  802448:	1000021e 	bne	r2,zero,802454 <_ZN4UARTD1Ev+0x78>
  80244c:	e13fff17 	ldw	r4,-4(fp)
  802450:	0837aa00 	call	837aa0 <_ZdlPv>
  802454:	e037883a 	mov	sp,fp
  802458:	dfc00117 	ldw	ra,4(sp)
  80245c:	df000017 	ldw	fp,0(sp)
  802460:	dec00204 	addi	sp,sp,8
  802464:	f800283a 	ret

00802468 <_ZN4UARTD2Ev>:
	irq_context->_base_adress = _base_adress;
	irq_context->_in_buffer = _in_buffer;
	alt_irq_register(irq, irq_context, _UART_receive_interrupt);
}

UART::~UART() {
  802468:	defffd04 	addi	sp,sp,-12
  80246c:	dfc00215 	stw	ra,8(sp)
  802470:	df000115 	stw	fp,4(sp)
  802474:	df000104 	addi	fp,sp,4
  802478:	e13fff15 	stw	r4,-4(fp)
  80247c:	00c021b4 	movhi	r3,134
  802480:	18e31a04 	addi	r3,r3,-29592
  802484:	e0bfff17 	ldw	r2,-4(fp)
  802488:	10c00015 	stw	r3,0(r2)
	delete _in_buffer;
  80248c:	e0bfff17 	ldw	r2,-4(fp)
  802490:	10800117 	ldw	r2,4(r2)
  802494:	1005003a 	cmpeq	r2,r2,zero
  802498:	1000081e 	bne	r2,zero,8024bc <_ZN4UARTD2Ev+0x54>
  80249c:	e0bfff17 	ldw	r2,-4(fp)
  8024a0:	10800117 	ldw	r2,4(r2)
  8024a4:	10800017 	ldw	r2,0(r2)
  8024a8:	10800104 	addi	r2,r2,4
  8024ac:	10c00017 	ldw	r3,0(r2)
  8024b0:	e0bfff17 	ldw	r2,-4(fp)
  8024b4:	11000117 	ldw	r4,4(r2)
  8024b8:	183ee83a 	callr	r3
	free(irq_context);
  8024bc:	e0bfff17 	ldw	r2,-4(fp)
  8024c0:	11000417 	ldw	r4,16(r2)
  8024c4:	08458300 	call	845830 <free>
}
  8024c8:	0005883a 	mov	r2,zero
  8024cc:	10803fcc 	andi	r2,r2,255
  8024d0:	1005003a 	cmpeq	r2,r2,zero
  8024d4:	1000021e 	bne	r2,zero,8024e0 <_ZN4UARTD2Ev+0x78>
  8024d8:	e13fff17 	ldw	r4,-4(fp)
  8024dc:	0837aa00 	call	837aa0 <_ZdlPv>
  8024e0:	e037883a 	mov	sp,fp
  8024e4:	dfc00117 	ldw	ra,4(sp)
  8024e8:	df000017 	ldw	fp,0(sp)
  8024ec:	dec00204 	addi	sp,sp,8
  8024f0:	f800283a 	ret

008024f4 <_ZN4UARTC1Emmj>:
	interrupt_context->_in_buffer->push(
	    (char) (IORD_ALTERA_AVALON_UART_RXDATA(interrupt_context->_base_adress)));
	IOWR_ALTERA_AVALON_UART_RXDATA( interrupt_context->_base_adress, 0);
}

UART::UART(unsigned long base_adress, unsigned long irq, unsigned size_buffer) {
  8024f4:	deffe204 	addi	sp,sp,-120
  8024f8:	dfc01d15 	stw	ra,116(sp)
  8024fc:	df001c15 	stw	fp,112(sp)
  802500:	ddc01b15 	stw	r23,108(sp)
  802504:	dd801a15 	stw	r22,104(sp)
  802508:	dd401915 	stw	r21,100(sp)
  80250c:	dd001815 	stw	r20,96(sp)
  802510:	dcc01715 	stw	r19,92(sp)
  802514:	dc801615 	stw	r18,88(sp)
  802518:	dc401515 	stw	r17,84(sp)
  80251c:	dc001415 	stw	r16,80(sp)
  802520:	df001404 	addi	fp,sp,80
  802524:	e13fec15 	stw	r4,-80(fp)
  802528:	e17fed15 	stw	r5,-76(fp)
  80252c:	e1bfee15 	stw	r6,-72(fp)
  802530:	e1ffef15 	stw	r7,-68(fp)
  802534:	00802134 	movhi	r2,132
  802538:	10a08504 	addi	r2,r2,-32236
  80253c:	e0bff615 	stw	r2,-40(fp)
  802540:	00802174 	movhi	r2,133
  802544:	109e6b84 	addi	r2,r2,31150
  802548:	e0bff715 	stw	r2,-36(fp)
  80254c:	e0bff804 	addi	r2,fp,-32
  802550:	e0ffec04 	addi	r3,fp,-80
  802554:	10c00015 	stw	r3,0(r2)
  802558:	00c02034 	movhi	r3,128
  80255c:	18c98b04 	addi	r3,r3,9772
  802560:	10c00115 	stw	r3,4(r2)
  802564:	16c00215 	stw	sp,8(r2)
  802568:	e13ff004 	addi	r4,fp,-64
  80256c:	08433d40 	call	8433d4 <_Unwind_SjLj_Register>
  802570:	00c021b4 	movhi	r3,134
  802574:	18e31a04 	addi	r3,r3,-29592
  802578:	e0bfec17 	ldw	r2,-80(fp)
  80257c:	10c00015 	stw	r3,0(r2)

	_base_adress = base_adress;
  802580:	e0ffec17 	ldw	r3,-80(fp)
  802584:	e0bfed17 	ldw	r2,-76(fp)
  802588:	18800215 	stw	r2,8(r3)
	_size_buffer = size_buffer;
  80258c:	e0ffec17 	ldw	r3,-80(fp)
  802590:	e0bfef17 	ldw	r2,-68(fp)
  802594:	18800315 	stw	r2,12(r3)
	_in_buffer = new FIFO<char>(size_buffer);
  802598:	00bfffc4 	movi	r2,-1
  80259c:	e0bff115 	stw	r2,-60(fp)
  8025a0:	01000504 	movi	r4,20
  8025a4:	0838bb40 	call	838bb4 <_Znwm>
  8025a8:	e0bffe15 	stw	r2,-8(fp)
  8025ac:	00800044 	movi	r2,1
  8025b0:	e0bff115 	stw	r2,-60(fp)
  8025b4:	e13ffe17 	ldw	r4,-8(fp)
  8025b8:	e17fef17 	ldw	r5,-68(fp)
  8025bc:	0802ab80 	call	802ab8 <_ZN4FIFOIcEC1Ej>
  8025c0:	e0bfec17 	ldw	r2,-80(fp)
  8025c4:	e0fffe17 	ldw	r3,-8(fp)
  8025c8:	10c00115 	stw	r3,4(r2)

	// init irq
	irq_context = (UART_interrupt_context*) malloc(
	    sizeof(UART_interrupt_context));
  8025cc:	01000204 	movi	r4,8
  8025d0:	08458440 	call	845844 <malloc>
  8025d4:	1007883a 	mov	r3,r2
  8025d8:	e0bfec17 	ldw	r2,-80(fp)
  8025dc:	10c00415 	stw	r3,16(r2)
	irq_context->_base_adress = _base_adress;
  8025e0:	e0bfec17 	ldw	r2,-80(fp)
  8025e4:	10c00417 	ldw	r3,16(r2)
  8025e8:	e0bfec17 	ldw	r2,-80(fp)
  8025ec:	10800217 	ldw	r2,8(r2)
  8025f0:	18800115 	stw	r2,4(r3)
	irq_context->_in_buffer = _in_buffer;
  8025f4:	e0bfec17 	ldw	r2,-80(fp)
  8025f8:	10c00417 	ldw	r3,16(r2)
  8025fc:	e0bfec17 	ldw	r2,-80(fp)
  802600:	10800117 	ldw	r2,4(r2)
  802604:	18800015 	stw	r2,0(r3)
	alt_irq_register(irq, irq_context, _UART_receive_interrupt);
  802608:	e0bfec17 	ldw	r2,-80(fp)
  80260c:	11400417 	ldw	r5,16(r2)
  802610:	00bfffc4 	movi	r2,-1
  802614:	e0bff115 	stw	r2,-60(fp)
  802618:	e13fee17 	ldw	r4,-72(fp)
  80261c:	01802034 	movhi	r6,128
  802620:	3188bc04 	addi	r6,r6,8944
  802624:	08542cc0 	call	8542cc <alt_irq_register>
}
  802628:	00000d06 	br	802660 <_ZN4UARTC1Emmj+0x16c>
  80262c:	e7001404 	addi	fp,fp,80
  802630:	e0bff217 	ldw	r2,-56(fp)
  802634:	e0bfff15 	stw	r2,-4(fp)
  802638:	e0ffff17 	ldw	r3,-4(fp)
  80263c:	e0fffd15 	stw	r3,-12(fp)

UART::UART(unsigned long base_adress, unsigned long irq, unsigned size_buffer) {

	_base_adress = base_adress;
	_size_buffer = size_buffer;
	_in_buffer = new FIFO<char>(size_buffer);
  802640:	e13ffe17 	ldw	r4,-8(fp)
  802644:	0837aa00 	call	837aa0 <_ZdlPv>
  802648:	e0bffd17 	ldw	r2,-12(fp)
  80264c:	e0bfff15 	stw	r2,-4(fp)
  802650:	00bfffc4 	movi	r2,-1
  802654:	e0bff115 	stw	r2,-60(fp)
  802658:	e13fff17 	ldw	r4,-4(fp)
  80265c:	08436a00 	call	8436a0 <_Unwind_SjLj_Resume>
  802660:	e13ff004 	addi	r4,fp,-64
  802664:	08433e40 	call	8433e4 <_Unwind_SjLj_Unregister>
	irq_context = (UART_interrupt_context*) malloc(
	    sizeof(UART_interrupt_context));
	irq_context->_base_adress = _base_adress;
	irq_context->_in_buffer = _in_buffer;
	alt_irq_register(irq, irq_context, _UART_receive_interrupt);
}
  802668:	e037883a 	mov	sp,fp
  80266c:	dfc00917 	ldw	ra,36(sp)
  802670:	df000817 	ldw	fp,32(sp)
  802674:	ddc00717 	ldw	r23,28(sp)
  802678:	dd800617 	ldw	r22,24(sp)
  80267c:	dd400517 	ldw	r21,20(sp)
  802680:	dd000417 	ldw	r20,16(sp)
  802684:	dcc00317 	ldw	r19,12(sp)
  802688:	dc800217 	ldw	r18,8(sp)
  80268c:	dc400117 	ldw	r17,4(sp)
  802690:	dc000017 	ldw	r16,0(sp)
  802694:	dec00a04 	addi	sp,sp,40
  802698:	f800283a 	ret

0080269c <_ZN4UARTC2Emmj>:
	interrupt_context->_in_buffer->push(
	    (char) (IORD_ALTERA_AVALON_UART_RXDATA(interrupt_context->_base_adress)));
	IOWR_ALTERA_AVALON_UART_RXDATA( interrupt_context->_base_adress, 0);
}

UART::UART(unsigned long base_adress, unsigned long irq, unsigned size_buffer) {
  80269c:	deffe204 	addi	sp,sp,-120
  8026a0:	dfc01d15 	stw	ra,116(sp)
  8026a4:	df001c15 	stw	fp,112(sp)
  8026a8:	ddc01b15 	stw	r23,108(sp)
  8026ac:	dd801a15 	stw	r22,104(sp)
  8026b0:	dd401915 	stw	r21,100(sp)
  8026b4:	dd001815 	stw	r20,96(sp)
  8026b8:	dcc01715 	stw	r19,92(sp)
  8026bc:	dc801615 	stw	r18,88(sp)
  8026c0:	dc401515 	stw	r17,84(sp)
  8026c4:	dc001415 	stw	r16,80(sp)
  8026c8:	df001404 	addi	fp,sp,80
  8026cc:	e13fec15 	stw	r4,-80(fp)
  8026d0:	e17fed15 	stw	r5,-76(fp)
  8026d4:	e1bfee15 	stw	r6,-72(fp)
  8026d8:	e1ffef15 	stw	r7,-68(fp)
  8026dc:	00802134 	movhi	r2,132
  8026e0:	10a08504 	addi	r2,r2,-32236
  8026e4:	e0bff615 	stw	r2,-40(fp)
  8026e8:	00802174 	movhi	r2,133
  8026ec:	109e6d04 	addi	r2,r2,31156
  8026f0:	e0bff715 	stw	r2,-36(fp)
  8026f4:	e0bff804 	addi	r2,fp,-32
  8026f8:	e0ffec04 	addi	r3,fp,-80
  8026fc:	10c00015 	stw	r3,0(r2)
  802700:	00c02034 	movhi	r3,128
  802704:	18c9f504 	addi	r3,r3,10196
  802708:	10c00115 	stw	r3,4(r2)
  80270c:	16c00215 	stw	sp,8(r2)
  802710:	e13ff004 	addi	r4,fp,-64
  802714:	08433d40 	call	8433d4 <_Unwind_SjLj_Register>
  802718:	00c021b4 	movhi	r3,134
  80271c:	18e31a04 	addi	r3,r3,-29592
  802720:	e0bfec17 	ldw	r2,-80(fp)
  802724:	10c00015 	stw	r3,0(r2)

	_base_adress = base_adress;
  802728:	e0ffec17 	ldw	r3,-80(fp)
  80272c:	e0bfed17 	ldw	r2,-76(fp)
  802730:	18800215 	stw	r2,8(r3)
	_size_buffer = size_buffer;
  802734:	e0ffec17 	ldw	r3,-80(fp)
  802738:	e0bfef17 	ldw	r2,-68(fp)
  80273c:	18800315 	stw	r2,12(r3)
	_in_buffer = new FIFO<char>(size_buffer);
  802740:	00bfffc4 	movi	r2,-1
  802744:	e0bff115 	stw	r2,-60(fp)
  802748:	01000504 	movi	r4,20
  80274c:	0838bb40 	call	838bb4 <_Znwm>
  802750:	e0bffe15 	stw	r2,-8(fp)
  802754:	00800044 	movi	r2,1
  802758:	e0bff115 	stw	r2,-60(fp)
  80275c:	e13ffe17 	ldw	r4,-8(fp)
  802760:	e17fef17 	ldw	r5,-68(fp)
  802764:	0802ab80 	call	802ab8 <_ZN4FIFOIcEC1Ej>
  802768:	e0bfec17 	ldw	r2,-80(fp)
  80276c:	e0fffe17 	ldw	r3,-8(fp)
  802770:	10c00115 	stw	r3,4(r2)

	// init irq
	irq_context = (UART_interrupt_context*) malloc(
	    sizeof(UART_interrupt_context));
  802774:	01000204 	movi	r4,8
  802778:	08458440 	call	845844 <malloc>
  80277c:	1007883a 	mov	r3,r2
  802780:	e0bfec17 	ldw	r2,-80(fp)
  802784:	10c00415 	stw	r3,16(r2)
	irq_context->_base_adress = _base_adress;
  802788:	e0bfec17 	ldw	r2,-80(fp)
  80278c:	10c00417 	ldw	r3,16(r2)
  802790:	e0bfec17 	ldw	r2,-80(fp)
  802794:	10800217 	ldw	r2,8(r2)
  802798:	18800115 	stw	r2,4(r3)
	irq_context->_in_buffer = _in_buffer;
  80279c:	e0bfec17 	ldw	r2,-80(fp)
  8027a0:	10c00417 	ldw	r3,16(r2)
  8027a4:	e0bfec17 	ldw	r2,-80(fp)
  8027a8:	10800117 	ldw	r2,4(r2)
  8027ac:	18800015 	stw	r2,0(r3)
	alt_irq_register(irq, irq_context, _UART_receive_interrupt);
  8027b0:	e0bfec17 	ldw	r2,-80(fp)
  8027b4:	11400417 	ldw	r5,16(r2)
  8027b8:	00bfffc4 	movi	r2,-1
  8027bc:	e0bff115 	stw	r2,-60(fp)
  8027c0:	e13fee17 	ldw	r4,-72(fp)
  8027c4:	01802034 	movhi	r6,128
  8027c8:	3188bc04 	addi	r6,r6,8944
  8027cc:	08542cc0 	call	8542cc <alt_irq_register>
}
  8027d0:	00000d06 	br	802808 <_ZN4UARTC2Emmj+0x16c>
  8027d4:	e7001404 	addi	fp,fp,80
  8027d8:	e0bff217 	ldw	r2,-56(fp)
  8027dc:	e0bfff15 	stw	r2,-4(fp)
  8027e0:	e0ffff17 	ldw	r3,-4(fp)
  8027e4:	e0fffd15 	stw	r3,-12(fp)

UART::UART(unsigned long base_adress, unsigned long irq, unsigned size_buffer) {

	_base_adress = base_adress;
	_size_buffer = size_buffer;
	_in_buffer = new FIFO<char>(size_buffer);
  8027e8:	e13ffe17 	ldw	r4,-8(fp)
  8027ec:	0837aa00 	call	837aa0 <_ZdlPv>
  8027f0:	e0bffd17 	ldw	r2,-12(fp)
  8027f4:	e0bfff15 	stw	r2,-4(fp)
  8027f8:	00bfffc4 	movi	r2,-1
  8027fc:	e0bff115 	stw	r2,-60(fp)
  802800:	e13fff17 	ldw	r4,-4(fp)
  802804:	08436a00 	call	8436a0 <_Unwind_SjLj_Resume>
  802808:	e13ff004 	addi	r4,fp,-64
  80280c:	08433e40 	call	8433e4 <_Unwind_SjLj_Unregister>
	irq_context = (UART_interrupt_context*) malloc(
	    sizeof(UART_interrupt_context));
	irq_context->_base_adress = _base_adress;
	irq_context->_in_buffer = _in_buffer;
	alt_irq_register(irq, irq_context, _UART_receive_interrupt);
}
  802810:	e037883a 	mov	sp,fp
  802814:	dfc00917 	ldw	ra,36(sp)
  802818:	df000817 	ldw	fp,32(sp)
  80281c:	ddc00717 	ldw	r23,28(sp)
  802820:	dd800617 	ldw	r22,24(sp)
  802824:	dd400517 	ldw	r21,20(sp)
  802828:	dd000417 	ldw	r20,16(sp)
  80282c:	dcc00317 	ldw	r19,12(sp)
  802830:	dc800217 	ldw	r18,8(sp)
  802834:	dc400117 	ldw	r17,4(sp)
  802838:	dc000017 	ldw	r16,0(sp)
  80283c:	dec00a04 	addi	sp,sp,40
  802840:	f800283a 	ret

00802844 <_ZN4FIFOIcE7isEmptyEv>:

		virtual ~FIFO<T>() {
			delete[] _x;
		}

		bool isEmpty(void) {
  802844:	defffe04 	addi	sp,sp,-8
  802848:	df000115 	stw	fp,4(sp)
  80284c:	df000104 	addi	fp,sp,4
  802850:	e13fff15 	stw	r4,-4(fp)
			return (_r == _w);
  802854:	e0bfff17 	ldw	r2,-4(fp)
  802858:	10c00217 	ldw	r3,8(r2)
  80285c:	e0bfff17 	ldw	r2,-4(fp)
  802860:	10800317 	ldw	r2,12(r2)
  802864:	1885003a 	cmpeq	r2,r3,r2
  802868:	e037883a 	mov	sp,fp
  80286c:	df000017 	ldw	fp,0(sp)
  802870:	dec00104 	addi	sp,sp,4
  802874:	f800283a 	ret

00802878 <_ZN4FIFOIcE6isFullEv>:
		}

		bool isFull(void) {
  802878:	defffd04 	addi	sp,sp,-12
  80287c:	df000215 	stw	fp,8(sp)
  802880:	df000204 	addi	fp,sp,8
  802884:	e13ffe15 	stw	r4,-8(fp)
			return (((_r & _m) == (_w & _m)) && (_r != _w));
  802888:	e0bffe17 	ldw	r2,-8(fp)
  80288c:	10c00217 	ldw	r3,8(r2)
  802890:	e0bffe17 	ldw	r2,-8(fp)
  802894:	10800117 	ldw	r2,4(r2)
  802898:	1888703a 	and	r4,r3,r2
  80289c:	e0bffe17 	ldw	r2,-8(fp)
  8028a0:	10c00317 	ldw	r3,12(r2)
  8028a4:	e0bffe17 	ldw	r2,-8(fp)
  8028a8:	10800117 	ldw	r2,4(r2)
  8028ac:	1884703a 	and	r2,r3,r2
  8028b0:	2080081e 	bne	r4,r2,8028d4 <_ZN4FIFOIcE6isFullEv+0x5c>
  8028b4:	e0bffe17 	ldw	r2,-8(fp)
  8028b8:	10c00217 	ldw	r3,8(r2)
  8028bc:	e0bffe17 	ldw	r2,-8(fp)
  8028c0:	10800317 	ldw	r2,12(r2)
  8028c4:	18800326 	beq	r3,r2,8028d4 <_ZN4FIFOIcE6isFullEv+0x5c>
  8028c8:	00800044 	movi	r2,1
  8028cc:	e0bfff05 	stb	r2,-4(fp)
  8028d0:	00000106 	br	8028d8 <_ZN4FIFOIcE6isFullEv+0x60>
  8028d4:	e03fff05 	stb	zero,-4(fp)
  8028d8:	e0bfff03 	ldbu	r2,-4(fp)
  8028dc:	e037883a 	mov	sp,fp
  8028e0:	df000017 	ldw	fp,0(sp)
  8028e4:	dec00104 	addi	sp,sp,4
  8028e8:	f800283a 	ret

008028ec <_ZN4FIFOIcE4lockEv>:
		FIFO<T>& flush(void) {
			_r = _w = 0;
			return *this;
		}

		virtual void lock(void) {
  8028ec:	defffe04 	addi	sp,sp,-8
  8028f0:	df000115 	stw	fp,4(sp)
  8028f4:	df000104 	addi	fp,sp,4
  8028f8:	e13fff15 	stw	r4,-4(fp)
			;
  8028fc:	e037883a 	mov	sp,fp
  802900:	df000017 	ldw	fp,0(sp)
  802904:	dec00104 	addi	sp,sp,4
  802908:	f800283a 	ret

0080290c <_ZN4FIFOIcE6unlockEv>:
		}

		virtual void unlock(void) {
  80290c:	defffe04 	addi	sp,sp,-8
  802910:	df000115 	stw	fp,4(sp)
  802914:	df000104 	addi	fp,sp,4
  802918:	e13fff15 	stw	r4,-4(fp)
			;
  80291c:	e037883a 	mov	sp,fp
  802920:	df000017 	ldw	fp,0(sp)
  802924:	dec00104 	addi	sp,sp,4
  802928:	f800283a 	ret

0080292c <_ZN4FIFOIcE22_triggerEmptyConditionEv>:

		void _triggerFullCondition(void) {
			throw "FIFO is full"; /* XXX FullFIFOException */
		}

		void _triggerEmptyCondition(void) {
  80292c:	defffd04 	addi	sp,sp,-12
  802930:	dfc00215 	stw	ra,8(sp)
  802934:	df000115 	stw	fp,4(sp)
  802938:	df000104 	addi	fp,sp,4
  80293c:	e13fff15 	stw	r4,-4(fp)
			throw "FIFO is empty"; /*XXX EmptyFIFOException */
  802940:	01000104 	movi	r4,4
  802944:	0838e800 	call	838e80 <__cxa_allocate_exception>
  802948:	1009883a 	mov	r4,r2
  80294c:	2007883a 	mov	r3,r4
  802950:	008021b4 	movhi	r2,134
  802954:	10a30904 	addi	r2,r2,-29660
  802958:	18800015 	stw	r2,0(r3)
  80295c:	014021b4 	movhi	r5,134
  802960:	29683f04 	addi	r5,r5,-24324
  802964:	000d883a 	mov	r6,zero
  802968:	0836ef80 	call	836ef8 <__cxa_throw>

0080296c <_ZN4FIFOIcE4pullEv>:
			_w++;

			return *this;
		}

		T pull(void) {
  80296c:	defffc04 	addi	sp,sp,-16
  802970:	dfc00315 	stw	ra,12(sp)
  802974:	df000215 	stw	fp,8(sp)
  802978:	df000204 	addi	fp,sp,8
  80297c:	e13fff15 	stw	r4,-4(fp)
			if (isEmpty())
  802980:	e13fff17 	ldw	r4,-4(fp)
  802984:	08028440 	call	802844 <_ZN4FIFOIcE7isEmptyEv>
  802988:	10803fcc 	andi	r2,r2,255
  80298c:	1005003a 	cmpeq	r2,r2,zero
  802990:	1000021e 	bne	r2,zero,80299c <_ZN4FIFOIcE4pullEv+0x30>
				_triggerEmptyCondition();
  802994:	e13fff17 	ldw	r4,-4(fp)
  802998:	080292c0 	call	80292c <_ZN4FIFOIcE22_triggerEmptyConditionEv>

			T rv = _x[_r & _m];
  80299c:	e0bfff17 	ldw	r2,-4(fp)
  8029a0:	11000417 	ldw	r4,16(r2)
  8029a4:	e0bfff17 	ldw	r2,-4(fp)
  8029a8:	10c00217 	ldw	r3,8(r2)
  8029ac:	e0bfff17 	ldw	r2,-4(fp)
  8029b0:	10800117 	ldw	r2,4(r2)
  8029b4:	1884703a 	and	r2,r3,r2
  8029b8:	2085883a 	add	r2,r4,r2
  8029bc:	10800003 	ldbu	r2,0(r2)
  8029c0:	e0bffe05 	stb	r2,-8(fp)
			_r++;
  8029c4:	e0bfff17 	ldw	r2,-4(fp)
  8029c8:	10800217 	ldw	r2,8(r2)
  8029cc:	10c00044 	addi	r3,r2,1
  8029d0:	e0bfff17 	ldw	r2,-4(fp)
  8029d4:	10c00215 	stw	r3,8(r2)

			return rv;
  8029d8:	e0bffe07 	ldb	r2,-8(fp)
  8029dc:	e037883a 	mov	sp,fp
  8029e0:	dfc00117 	ldw	ra,4(sp)
  8029e4:	df000017 	ldw	fp,0(sp)
  8029e8:	dec00204 	addi	sp,sp,8
  8029ec:	f800283a 	ret

008029f0 <_ZN4FIFOIcE21_triggerFullConditionEv>:
		unsigned _m; /* counter mask (= depth - 1) */
		unsigned _r; /* read offset in units of T  */
		unsigned _w; /* write offset in units of T */
		T* _x;

		void _triggerFullCondition(void) {
  8029f0:	defffd04 	addi	sp,sp,-12
  8029f4:	dfc00215 	stw	ra,8(sp)
  8029f8:	df000115 	stw	fp,4(sp)
  8029fc:	df000104 	addi	fp,sp,4
  802a00:	e13fff15 	stw	r4,-4(fp)
			throw "FIFO is full"; /* XXX FullFIFOException */
  802a04:	01000104 	movi	r4,4
  802a08:	0838e800 	call	838e80 <__cxa_allocate_exception>
  802a0c:	1009883a 	mov	r4,r2
  802a10:	2007883a 	mov	r3,r4
  802a14:	008021b4 	movhi	r2,134
  802a18:	10a30d04 	addi	r2,r2,-29644
  802a1c:	18800015 	stw	r2,0(r3)
  802a20:	014021b4 	movhi	r5,134
  802a24:	29683f04 	addi	r5,r5,-24324
  802a28:	000d883a 	mov	r6,zero
  802a2c:	0836ef80 	call	836ef8 <__cxa_throw>

00802a30 <_ZN4FIFOIcE4pushEc>:

		bool isFull(void) {
			return (((_r & _m) == (_w & _m)) && (_r != _w));
		}

		FIFO<T>& push(T val) {
  802a30:	defffc04 	addi	sp,sp,-16
  802a34:	dfc00315 	stw	ra,12(sp)
  802a38:	df000215 	stw	fp,8(sp)
  802a3c:	df000204 	addi	fp,sp,8
  802a40:	e13ffe15 	stw	r4,-8(fp)
  802a44:	e17fff05 	stb	r5,-4(fp)
			if (isFull())
  802a48:	e13ffe17 	ldw	r4,-8(fp)
  802a4c:	08028780 	call	802878 <_ZN4FIFOIcE6isFullEv>
  802a50:	10803fcc 	andi	r2,r2,255
  802a54:	1005003a 	cmpeq	r2,r2,zero
  802a58:	1000021e 	bne	r2,zero,802a64 <_ZN4FIFOIcE4pushEc+0x34>
				_triggerFullCondition();
  802a5c:	e13ffe17 	ldw	r4,-8(fp)
  802a60:	08029f00 	call	8029f0 <_ZN4FIFOIcE21_triggerFullConditionEv>

			_x[_w & _m] = val;
  802a64:	e0bffe17 	ldw	r2,-8(fp)
  802a68:	11000417 	ldw	r4,16(r2)
  802a6c:	e0bffe17 	ldw	r2,-8(fp)
  802a70:	10c00317 	ldw	r3,12(r2)
  802a74:	e0bffe17 	ldw	r2,-8(fp)
  802a78:	10800117 	ldw	r2,4(r2)
  802a7c:	1884703a 	and	r2,r3,r2
  802a80:	2087883a 	add	r3,r4,r2
  802a84:	e0bfff03 	ldbu	r2,-4(fp)
  802a88:	18800005 	stb	r2,0(r3)
			_w++;
  802a8c:	e0bffe17 	ldw	r2,-8(fp)
  802a90:	10800317 	ldw	r2,12(r2)
  802a94:	10c00044 	addi	r3,r2,1
  802a98:	e0bffe17 	ldw	r2,-8(fp)
  802a9c:	10c00315 	stw	r3,12(r2)

			return *this;
  802aa0:	e0bffe17 	ldw	r2,-8(fp)
  802aa4:	e037883a 	mov	sp,fp
  802aa8:	dfc00117 	ldw	ra,4(sp)
  802aac:	df000017 	ldw	fp,0(sp)
  802ab0:	dec00204 	addi	sp,sp,8
  802ab4:	f800283a 	ret

00802ab8 <_ZN4FIFOIcEC1Ej>:
template<class T>
class FIFO {

	public:

		FIFO<T>(unsigned depth = 1024) :
  802ab8:	defffc04 	addi	sp,sp,-16
  802abc:	dfc00315 	stw	ra,12(sp)
  802ac0:	df000215 	stw	fp,8(sp)
  802ac4:	df000204 	addi	fp,sp,8
  802ac8:	e13ffe15 	stw	r4,-8(fp)
  802acc:	e17fff15 	stw	r5,-4(fp)
				_m(depth - 1) {
  802ad0:	00c021b4 	movhi	r3,134
  802ad4:	18e31e04 	addi	r3,r3,-29576
  802ad8:	e0bffe17 	ldw	r2,-8(fp)
  802adc:	10c00015 	stw	r3,0(r2)
  802ae0:	e0bfff17 	ldw	r2,-4(fp)
  802ae4:	10ffffc4 	addi	r3,r2,-1
  802ae8:	e0bffe17 	ldw	r2,-8(fp)
  802aec:	10c00115 	stw	r3,4(r2)
			if ((depth < 2) || (depth & _m))
  802af0:	e0bfff17 	ldw	r2,-4(fp)
  802af4:	108000b0 	cmpltui	r2,r2,2
  802af8:	1000061e 	bne	r2,zero,802b14 <_ZN4FIFOIcEC1Ej+0x5c>
  802afc:	e0bffe17 	ldw	r2,-8(fp)
  802b00:	10c00117 	ldw	r3,4(r2)
  802b04:	e0bfff17 	ldw	r2,-4(fp)
  802b08:	1884703a 	and	r2,r3,r2
  802b0c:	1005003a 	cmpeq	r2,r2,zero
  802b10:	10000b1e 	bne	r2,zero,802b40 <_ZN4FIFOIcEC1Ej+0x88>
				throw("depth must be a power of 2"); /* XXX InvalidFIFODepthException */
  802b14:	01000104 	movi	r4,4
  802b18:	0838e800 	call	838e80 <__cxa_allocate_exception>
  802b1c:	1009883a 	mov	r4,r2
  802b20:	2007883a 	mov	r3,r4
  802b24:	008021b4 	movhi	r2,134
  802b28:	10a31104 	addi	r2,r2,-29628
  802b2c:	18800015 	stw	r2,0(r3)
  802b30:	014021b4 	movhi	r5,134
  802b34:	29683f04 	addi	r5,r5,-24324
  802b38:	000d883a 	mov	r6,zero
  802b3c:	0836ef80 	call	836ef8 <__cxa_throw>

			_x = new T[depth];
  802b40:	e13fff17 	ldw	r4,-4(fp)
  802b44:	083781c0 	call	83781c <_Znam>
  802b48:	1007883a 	mov	r3,r2
  802b4c:	e0bffe17 	ldw	r2,-8(fp)
  802b50:	10c00415 	stw	r3,16(r2)
			_r = 0;
  802b54:	e0bffe17 	ldw	r2,-8(fp)
  802b58:	10000215 	stw	zero,8(r2)
			_w = 0;
  802b5c:	e0bffe17 	ldw	r2,-8(fp)
  802b60:	10000315 	stw	zero,12(r2)
  802b64:	e037883a 	mov	sp,fp
  802b68:	dfc00117 	ldw	ra,4(sp)
  802b6c:	df000017 	ldw	fp,0(sp)
  802b70:	dec00204 	addi	sp,sp,8
  802b74:	f800283a 	ret

00802b78 <_ZN4FIFOIcED0Ev>:
		}

		virtual ~FIFO<T>() {
  802b78:	defffd04 	addi	sp,sp,-12
  802b7c:	dfc00215 	stw	ra,8(sp)
  802b80:	df000115 	stw	fp,4(sp)
  802b84:	df000104 	addi	fp,sp,4
  802b88:	e13fff15 	stw	r4,-4(fp)
			delete[] _x;
		}
  802b8c:	00c021b4 	movhi	r3,134
  802b90:	18e31e04 	addi	r3,r3,-29576
  802b94:	e0bfff17 	ldw	r2,-4(fp)
  802b98:	10c00015 	stw	r3,0(r2)
			_r = 0;
			_w = 0;
		}

		virtual ~FIFO<T>() {
			delete[] _x;
  802b9c:	e0bfff17 	ldw	r2,-4(fp)
  802ba0:	10800417 	ldw	r2,16(r2)
  802ba4:	1005003a 	cmpeq	r2,r2,zero
  802ba8:	1000031e 	bne	r2,zero,802bb8 <_ZN4FIFOIcED0Ev+0x40>
  802bac:	e0bfff17 	ldw	r2,-4(fp)
  802bb0:	11000417 	ldw	r4,16(r2)
  802bb4:	0837aac0 	call	837aac <_ZdaPv>
  802bb8:	00800044 	movi	r2,1
  802bbc:	10803fcc 	andi	r2,r2,255
  802bc0:	1005003a 	cmpeq	r2,r2,zero
  802bc4:	1000021e 	bne	r2,zero,802bd0 <_ZN4FIFOIcED0Ev+0x58>
  802bc8:	e13fff17 	ldw	r4,-4(fp)
  802bcc:	0837aa00 	call	837aa0 <_ZdlPv>
  802bd0:	e037883a 	mov	sp,fp
  802bd4:	dfc00117 	ldw	ra,4(sp)
  802bd8:	df000017 	ldw	fp,0(sp)
  802bdc:	dec00204 	addi	sp,sp,8
  802be0:	f800283a 	ret

00802be4 <_ZN4FIFOIcED1Ev>:
			_x = new T[depth];
			_r = 0;
			_w = 0;
		}

		virtual ~FIFO<T>() {
  802be4:	defffd04 	addi	sp,sp,-12
  802be8:	dfc00215 	stw	ra,8(sp)
  802bec:	df000115 	stw	fp,4(sp)
  802bf0:	df000104 	addi	fp,sp,4
  802bf4:	e13fff15 	stw	r4,-4(fp)
			delete[] _x;
		}
  802bf8:	00c021b4 	movhi	r3,134
  802bfc:	18e31e04 	addi	r3,r3,-29576
  802c00:	e0bfff17 	ldw	r2,-4(fp)
  802c04:	10c00015 	stw	r3,0(r2)
			_r = 0;
			_w = 0;
		}

		virtual ~FIFO<T>() {
			delete[] _x;
  802c08:	e0bfff17 	ldw	r2,-4(fp)
  802c0c:	10800417 	ldw	r2,16(r2)
  802c10:	1005003a 	cmpeq	r2,r2,zero
  802c14:	1000031e 	bne	r2,zero,802c24 <_ZN4FIFOIcED1Ev+0x40>
  802c18:	e0bfff17 	ldw	r2,-4(fp)
  802c1c:	11000417 	ldw	r4,16(r2)
  802c20:	0837aac0 	call	837aac <_ZdaPv>
  802c24:	0005883a 	mov	r2,zero
  802c28:	10803fcc 	andi	r2,r2,255
  802c2c:	1005003a 	cmpeq	r2,r2,zero
  802c30:	1000021e 	bne	r2,zero,802c3c <_ZN4FIFOIcED1Ev+0x58>
  802c34:	e13fff17 	ldw	r4,-4(fp)
  802c38:	0837aa00 	call	837aa0 <_ZdlPv>
  802c3c:	e037883a 	mov	sp,fp
  802c40:	dfc00117 	ldw	ra,4(sp)
  802c44:	df000017 	ldw	fp,0(sp)
  802c48:	dec00204 	addi	sp,sp,8
  802c4c:	f800283a 	ret

00802c50 <main>:
#include "system.h"
#include "FSM.h"
#include "stdio.h"

int main() {
  802c50:	deffe104 	addi	sp,sp,-124
  802c54:	dfc01e15 	stw	ra,120(sp)
  802c58:	df001d15 	stw	fp,116(sp)
  802c5c:	ddc01c15 	stw	r23,112(sp)
  802c60:	dd801b15 	stw	r22,108(sp)
  802c64:	dd401a15 	stw	r21,104(sp)
  802c68:	dd001915 	stw	r20,100(sp)
  802c6c:	dcc01815 	stw	r19,96(sp)
  802c70:	dc801715 	stw	r18,92(sp)
  802c74:	dc401615 	stw	r17,88(sp)
  802c78:	dc001515 	stw	r16,84(sp)
  802c7c:	df001504 	addi	fp,sp,84
  802c80:	00802134 	movhi	r2,132
  802c84:	10a08504 	addi	r2,r2,-32236
  802c88:	e0bff315 	stw	r2,-52(fp)
  802c8c:	00802174 	movhi	r2,133
  802c90:	109e6f04 	addi	r2,r2,31164
  802c94:	e0bff415 	stw	r2,-48(fp)
  802c98:	e0bff504 	addi	r2,fp,-44
  802c9c:	e0ffeb04 	addi	r3,fp,-84
  802ca0:	10c00015 	stw	r3,0(r2)
  802ca4:	00c02034 	movhi	r3,128
  802ca8:	18cb5e04 	addi	r3,r3,11640
  802cac:	10c00115 	stw	r3,4(r2)
  802cb0:	16c00215 	stw	sp,8(r2)
  802cb4:	e13fed04 	addi	r4,fp,-76
  802cb8:	08433d40 	call	8433d4 <_Unwind_SjLj_Register>
	FSM* fsm = new FSM();
  802cbc:	00bfffc4 	movi	r2,-1
  802cc0:	e0bfee15 	stw	r2,-72(fp)
  802cc4:	01000e04 	movi	r4,56
  802cc8:	0838bb40 	call	838bb4 <_Znwm>
  802ccc:	e0bffc15 	stw	r2,-16(fp)
  802cd0:	008000c4 	movi	r2,3
  802cd4:	e0bfee15 	stw	r2,-72(fp)
  802cd8:	e13ffc17 	ldw	r4,-16(fp)
  802cdc:	08002180 	call	800218 <_ZN3FSMC1Ev>
  802ce0:	e0bffc17 	ldw	r2,-16(fp)
  802ce4:	e0bfec15 	stw	r2,-80(fp)
  802ce8:	00000a06 	br	802d14 <main+0xc4>
  802cec:	e0fffe17 	ldw	r3,-8(fp)
  802cf0:	e0fffb15 	stw	r3,-20(fp)
  802cf4:	e13ffc17 	ldw	r4,-16(fp)
  802cf8:	0837aa00 	call	837aa0 <_ZdlPv>
  802cfc:	e0bffb17 	ldw	r2,-20(fp)
  802d00:	e0bffe15 	stw	r2,-8(fp)
  802d04:	00bfffc4 	movi	r2,-1
  802d08:	e0bfee15 	stw	r2,-72(fp)
  802d0c:	e13ffe17 	ldw	r4,-8(fp)
  802d10:	08436a00 	call	8436a0 <_Unwind_SjLj_Resume>
	while (1) {
		try {
			fsm->action();
  802d14:	00800084 	movi	r2,2
  802d18:	e0bfee15 	stw	r2,-72(fp)
  802d1c:	e13fec17 	ldw	r4,-80(fp)
  802d20:	08010800 	call	801080 <_ZN3FSM6actionEv>
			fsm->transition();
  802d24:	e13fec17 	ldw	r4,-80(fp)
  802d28:	08002500 	call	800250 <_ZN3FSM10transitionEv>
  802d2c:	003ff906 	br	802d14 <main+0xc4>
  802d30:	e0fffd17 	ldw	r3,-12(fp)
  802d34:	18800060 	cmpeqi	r2,r3,1
  802d38:	1000041e 	bne	r2,zero,802d4c <main+0xfc>
  802d3c:	00bfffc4 	movi	r2,-1
  802d40:	e0bfee15 	stw	r2,-72(fp)
  802d44:	e13ffe17 	ldw	r4,-8(fp)
  802d48:	08436a00 	call	8436a0 <_Unwind_SjLj_Resume>
		} catch (const char* msg) {
  802d4c:	e13ffe17 	ldw	r4,-8(fp)
  802d50:	08379880 	call	837988 <__cxa_begin_catch>
  802d54:	e0bfeb15 	stw	r2,-84(fp)
			printf("%s\r\n", msg);
  802d58:	00800044 	movi	r2,1
  802d5c:	e0bfee15 	stw	r2,-72(fp)
  802d60:	010021b4 	movhi	r4,134
  802d64:	21232504 	addi	r4,r4,-29548
  802d68:	e17feb17 	ldw	r5,-84(fp)
  802d6c:	08463800 	call	846380 <printf>
	FSM* fsm = new FSM();
	while (1) {
		try {
			fsm->action();
			fsm->transition();
		} catch (const char* msg) {
  802d70:	08378e40 	call	8378e4 <__cxa_end_catch>
  802d74:	003fe706 	br	802d14 <main+0xc4>
  802d78:	e7001504 	addi	fp,fp,84
  802d7c:	e0bfee17 	ldw	r2,-72(fp)
  802d80:	e0bfff15 	stw	r2,-4(fp)
  802d84:	e0ffef17 	ldw	r3,-68(fp)
  802d88:	e0fffe15 	stw	r3,-8(fp)
  802d8c:	e0bff017 	ldw	r2,-64(fp)
  802d90:	e0bffd15 	stw	r2,-12(fp)
  802d94:	e0ffff17 	ldw	r3,-4(fp)
  802d98:	18800060 	cmpeqi	r2,r3,1
  802d9c:	103fe41e 	bne	r2,zero,802d30 <main+0xe0>
  802da0:	e0ffff17 	ldw	r3,-4(fp)
  802da4:	188000a0 	cmpeqi	r2,r3,2
  802da8:	103fd01e 	bne	r2,zero,802cec <main+0x9c>
  802dac:	e0bffe17 	ldw	r2,-8(fp)
  802db0:	e0bffa15 	stw	r2,-24(fp)
  802db4:	08378e40 	call	8378e4 <__cxa_end_catch>
  802db8:	e0fffa17 	ldw	r3,-24(fp)
  802dbc:	e0fffe15 	stw	r3,-8(fp)
  802dc0:	00bfffc4 	movi	r2,-1
  802dc4:	e0bfee15 	stw	r2,-72(fp)
  802dc8:	e13ffe17 	ldw	r4,-8(fp)
  802dcc:	08436a00 	call	8436a0 <_Unwind_SjLj_Resume>

00802dd0 <_ZNSt8ios_base4InitD1Ev>:
  802dd0:	deffe904 	addi	sp,sp,-92
  802dd4:	00802134 	movhi	r2,132
  802dd8:	10a08504 	addi	r2,r2,-32236
  802ddc:	00c02174 	movhi	r3,133
  802de0:	18de7404 	addi	r3,r3,31184
  802de4:	d8800615 	stw	r2,24(sp)
  802de8:	d809883a 	mov	r4,sp
  802dec:	00802034 	movhi	r2,128
  802df0:	108bad04 	addi	r2,r2,11956
  802df4:	d8c00715 	stw	r3,28(sp)
  802df8:	dfc01615 	stw	ra,88(sp)
  802dfc:	d8800915 	stw	r2,36(sp)
  802e00:	df001515 	stw	fp,84(sp)
  802e04:	ddc01415 	stw	r23,80(sp)
  802e08:	dd801315 	stw	r22,76(sp)
  802e0c:	dd401215 	stw	r21,72(sp)
  802e10:	dd001115 	stw	r20,68(sp)
  802e14:	dcc01015 	stw	r19,64(sp)
  802e18:	dc800f15 	stw	r18,60(sp)
  802e1c:	dc400e15 	stw	r17,56(sp)
  802e20:	dc000d15 	stw	r16,52(sp)
  802e24:	dec00815 	stw	sp,32(sp)
  802e28:	dec00a15 	stw	sp,40(sp)
  802e2c:	08433d40 	call	8433d4 <_Unwind_SjLj_Register>
  802e30:	017fffc4 	movi	r5,-1
  802e34:	010021b4 	movhi	r4,134
  802e38:	213c5704 	addi	r4,r4,-3748
  802e3c:	d9400115 	stw	r5,4(sp)
  802e40:	08355740 	call	835574 <_ZN9__gnu_cxx18__exchange_and_addEPVii>
  802e44:	00c00084 	movi	r3,2
  802e48:	10c00e26 	beq	r2,r3,802e84 <_ZNSt8ios_base4InitD1Ev+0xb4>
  802e4c:	d809883a 	mov	r4,sp
  802e50:	08433e40 	call	8433e4 <_Unwind_SjLj_Unregister>
  802e54:	dfc01617 	ldw	ra,88(sp)
  802e58:	df001517 	ldw	fp,84(sp)
  802e5c:	ddc01417 	ldw	r23,80(sp)
  802e60:	dd801317 	ldw	r22,76(sp)
  802e64:	dd401217 	ldw	r21,72(sp)
  802e68:	dd001117 	ldw	r20,68(sp)
  802e6c:	dcc01017 	ldw	r19,64(sp)
  802e70:	dc800f17 	ldw	r18,60(sp)
  802e74:	dc400e17 	ldw	r17,56(sp)
  802e78:	dc000d17 	ldw	r16,52(sp)
  802e7c:	dec01704 	addi	sp,sp,92
  802e80:	f800283a 	ret
  802e84:	00800044 	movi	r2,1
  802e88:	d8800115 	stw	r2,4(sp)
  802e8c:	010021b4 	movhi	r4,134
  802e90:	213fca04 	addi	r4,r4,-216
  802e94:	082c9c40 	call	82c9c4 <_ZNSo5flushEv>
  802e98:	010021b4 	movhi	r4,134
  802e9c:	213fed04 	addi	r4,r4,-76
  802ea0:	082c9c40 	call	82c9c4 <_ZNSo5flushEv>
  802ea4:	010021b4 	movhi	r4,134
  802ea8:	21001004 	addi	r4,r4,64
  802eac:	082c9c40 	call	82c9c4 <_ZNSo5flushEv>
  802eb0:	003fe606 	br	802e4c <_ZNSt8ios_base4InitD1Ev+0x7c>
  802eb4:	d9000217 	ldw	r4,8(sp)
  802eb8:	08379880 	call	837988 <__cxa_begin_catch>
  802ebc:	d8000115 	stw	zero,4(sp)
  802ec0:	08378e40 	call	8378e4 <__cxa_end_catch>
  802ec4:	003fe106 	br	802e4c <_ZNSt8ios_base4InitD1Ev+0x7c>

00802ec8 <_ZNSt8ios_base4InitD2Ev>:
  802ec8:	deffe904 	addi	sp,sp,-92
  802ecc:	00802134 	movhi	r2,132
  802ed0:	10a08504 	addi	r2,r2,-32236
  802ed4:	00c02174 	movhi	r3,133
  802ed8:	18de7804 	addi	r3,r3,31200
  802edc:	d8800615 	stw	r2,24(sp)
  802ee0:	d809883a 	mov	r4,sp
  802ee4:	00802034 	movhi	r2,128
  802ee8:	108beb04 	addi	r2,r2,12204
  802eec:	d8c00715 	stw	r3,28(sp)
  802ef0:	dfc01615 	stw	ra,88(sp)
  802ef4:	d8800915 	stw	r2,36(sp)
  802ef8:	df001515 	stw	fp,84(sp)
  802efc:	ddc01415 	stw	r23,80(sp)
  802f00:	dd801315 	stw	r22,76(sp)
  802f04:	dd401215 	stw	r21,72(sp)
  802f08:	dd001115 	stw	r20,68(sp)
  802f0c:	dcc01015 	stw	r19,64(sp)
  802f10:	dc800f15 	stw	r18,60(sp)
  802f14:	dc400e15 	stw	r17,56(sp)
  802f18:	dc000d15 	stw	r16,52(sp)
  802f1c:	dec00815 	stw	sp,32(sp)
  802f20:	dec00a15 	stw	sp,40(sp)
  802f24:	08433d40 	call	8433d4 <_Unwind_SjLj_Register>
  802f28:	017fffc4 	movi	r5,-1
  802f2c:	010021b4 	movhi	r4,134
  802f30:	213c5704 	addi	r4,r4,-3748
  802f34:	d9400115 	stw	r5,4(sp)
  802f38:	08355740 	call	835574 <_ZN9__gnu_cxx18__exchange_and_addEPVii>
  802f3c:	00c00084 	movi	r3,2
  802f40:	10c00e26 	beq	r2,r3,802f7c <_ZNSt8ios_base4InitD2Ev+0xb4>
  802f44:	d809883a 	mov	r4,sp
  802f48:	08433e40 	call	8433e4 <_Unwind_SjLj_Unregister>
  802f4c:	dfc01617 	ldw	ra,88(sp)
  802f50:	df001517 	ldw	fp,84(sp)
  802f54:	ddc01417 	ldw	r23,80(sp)
  802f58:	dd801317 	ldw	r22,76(sp)
  802f5c:	dd401217 	ldw	r21,72(sp)
  802f60:	dd001117 	ldw	r20,68(sp)
  802f64:	dcc01017 	ldw	r19,64(sp)
  802f68:	dc800f17 	ldw	r18,60(sp)
  802f6c:	dc400e17 	ldw	r17,56(sp)
  802f70:	dc000d17 	ldw	r16,52(sp)
  802f74:	dec01704 	addi	sp,sp,92
  802f78:	f800283a 	ret
  802f7c:	00800044 	movi	r2,1
  802f80:	d8800115 	stw	r2,4(sp)
  802f84:	010021b4 	movhi	r4,134
  802f88:	213fca04 	addi	r4,r4,-216
  802f8c:	082c9c40 	call	82c9c4 <_ZNSo5flushEv>
  802f90:	010021b4 	movhi	r4,134
  802f94:	213fed04 	addi	r4,r4,-76
  802f98:	082c9c40 	call	82c9c4 <_ZNSo5flushEv>
  802f9c:	010021b4 	movhi	r4,134
  802fa0:	21001004 	addi	r4,r4,64
  802fa4:	082c9c40 	call	82c9c4 <_ZNSo5flushEv>
  802fa8:	003fe606 	br	802f44 <_ZNSt8ios_base4InitD2Ev+0x7c>
  802fac:	d9000217 	ldw	r4,8(sp)
  802fb0:	08379880 	call	837988 <__cxa_begin_catch>
  802fb4:	d8000115 	stw	zero,4(sp)
  802fb8:	08378e40 	call	8378e4 <__cxa_end_catch>
  802fbc:	003fe106 	br	802f44 <_ZNSt8ios_base4InitD2Ev+0x7c>

00802fc0 <_ZNSt8ios_base4InitC2Ev>:
  802fc0:	deffec04 	addi	sp,sp,-80
  802fc4:	00802134 	movhi	r2,132
  802fc8:	10a08504 	addi	r2,r2,-32236
  802fcc:	d8800615 	stw	r2,24(sp)
  802fd0:	00c02174 	movhi	r3,133
  802fd4:	18de7c04 	addi	r3,r3,31216
  802fd8:	00802034 	movhi	r2,128
  802fdc:	108ce704 	addi	r2,r2,13212
  802fe0:	d809883a 	mov	r4,sp
  802fe4:	d8800915 	stw	r2,36(sp)
  802fe8:	dfc01315 	stw	ra,76(sp)
  802fec:	df001215 	stw	fp,72(sp)
  802ff0:	ddc01115 	stw	r23,68(sp)
  802ff4:	d8c00715 	stw	r3,28(sp)
  802ff8:	dec00815 	stw	sp,32(sp)
  802ffc:	dec00a15 	stw	sp,40(sp)
  803000:	08433d40 	call	8433d4 <_Unwind_SjLj_Register>
  803004:	00bfffc4 	movi	r2,-1
  803008:	010021b4 	movhi	r4,134
  80300c:	213c5704 	addi	r4,r4,-3748
  803010:	01400044 	movi	r5,1
  803014:	d8800115 	stw	r2,4(sp)
  803018:	08355740 	call	835574 <_ZN9__gnu_cxx18__exchange_and_addEPVii>
  80301c:	10000726 	beq	r2,zero,80303c <_ZNSt8ios_base4InitC2Ev+0x7c>
  803020:	d809883a 	mov	r4,sp
  803024:	08433e40 	call	8433e4 <_Unwind_SjLj_Unregister>
  803028:	dfc01317 	ldw	ra,76(sp)
  80302c:	df001217 	ldw	fp,72(sp)
  803030:	ddc01117 	ldw	r23,68(sp)
  803034:	dec01404 	addi	sp,sp,80
  803038:	f800283a 	ret
  80303c:	00c021b4 	movhi	r3,134
  803040:	18f44f04 	addi	r3,r3,-11972
  803044:	18800017 	ldw	r2,0(r3)
  803048:	00c00044 	movi	r3,1
  80304c:	10800217 	ldw	r2,8(r2)
  803050:	d8800f15 	stw	r2,60(sp)
  803054:	008021b4 	movhi	r2,134
  803058:	10803304 	addi	r2,r2,204
  80305c:	11000704 	addi	r4,r2,28
  803060:	008021b4 	movhi	r2,134
  803064:	10b44604 	addi	r2,r2,-12008
  803068:	10c00005 	stb	r3,0(r2)
  80306c:	008021b4 	movhi	r2,134
  803070:	10803304 	addi	r2,r2,204
  803074:	00c021b4 	movhi	r3,134
  803078:	18e67b04 	addi	r3,r3,-26132
  80307c:	10c00015 	stw	r3,0(r2)
  803080:	10000115 	stw	zero,4(r2)
  803084:	10000215 	stw	zero,8(r2)
  803088:	10000315 	stw	zero,12(r2)
  80308c:	10000415 	stw	zero,16(r2)
  803090:	10000515 	stw	zero,20(r2)
  803094:	10000615 	stw	zero,24(r2)
  803098:	0806b080 	call	806b08 <_ZNSt6localeC1Ev>
  80309c:	d8c00f17 	ldw	r3,60(sp)
  8030a0:	010021b4 	movhi	r4,134
  8030a4:	21344f04 	addi	r4,r4,-11972
  8030a8:	20800017 	ldw	r2,0(r4)
  8030ac:	010021b4 	movhi	r4,134
  8030b0:	21003304 	addi	r4,r4,204
  8030b4:	20c00815 	stw	r3,32(r4)
  8030b8:	10800117 	ldw	r2,4(r2)
  8030bc:	00c021b4 	movhi	r3,134
  8030c0:	18c03304 	addi	r3,r3,204
  8030c4:	d8800e15 	stw	r2,56(sp)
  8030c8:	008021b4 	movhi	r2,134
  8030cc:	10803d04 	addi	r2,r2,244
  8030d0:	11000704 	addi	r4,r2,28
  8030d4:	008021b4 	movhi	r2,134
  8030d8:	10a64a04 	addi	r2,r2,-26328
  8030dc:	18800015 	stw	r2,0(r3)
  8030e0:	00bfffc4 	movi	r2,-1
  8030e4:	18800915 	stw	r2,36(r3)
  8030e8:	00c021b4 	movhi	r3,134
  8030ec:	18c03d04 	addi	r3,r3,244
  8030f0:	008021b4 	movhi	r2,134
  8030f4:	10a67b04 	addi	r2,r2,-26132
  8030f8:	18800015 	stw	r2,0(r3)
  8030fc:	18000115 	stw	zero,4(r3)
  803100:	18000215 	stw	zero,8(r3)
  803104:	18000315 	stw	zero,12(r3)
  803108:	18000415 	stw	zero,16(r3)
  80310c:	18000515 	stw	zero,20(r3)
  803110:	18000615 	stw	zero,24(r3)
  803114:	0806b080 	call	806b08 <_ZNSt6localeC1Ev>
  803118:	00c021b4 	movhi	r3,134
  80311c:	18f44f04 	addi	r3,r3,-11972
  803120:	d9000e17 	ldw	r4,56(sp)
  803124:	18800017 	ldw	r2,0(r3)
  803128:	00c021b4 	movhi	r3,134
  80312c:	18c03d04 	addi	r3,r3,244
  803130:	19000815 	stw	r4,32(r3)
  803134:	10800317 	ldw	r2,12(r2)
  803138:	d8800d15 	stw	r2,52(sp)
  80313c:	008021b4 	movhi	r2,134
  803140:	10804704 	addi	r2,r2,284
  803144:	11000704 	addi	r4,r2,28
  803148:	00bfffc4 	movi	r2,-1
  80314c:	18800915 	stw	r2,36(r3)
  803150:	008021b4 	movhi	r2,134
  803154:	10a67b04 	addi	r2,r2,-26132
  803158:	00c021b4 	movhi	r3,134
  80315c:	18c04704 	addi	r3,r3,284
  803160:	18800015 	stw	r2,0(r3)
  803164:	008021b4 	movhi	r2,134
  803168:	10a64a04 	addi	r2,r2,-26328
  80316c:	00c021b4 	movhi	r3,134
  803170:	18c03d04 	addi	r3,r3,244
  803174:	18800015 	stw	r2,0(r3)
  803178:	00c021b4 	movhi	r3,134
  80317c:	18c04704 	addi	r3,r3,284
  803180:	18000115 	stw	zero,4(r3)
  803184:	18000215 	stw	zero,8(r3)
  803188:	18000315 	stw	zero,12(r3)
  80318c:	18000415 	stw	zero,16(r3)
  803190:	18000515 	stw	zero,20(r3)
  803194:	18000615 	stw	zero,24(r3)
  803198:	0806b080 	call	806b08 <_ZNSt6localeC1Ev>
  80319c:	00bfffc4 	movi	r2,-1
  8031a0:	010021b4 	movhi	r4,134
  8031a4:	21004704 	addi	r4,r4,284
  8031a8:	20800915 	stw	r2,36(r4)
  8031ac:	d8800d17 	ldw	r2,52(sp)
  8031b0:	00c021b4 	movhi	r3,134
  8031b4:	18e64a04 	addi	r3,r3,-26328
  8031b8:	20c00015 	stw	r3,0(r4)
  8031bc:	20800815 	stw	r2,32(r4)
  8031c0:	00800204 	movi	r2,8
  8031c4:	d8800115 	stw	r2,4(sp)
  8031c8:	010021b4 	movhi	r4,134
  8031cc:	213fcb04 	addi	r4,r4,-212
  8031d0:	083b7700 	call	83b770 <_ZNSt8ios_baseC2Ev>
  8031d4:	008021b4 	movhi	r2,134
  8031d8:	10a66c04 	addi	r2,r2,-26192
  8031dc:	010021b4 	movhi	r4,134
  8031e0:	213fcb04 	addi	r4,r4,-212
  8031e4:	10c00504 	addi	r3,r2,20
  8031e8:	20c00015 	stw	r3,0(r4)
  8031ec:	20001c15 	stw	zero,112(r4)
  8031f0:	20001d05 	stb	zero,116(r4)
  8031f4:	20001d45 	stb	zero,117(r4)
  8031f8:	20001e15 	stw	zero,120(r4)
  8031fc:	20001f15 	stw	zero,124(r4)
  803200:	20002015 	stw	zero,128(r4)
  803204:	20002115 	stw	zero,132(r4)
  803208:	20bfff15 	stw	r2,-4(r4)
  80320c:	00c00104 	movi	r3,4
  803210:	d8c00115 	stw	r3,4(sp)
  803214:	014021b4 	movhi	r5,134
  803218:	29403304 	addi	r5,r5,204
  80321c:	08078c80 	call	8078c8 <_ZNSt9basic_iosIcSt11char_traitsIcEE4initEPSt15basic_streambufIcS1_E>
  803220:	008001c4 	movi	r2,7
  803224:	d8800115 	stw	r2,4(sp)
  803228:	010021b4 	movhi	r4,134
  80322c:	213fa804 	addi	r4,r4,-352
  803230:	083b7700 	call	83b770 <_ZNSt8ios_baseC2Ev>
  803234:	008021b4 	movhi	r2,134
  803238:	10a3c304 	addi	r2,r2,-28916
  80323c:	010021b4 	movhi	r4,134
  803240:	213fa804 	addi	r4,r4,-352
  803244:	10c00504 	addi	r3,r2,20
  803248:	20bffe15 	stw	r2,-8(r4)
  80324c:	20c00015 	stw	r3,0(r4)
  803250:	20001c15 	stw	zero,112(r4)
  803254:	20001d05 	stb	zero,116(r4)
  803258:	20001d45 	stb	zero,117(r4)
  80325c:	20001e15 	stw	zero,120(r4)
  803260:	20001f15 	stw	zero,124(r4)
  803264:	20002015 	stw	zero,128(r4)
  803268:	20002115 	stw	zero,132(r4)
  80326c:	203fff15 	stw	zero,-4(r4)
  803270:	008000c4 	movi	r2,3
  803274:	d8800115 	stw	r2,4(sp)
  803278:	014021b4 	movhi	r5,134
  80327c:	29403d04 	addi	r5,r5,244
  803280:	08078c80 	call	8078c8 <_ZNSt9basic_iosIcSt11char_traitsIcEE4initEPSt15basic_streambufIcS1_E>
  803284:	00800184 	movi	r2,6
  803288:	d8800115 	stw	r2,4(sp)
  80328c:	010021b4 	movhi	r4,134
  803290:	213fee04 	addi	r4,r4,-72
  803294:	083b7700 	call	83b770 <_ZNSt8ios_baseC2Ev>
  803298:	008021b4 	movhi	r2,134
  80329c:	10a66c04 	addi	r2,r2,-26192
  8032a0:	010021b4 	movhi	r4,134
  8032a4:	213fee04 	addi	r4,r4,-72
  8032a8:	10c00504 	addi	r3,r2,20
  8032ac:	20c00015 	stw	r3,0(r4)
  8032b0:	20001c15 	stw	zero,112(r4)
  8032b4:	20001d05 	stb	zero,116(r4)
  8032b8:	20001d45 	stb	zero,117(r4)
  8032bc:	20001e15 	stw	zero,120(r4)
  8032c0:	20001f15 	stw	zero,124(r4)
  8032c4:	20002015 	stw	zero,128(r4)
  8032c8:	20002115 	stw	zero,132(r4)
  8032cc:	20bfff15 	stw	r2,-4(r4)
  8032d0:	00c00084 	movi	r3,2
  8032d4:	d8c00115 	stw	r3,4(sp)
  8032d8:	014021b4 	movhi	r5,134
  8032dc:	29404704 	addi	r5,r5,284
  8032e0:	08078c80 	call	8078c8 <_ZNSt9basic_iosIcSt11char_traitsIcEE4initEPSt15basic_streambufIcS1_E>
  8032e4:	00800144 	movi	r2,5
  8032e8:	d8800115 	stw	r2,4(sp)
  8032ec:	010021b4 	movhi	r4,134
  8032f0:	21001104 	addi	r4,r4,68
  8032f4:	083b7700 	call	83b770 <_ZNSt8ios_baseC2Ev>
  8032f8:	008021b4 	movhi	r2,134
  8032fc:	10a66c04 	addi	r2,r2,-26192
  803300:	010021b4 	movhi	r4,134
  803304:	21001104 	addi	r4,r4,68
  803308:	10c00504 	addi	r3,r2,20
  80330c:	20c00015 	stw	r3,0(r4)
  803310:	20001c15 	stw	zero,112(r4)
  803314:	20001d05 	stb	zero,116(r4)
  803318:	20001d45 	stb	zero,117(r4)
  80331c:	20001e15 	stw	zero,120(r4)
  803320:	20001f15 	stw	zero,124(r4)
  803324:	20002015 	stw	zero,128(r4)
  803328:	20002115 	stw	zero,132(r4)
  80332c:	20bfff15 	stw	r2,-4(r4)
  803330:	00c00044 	movi	r3,1
  803334:	d8c00115 	stw	r3,4(sp)
  803338:	014021b4 	movhi	r5,134
  80333c:	29404704 	addi	r5,r5,284
  803340:	08078c80 	call	8078c8 <_ZNSt9basic_iosIcSt11char_traitsIcEE4initEPSt15basic_streambufIcS1_E>
  803344:	00c021b4 	movhi	r3,134
  803348:	18ffca04 	addi	r3,r3,-216
  80334c:	008021b4 	movhi	r2,134
  803350:	10bfa604 	addi	r2,r2,-360
  803354:	10c01e15 	stw	r3,120(r2)
  803358:	01080004 	movi	r4,8192
  80335c:	008021b4 	movhi	r2,134
  803360:	10bfed04 	addi	r2,r2,-76
  803364:	11000415 	stw	r4,16(r2)
  803368:	00ffffc4 	movi	r3,-1
  80336c:	01400044 	movi	r5,1
  803370:	010021b4 	movhi	r4,134
  803374:	213c5704 	addi	r4,r4,-3748
  803378:	d8c00115 	stw	r3,4(sp)
  80337c:	08355880 	call	835588 <_ZN9__gnu_cxx12__atomic_addEPVii>
  803380:	d809883a 	mov	r4,sp
  803384:	08433e40 	call	8433e4 <_Unwind_SjLj_Unregister>
  803388:	dfc01317 	ldw	ra,76(sp)
  80338c:	df001217 	ldw	fp,72(sp)
  803390:	ddc01117 	ldw	r23,68(sp)
  803394:	dec01404 	addi	sp,sp,80
  803398:	f800283a 	ret
  80339c:	d8800217 	ldw	r2,8(sp)
  8033a0:	d8c00117 	ldw	r3,4(sp)
  8033a4:	d8801015 	stw	r2,64(sp)
  8033a8:	00800044 	movi	r2,1
  8033ac:	18802a26 	beq	r3,r2,803458 <_ZNSt8ios_base4InitC2Ev+0x498>
  8033b0:	00800084 	movi	r2,2
  8033b4:	18801f26 	beq	r3,r2,803434 <_ZNSt8ios_base4InitC2Ev+0x474>
  8033b8:	008000c4 	movi	r2,3
  8033bc:	18801426 	beq	r3,r2,803410 <_ZNSt8ios_base4InitC2Ev+0x450>
  8033c0:	00800104 	movi	r2,4
  8033c4:	18800e26 	beq	r3,r2,803400 <_ZNSt8ios_base4InitC2Ev+0x440>
  8033c8:	00800144 	movi	r2,5
  8033cc:	18800c26 	beq	r3,r2,803400 <_ZNSt8ios_base4InitC2Ev+0x440>
  8033d0:	00800184 	movi	r2,6
  8033d4:	18800a26 	beq	r3,r2,803400 <_ZNSt8ios_base4InitC2Ev+0x440>
  8033d8:	008001c4 	movi	r2,7
  8033dc:	18800826 	beq	r3,r2,803400 <_ZNSt8ios_base4InitC2Ev+0x440>
  8033e0:	00c021b4 	movhi	r3,134
  8033e4:	18c01104 	addi	r3,r3,68
  8033e8:	008021b4 	movhi	r2,134
  8033ec:	10a3b204 	addi	r2,r2,-28984
  8033f0:	18800015 	stw	r2,0(r3)
  8033f4:	1809883a 	mov	r4,r3
  8033f8:	d8000115 	stw	zero,4(sp)
  8033fc:	083b6900 	call	83b690 <_ZNSt8ios_baseD2Ev>
  803400:	d9001017 	ldw	r4,64(sp)
  803404:	00bfffc4 	movi	r2,-1
  803408:	d8800115 	stw	r2,4(sp)
  80340c:	08436a00 	call	8436a0 <_Unwind_SjLj_Resume>
  803410:	00c021b4 	movhi	r3,134
  803414:	18ffcb04 	addi	r3,r3,-212
  803418:	008021b4 	movhi	r2,134
  80341c:	10a3b204 	addi	r2,r2,-28984
  803420:	18800015 	stw	r2,0(r3)
  803424:	1809883a 	mov	r4,r3
  803428:	d8000115 	stw	zero,4(sp)
  80342c:	083b6900 	call	83b690 <_ZNSt8ios_baseD2Ev>
  803430:	003ff306 	br	803400 <_ZNSt8ios_base4InitC2Ev+0x440>
  803434:	00c021b4 	movhi	r3,134
  803438:	18ffa804 	addi	r3,r3,-352
  80343c:	008021b4 	movhi	r2,134
  803440:	10a3b204 	addi	r2,r2,-28984
  803444:	18800015 	stw	r2,0(r3)
  803448:	1809883a 	mov	r4,r3
  80344c:	d8000115 	stw	zero,4(sp)
  803450:	083b6900 	call	83b690 <_ZNSt8ios_baseD2Ev>
  803454:	003fea06 	br	803400 <_ZNSt8ios_base4InitC2Ev+0x440>
  803458:	00c021b4 	movhi	r3,134
  80345c:	18ffee04 	addi	r3,r3,-72
  803460:	008021b4 	movhi	r2,134
  803464:	10a3b204 	addi	r2,r2,-28984
  803468:	18800015 	stw	r2,0(r3)
  80346c:	1809883a 	mov	r4,r3
  803470:	d8000115 	stw	zero,4(sp)
  803474:	083b6900 	call	83b690 <_ZNSt8ios_baseD2Ev>
  803478:	003fe106 	br	803400 <_ZNSt8ios_base4InitC2Ev+0x440>

0080347c <_ZNSt8ios_base4InitC1Ev>:
  80347c:	deffec04 	addi	sp,sp,-80
  803480:	00802134 	movhi	r2,132
  803484:	10a08504 	addi	r2,r2,-32236
  803488:	d8800615 	stw	r2,24(sp)
  80348c:	00c02174 	movhi	r3,133
  803490:	18de8104 	addi	r3,r3,31236
  803494:	00802034 	movhi	r2,128
  803498:	108e1604 	addi	r2,r2,14424
  80349c:	d809883a 	mov	r4,sp
  8034a0:	d8800915 	stw	r2,36(sp)
  8034a4:	dfc01315 	stw	ra,76(sp)
  8034a8:	df001215 	stw	fp,72(sp)
  8034ac:	ddc01115 	stw	r23,68(sp)
  8034b0:	d8c00715 	stw	r3,28(sp)
  8034b4:	dec00815 	stw	sp,32(sp)
  8034b8:	dec00a15 	stw	sp,40(sp)
  8034bc:	08433d40 	call	8433d4 <_Unwind_SjLj_Register>
  8034c0:	00bfffc4 	movi	r2,-1
  8034c4:	010021b4 	movhi	r4,134
  8034c8:	213c5704 	addi	r4,r4,-3748
  8034cc:	01400044 	movi	r5,1
  8034d0:	d8800115 	stw	r2,4(sp)
  8034d4:	08355740 	call	835574 <_ZN9__gnu_cxx18__exchange_and_addEPVii>
  8034d8:	10000726 	beq	r2,zero,8034f8 <_ZNSt8ios_base4InitC1Ev+0x7c>
  8034dc:	d809883a 	mov	r4,sp
  8034e0:	08433e40 	call	8433e4 <_Unwind_SjLj_Unregister>
  8034e4:	dfc01317 	ldw	ra,76(sp)
  8034e8:	df001217 	ldw	fp,72(sp)
  8034ec:	ddc01117 	ldw	r23,68(sp)
  8034f0:	dec01404 	addi	sp,sp,80
  8034f4:	f800283a 	ret
  8034f8:	00c021b4 	movhi	r3,134
  8034fc:	18f44f04 	addi	r3,r3,-11972
  803500:	18800017 	ldw	r2,0(r3)
  803504:	00c00044 	movi	r3,1
  803508:	10800217 	ldw	r2,8(r2)
  80350c:	d8800f15 	stw	r2,60(sp)
  803510:	008021b4 	movhi	r2,134
  803514:	10803304 	addi	r2,r2,204
  803518:	11000704 	addi	r4,r2,28
  80351c:	008021b4 	movhi	r2,134
  803520:	10b44604 	addi	r2,r2,-12008
  803524:	10c00005 	stb	r3,0(r2)
  803528:	008021b4 	movhi	r2,134
  80352c:	10803304 	addi	r2,r2,204
  803530:	00c021b4 	movhi	r3,134
  803534:	18e67b04 	addi	r3,r3,-26132
  803538:	10c00015 	stw	r3,0(r2)
  80353c:	10000115 	stw	zero,4(r2)
  803540:	10000215 	stw	zero,8(r2)
  803544:	10000315 	stw	zero,12(r2)
  803548:	10000415 	stw	zero,16(r2)
  80354c:	10000515 	stw	zero,20(r2)
  803550:	10000615 	stw	zero,24(r2)
  803554:	0806b080 	call	806b08 <_ZNSt6localeC1Ev>
  803558:	d8c00f17 	ldw	r3,60(sp)
  80355c:	010021b4 	movhi	r4,134
  803560:	21344f04 	addi	r4,r4,-11972
  803564:	20800017 	ldw	r2,0(r4)
  803568:	010021b4 	movhi	r4,134
  80356c:	21003304 	addi	r4,r4,204
  803570:	20c00815 	stw	r3,32(r4)
  803574:	10800117 	ldw	r2,4(r2)
  803578:	00c021b4 	movhi	r3,134
  80357c:	18c03304 	addi	r3,r3,204
  803580:	d8800e15 	stw	r2,56(sp)
  803584:	008021b4 	movhi	r2,134
  803588:	10803d04 	addi	r2,r2,244
  80358c:	11000704 	addi	r4,r2,28
  803590:	008021b4 	movhi	r2,134
  803594:	10a64a04 	addi	r2,r2,-26328
  803598:	18800015 	stw	r2,0(r3)
  80359c:	00bfffc4 	movi	r2,-1
  8035a0:	18800915 	stw	r2,36(r3)
  8035a4:	00c021b4 	movhi	r3,134
  8035a8:	18c03d04 	addi	r3,r3,244
  8035ac:	008021b4 	movhi	r2,134
  8035b0:	10a67b04 	addi	r2,r2,-26132
  8035b4:	18800015 	stw	r2,0(r3)
  8035b8:	18000115 	stw	zero,4(r3)
  8035bc:	18000215 	stw	zero,8(r3)
  8035c0:	18000315 	stw	zero,12(r3)
  8035c4:	18000415 	stw	zero,16(r3)
  8035c8:	18000515 	stw	zero,20(r3)
  8035cc:	18000615 	stw	zero,24(r3)
  8035d0:	0806b080 	call	806b08 <_ZNSt6localeC1Ev>
  8035d4:	00c021b4 	movhi	r3,134
  8035d8:	18f44f04 	addi	r3,r3,-11972
  8035dc:	d9000e17 	ldw	r4,56(sp)
  8035e0:	18800017 	ldw	r2,0(r3)
  8035e4:	00c021b4 	movhi	r3,134
  8035e8:	18c03d04 	addi	r3,r3,244
  8035ec:	19000815 	stw	r4,32(r3)
  8035f0:	10800317 	ldw	r2,12(r2)
  8035f4:	d8800d15 	stw	r2,52(sp)
  8035f8:	008021b4 	movhi	r2,134
  8035fc:	10804704 	addi	r2,r2,284
  803600:	11000704 	addi	r4,r2,28
  803604:	00bfffc4 	movi	r2,-1
  803608:	18800915 	stw	r2,36(r3)
  80360c:	008021b4 	movhi	r2,134
  803610:	10a67b04 	addi	r2,r2,-26132
  803614:	00c021b4 	movhi	r3,134
  803618:	18c04704 	addi	r3,r3,284
  80361c:	18800015 	stw	r2,0(r3)
  803620:	008021b4 	movhi	r2,134
  803624:	10a64a04 	addi	r2,r2,-26328
  803628:	00c021b4 	movhi	r3,134
  80362c:	18c03d04 	addi	r3,r3,244
  803630:	18800015 	stw	r2,0(r3)
  803634:	00c021b4 	movhi	r3,134
  803638:	18c04704 	addi	r3,r3,284
  80363c:	18000115 	stw	zero,4(r3)
  803640:	18000215 	stw	zero,8(r3)
  803644:	18000315 	stw	zero,12(r3)
  803648:	18000415 	stw	zero,16(r3)
  80364c:	18000515 	stw	zero,20(r3)
  803650:	18000615 	stw	zero,24(r3)
  803654:	0806b080 	call	806b08 <_ZNSt6localeC1Ev>
  803658:	00bfffc4 	movi	r2,-1
  80365c:	010021b4 	movhi	r4,134
  803660:	21004704 	addi	r4,r4,284
  803664:	20800915 	stw	r2,36(r4)
  803668:	d8800d17 	ldw	r2,52(sp)
  80366c:	00c021b4 	movhi	r3,134
  803670:	18e64a04 	addi	r3,r3,-26328
  803674:	20c00015 	stw	r3,0(r4)
  803678:	20800815 	stw	r2,32(r4)
  80367c:	00800204 	movi	r2,8
  803680:	d8800115 	stw	r2,4(sp)
  803684:	010021b4 	movhi	r4,134
  803688:	213fcb04 	addi	r4,r4,-212
  80368c:	083b7700 	call	83b770 <_ZNSt8ios_baseC2Ev>
  803690:	008021b4 	movhi	r2,134
  803694:	10a66c04 	addi	r2,r2,-26192
  803698:	010021b4 	movhi	r4,134
  80369c:	213fcb04 	addi	r4,r4,-212
  8036a0:	10c00504 	addi	r3,r2,20
  8036a4:	20c00015 	stw	r3,0(r4)
  8036a8:	20001c15 	stw	zero,112(r4)
  8036ac:	20001d05 	stb	zero,116(r4)
  8036b0:	20001d45 	stb	zero,117(r4)
  8036b4:	20001e15 	stw	zero,120(r4)
  8036b8:	20001f15 	stw	zero,124(r4)
  8036bc:	20002015 	stw	zero,128(r4)
  8036c0:	20002115 	stw	zero,132(r4)
  8036c4:	20bfff15 	stw	r2,-4(r4)
  8036c8:	00c00104 	movi	r3,4
  8036cc:	d8c00115 	stw	r3,4(sp)
  8036d0:	014021b4 	movhi	r5,134
  8036d4:	29403304 	addi	r5,r5,204
  8036d8:	08078c80 	call	8078c8 <_ZNSt9basic_iosIcSt11char_traitsIcEE4initEPSt15basic_streambufIcS1_E>
  8036dc:	008001c4 	movi	r2,7
  8036e0:	d8800115 	stw	r2,4(sp)
  8036e4:	010021b4 	movhi	r4,134
  8036e8:	213fa804 	addi	r4,r4,-352
  8036ec:	083b7700 	call	83b770 <_ZNSt8ios_baseC2Ev>
  8036f0:	008021b4 	movhi	r2,134
  8036f4:	10a3c304 	addi	r2,r2,-28916
  8036f8:	010021b4 	movhi	r4,134
  8036fc:	213fa804 	addi	r4,r4,-352
  803700:	10c00504 	addi	r3,r2,20
  803704:	20bffe15 	stw	r2,-8(r4)
  803708:	20c00015 	stw	r3,0(r4)
  80370c:	20001c15 	stw	zero,112(r4)
  803710:	20001d05 	stb	zero,116(r4)
  803714:	20001d45 	stb	zero,117(r4)
  803718:	20001e15 	stw	zero,120(r4)
  80371c:	20001f15 	stw	zero,124(r4)
  803720:	20002015 	stw	zero,128(r4)
  803724:	20002115 	stw	zero,132(r4)
  803728:	203fff15 	stw	zero,-4(r4)
  80372c:	008000c4 	movi	r2,3
  803730:	d8800115 	stw	r2,4(sp)
  803734:	014021b4 	movhi	r5,134
  803738:	29403d04 	addi	r5,r5,244
  80373c:	08078c80 	call	8078c8 <_ZNSt9basic_iosIcSt11char_traitsIcEE4initEPSt15basic_streambufIcS1_E>
  803740:	00800184 	movi	r2,6
  803744:	d8800115 	stw	r2,4(sp)
  803748:	010021b4 	movhi	r4,134
  80374c:	213fee04 	addi	r4,r4,-72
  803750:	083b7700 	call	83b770 <_ZNSt8ios_baseC2Ev>
  803754:	008021b4 	movhi	r2,134
  803758:	10a66c04 	addi	r2,r2,-26192
  80375c:	010021b4 	movhi	r4,134
  803760:	213fee04 	addi	r4,r4,-72
  803764:	10c00504 	addi	r3,r2,20
  803768:	20c00015 	stw	r3,0(r4)
  80376c:	20001c15 	stw	zero,112(r4)
  803770:	20001d05 	stb	zero,116(r4)
  803774:	20001d45 	stb	zero,117(r4)
  803778:	20001e15 	stw	zero,120(r4)
  80377c:	20001f15 	stw	zero,124(r4)
  803780:	20002015 	stw	zero,128(r4)
  803784:	20002115 	stw	zero,132(r4)
  803788:	20bfff15 	stw	r2,-4(r4)
  80378c:	00c00084 	movi	r3,2
  803790:	d8c00115 	stw	r3,4(sp)
  803794:	014021b4 	movhi	r5,134
  803798:	29404704 	addi	r5,r5,284
  80379c:	08078c80 	call	8078c8 <_ZNSt9basic_iosIcSt11char_traitsIcEE4initEPSt15basic_streambufIcS1_E>
  8037a0:	00800144 	movi	r2,5
  8037a4:	d8800115 	stw	r2,4(sp)
  8037a8:	010021b4 	movhi	r4,134
  8037ac:	21001104 	addi	r4,r4,68
  8037b0:	083b7700 	call	83b770 <_ZNSt8ios_baseC2Ev>
  8037b4:	008021b4 	movhi	r2,134
  8037b8:	10a66c04 	addi	r2,r2,-26192
  8037bc:	010021b4 	movhi	r4,134
  8037c0:	21001104 	addi	r4,r4,68
  8037c4:	10c00504 	addi	r3,r2,20
  8037c8:	20c00015 	stw	r3,0(r4)
  8037cc:	20001c15 	stw	zero,112(r4)
  8037d0:	20001d05 	stb	zero,116(r4)
  8037d4:	20001d45 	stb	zero,117(r4)
  8037d8:	20001e15 	stw	zero,120(r4)
  8037dc:	20001f15 	stw	zero,124(r4)
  8037e0:	20002015 	stw	zero,128(r4)
  8037e4:	20002115 	stw	zero,132(r4)
  8037e8:	20bfff15 	stw	r2,-4(r4)
  8037ec:	00c00044 	movi	r3,1
  8037f0:	d8c00115 	stw	r3,4(sp)
  8037f4:	014021b4 	movhi	r5,134
  8037f8:	29404704 	addi	r5,r5,284
  8037fc:	08078c80 	call	8078c8 <_ZNSt9basic_iosIcSt11char_traitsIcEE4initEPSt15basic_streambufIcS1_E>
  803800:	00c021b4 	movhi	r3,134
  803804:	18ffca04 	addi	r3,r3,-216
  803808:	008021b4 	movhi	r2,134
  80380c:	10bfa604 	addi	r2,r2,-360
  803810:	10c01e15 	stw	r3,120(r2)
  803814:	01080004 	movi	r4,8192
  803818:	008021b4 	movhi	r2,134
  80381c:	10bfed04 	addi	r2,r2,-76
  803820:	11000415 	stw	r4,16(r2)
  803824:	00ffffc4 	movi	r3,-1
  803828:	01400044 	movi	r5,1
  80382c:	010021b4 	movhi	r4,134
  803830:	213c5704 	addi	r4,r4,-3748
  803834:	d8c00115 	stw	r3,4(sp)
  803838:	08355880 	call	835588 <_ZN9__gnu_cxx12__atomic_addEPVii>
  80383c:	d809883a 	mov	r4,sp
  803840:	08433e40 	call	8433e4 <_Unwind_SjLj_Unregister>
  803844:	dfc01317 	ldw	ra,76(sp)
  803848:	df001217 	ldw	fp,72(sp)
  80384c:	ddc01117 	ldw	r23,68(sp)
  803850:	dec01404 	addi	sp,sp,80
  803854:	f800283a 	ret
  803858:	d8800217 	ldw	r2,8(sp)
  80385c:	d8c00117 	ldw	r3,4(sp)
  803860:	d8801015 	stw	r2,64(sp)
  803864:	00800044 	movi	r2,1
  803868:	18802a26 	beq	r3,r2,803914 <_ZNSt8ios_base4InitC1Ev+0x498>
  80386c:	00800084 	movi	r2,2
  803870:	18801f26 	beq	r3,r2,8038f0 <_ZNSt8ios_base4InitC1Ev+0x474>
  803874:	008000c4 	movi	r2,3
  803878:	18801426 	beq	r3,r2,8038cc <_ZNSt8ios_base4InitC1Ev+0x450>
  80387c:	00800104 	movi	r2,4
  803880:	18800e26 	beq	r3,r2,8038bc <_ZNSt8ios_base4InitC1Ev+0x440>
  803884:	00800144 	movi	r2,5
  803888:	18800c26 	beq	r3,r2,8038bc <_ZNSt8ios_base4InitC1Ev+0x440>
  80388c:	00800184 	movi	r2,6
  803890:	18800a26 	beq	r3,r2,8038bc <_ZNSt8ios_base4InitC1Ev+0x440>
  803894:	008001c4 	movi	r2,7
  803898:	18800826 	beq	r3,r2,8038bc <_ZNSt8ios_base4InitC1Ev+0x440>
  80389c:	00c021b4 	movhi	r3,134
  8038a0:	18c01104 	addi	r3,r3,68
  8038a4:	008021b4 	movhi	r2,134
  8038a8:	10a3b204 	addi	r2,r2,-28984
  8038ac:	18800015 	stw	r2,0(r3)
  8038b0:	1809883a 	mov	r4,r3
  8038b4:	d8000115 	stw	zero,4(sp)
  8038b8:	083b6900 	call	83b690 <_ZNSt8ios_baseD2Ev>
  8038bc:	d9001017 	ldw	r4,64(sp)
  8038c0:	00bfffc4 	movi	r2,-1
  8038c4:	d8800115 	stw	r2,4(sp)
  8038c8:	08436a00 	call	8436a0 <_Unwind_SjLj_Resume>
  8038cc:	00c021b4 	movhi	r3,134
  8038d0:	18ffcb04 	addi	r3,r3,-212
  8038d4:	008021b4 	movhi	r2,134
  8038d8:	10a3b204 	addi	r2,r2,-28984
  8038dc:	18800015 	stw	r2,0(r3)
  8038e0:	1809883a 	mov	r4,r3
  8038e4:	d8000115 	stw	zero,4(sp)
  8038e8:	083b6900 	call	83b690 <_ZNSt8ios_baseD2Ev>
  8038ec:	003ff306 	br	8038bc <_ZNSt8ios_base4InitC1Ev+0x440>
  8038f0:	00c021b4 	movhi	r3,134
  8038f4:	18ffa804 	addi	r3,r3,-352
  8038f8:	008021b4 	movhi	r2,134
  8038fc:	10a3b204 	addi	r2,r2,-28984
  803900:	18800015 	stw	r2,0(r3)
  803904:	1809883a 	mov	r4,r3
  803908:	d8000115 	stw	zero,4(sp)
  80390c:	083b6900 	call	83b690 <_ZNSt8ios_baseD2Ev>
  803910:	003fea06 	br	8038bc <_ZNSt8ios_base4InitC1Ev+0x440>
  803914:	00c021b4 	movhi	r3,134
  803918:	18ffee04 	addi	r3,r3,-72
  80391c:	008021b4 	movhi	r2,134
  803920:	10a3b204 	addi	r2,r2,-28984
  803924:	18800015 	stw	r2,0(r3)
  803928:	1809883a 	mov	r4,r3
  80392c:	d8000115 	stw	zero,4(sp)
  803930:	083b6900 	call	83b690 <_ZNSt8ios_baseD2Ev>
  803934:	003fe106 	br	8038bc <_ZNSt8ios_base4InitC1Ev+0x440>

00803938 <_ZNSt8ios_base15sync_with_stdioEb>:
  803938:	deffeb04 	addi	sp,sp,-84
  80393c:	00802134 	movhi	r2,132
  803940:	10a08504 	addi	r2,r2,-32236
  803944:	00c02174 	movhi	r3,133
  803948:	18de8604 	addi	r3,r3,31256
  80394c:	d8800715 	stw	r2,28(sp)
  803950:	d9000f05 	stb	r4,60(sp)
  803954:	00802034 	movhi	r2,128
  803958:	108ec904 	addi	r2,r2,15140
  80395c:	d9000104 	addi	r4,sp,4
  803960:	d8c00815 	stw	r3,32(sp)
  803964:	d8800a15 	stw	r2,40(sp)
  803968:	dfc01415 	stw	ra,80(sp)
  80396c:	df001315 	stw	fp,76(sp)
  803970:	ddc01215 	stw	r23,72(sp)
  803974:	dec00915 	stw	sp,36(sp)
  803978:	dec00b15 	stw	sp,44(sp)
  80397c:	08433d40 	call	8433d4 <_Unwind_SjLj_Register>
  803980:	00c021b4 	movhi	r3,134
  803984:	18f44604 	addi	r3,r3,-12008
  803988:	18c00003 	ldbu	r3,0(r3)
  80398c:	d8800f03 	ldbu	r2,60(sp)
  803990:	d8c00e05 	stb	r3,56(sp)
  803994:	1000011e 	bne	r2,zero,80399c <_ZNSt8ios_base15sync_with_stdioEb+0x64>
  803998:	18000a1e 	bne	r3,zero,8039c4 <_ZNSt8ios_base15sync_with_stdioEb+0x8c>
  80399c:	d8c00e03 	ldbu	r3,56(sp)
  8039a0:	d9000104 	addi	r4,sp,4
  8039a4:	d8c01115 	stw	r3,68(sp)
  8039a8:	08433e40 	call	8433e4 <_Unwind_SjLj_Unregister>
  8039ac:	d8801117 	ldw	r2,68(sp)
  8039b0:	dfc01417 	ldw	ra,80(sp)
  8039b4:	df001317 	ldw	fp,76(sp)
  8039b8:	ddc01217 	ldw	r23,72(sp)
  8039bc:	dec01504 	addi	sp,sp,84
  8039c0:	f800283a 	ret
  8039c4:	00bfffc4 	movi	r2,-1
  8039c8:	d809883a 	mov	r4,sp
  8039cc:	d8800215 	stw	r2,8(sp)
  8039d0:	080347c0 	call	80347c <_ZNSt8ios_base4InitC1Ev>
  8039d4:	00c021b4 	movhi	r3,134
  8039d8:	18f44604 	addi	r3,r3,-12008
  8039dc:	008021b4 	movhi	r2,134
  8039e0:	10803304 	addi	r2,r2,204
  8039e4:	18000005 	stb	zero,0(r3)
  8039e8:	00c021b4 	movhi	r3,134
  8039ec:	18e67b04 	addi	r3,r3,-26132
  8039f0:	11000704 	addi	r4,r2,28
  8039f4:	10c00015 	stw	r3,0(r2)
  8039f8:	0804eac0 	call	804eac <_ZNSt6localeD1Ev>
  8039fc:	008021b4 	movhi	r2,134
  803a00:	10803d04 	addi	r2,r2,244
  803a04:	00c021b4 	movhi	r3,134
  803a08:	18e67b04 	addi	r3,r3,-26132
  803a0c:	11000704 	addi	r4,r2,28
  803a10:	10c00015 	stw	r3,0(r2)
  803a14:	0804eac0 	call	804eac <_ZNSt6localeD1Ev>
  803a18:	008021b4 	movhi	r2,134
  803a1c:	10804704 	addi	r2,r2,284
  803a20:	00c021b4 	movhi	r3,134
  803a24:	18e67b04 	addi	r3,r3,-26132
  803a28:	11000704 	addi	r4,r2,28
  803a2c:	10c00015 	stw	r3,0(r2)
  803a30:	0804eac0 	call	804eac <_ZNSt6localeD1Ev>
  803a34:	008021b4 	movhi	r2,134
  803a38:	10b44f04 	addi	r2,r2,-11972
  803a3c:	10c00017 	ldw	r3,0(r2)
  803a40:	008000c4 	movi	r2,3
  803a44:	010021b4 	movhi	r4,134
  803a48:	21005104 	addi	r4,r4,324
  803a4c:	19400217 	ldw	r5,8(r3)
  803a50:	01800404 	movi	r6,16
  803a54:	d8800215 	stw	r2,8(sp)
  803a58:	01c10004 	movi	r7,1024
  803a5c:	0806d880 	call	806d88 <_ZN9__gnu_cxx13stdio_filebufIcSt11char_traitsIcEEC1EP7__sFILESt13_Ios_Openmodem>
  803a60:	00c021b4 	movhi	r3,134
  803a64:	18f44f04 	addi	r3,r3,-11972
  803a68:	18800017 	ldw	r2,0(r3)
  803a6c:	00c00084 	movi	r3,2
  803a70:	010021b4 	movhi	r4,134
  803a74:	21006e04 	addi	r4,r4,440
  803a78:	11400117 	ldw	r5,4(r2)
  803a7c:	01800204 	movi	r6,8
  803a80:	d8c00215 	stw	r3,8(sp)
  803a84:	01c10004 	movi	r7,1024
  803a88:	0806d880 	call	806d88 <_ZN9__gnu_cxx13stdio_filebufIcSt11char_traitsIcEEC1EP7__sFILESt13_Ios_Openmodem>
  803a8c:	00c021b4 	movhi	r3,134
  803a90:	18f44f04 	addi	r3,r3,-11972
  803a94:	18800017 	ldw	r2,0(r3)
  803a98:	00c00044 	movi	r3,1
  803a9c:	01800404 	movi	r6,16
  803aa0:	11400317 	ldw	r5,12(r2)
  803aa4:	01c10004 	movi	r7,1024
  803aa8:	d8c00215 	stw	r3,8(sp)
  803aac:	010021b4 	movhi	r4,134
  803ab0:	21008b04 	addi	r4,r4,556
  803ab4:	0806d880 	call	806d88 <_ZN9__gnu_cxx13stdio_filebufIcSt11char_traitsIcEEC1EP7__sFILESt13_Ios_Openmodem>
  803ab8:	00800104 	movi	r2,4
  803abc:	d8800215 	stw	r2,8(sp)
  803ac0:	010021b4 	movhi	r4,134
  803ac4:	213fcb04 	addi	r4,r4,-212
  803ac8:	014021b4 	movhi	r5,134
  803acc:	29405104 	addi	r5,r5,324
  803ad0:	0807cfc0 	call	807cfc <_ZNSt9basic_iosIcSt11char_traitsIcEE5rdbufEPSt15basic_streambufIcS1_E>
  803ad4:	010021b4 	movhi	r4,134
  803ad8:	213fa804 	addi	r4,r4,-352
  803adc:	014021b4 	movhi	r5,134
  803ae0:	29406e04 	addi	r5,r5,440
  803ae4:	0807cfc0 	call	807cfc <_ZNSt9basic_iosIcSt11char_traitsIcEE5rdbufEPSt15basic_streambufIcS1_E>
  803ae8:	010021b4 	movhi	r4,134
  803aec:	213fee04 	addi	r4,r4,-72
  803af0:	014021b4 	movhi	r5,134
  803af4:	29408b04 	addi	r5,r5,556
  803af8:	0807cfc0 	call	807cfc <_ZNSt9basic_iosIcSt11char_traitsIcEE5rdbufEPSt15basic_streambufIcS1_E>
  803afc:	014021b4 	movhi	r5,134
  803b00:	29408b04 	addi	r5,r5,556
  803b04:	010021b4 	movhi	r4,134
  803b08:	21001104 	addi	r4,r4,68
  803b0c:	0807cfc0 	call	807cfc <_ZNSt9basic_iosIcSt11char_traitsIcEE5rdbufEPSt15basic_streambufIcS1_E>
  803b10:	00bfffc4 	movi	r2,-1
  803b14:	d809883a 	mov	r4,sp
  803b18:	d8800215 	stw	r2,8(sp)
  803b1c:	0802dd00 	call	802dd0 <_ZNSt8ios_base4InitD1Ev>
  803b20:	003f9e06 	br	80399c <_ZNSt8ios_base15sync_with_stdioEb+0x64>
  803b24:	d8800317 	ldw	r2,12(sp)
  803b28:	d809883a 	mov	r4,sp
  803b2c:	d8000215 	stw	zero,8(sp)
  803b30:	d8801015 	stw	r2,64(sp)
  803b34:	0802dd00 	call	802dd0 <_ZNSt8ios_base4InitD1Ev>
  803b38:	d9001017 	ldw	r4,64(sp)
  803b3c:	00bfffc4 	movi	r2,-1
  803b40:	d8800215 	stw	r2,8(sp)
  803b44:	08436a00 	call	8436a0 <_Unwind_SjLj_Resume>

00803b48 <_ZNSt6localeC2EPNS_5_ImplE>:
  803b48:	21400015 	stw	r5,0(r4)
  803b4c:	f800283a 	ret

00803b50 <_ZNSt6localeC1EPNS_5_ImplE>:
  803b50:	21400015 	stw	r5,0(r4)
  803b54:	f800283a 	ret

00803b58 <_ZNSt6locale5facet13_S_get_c_nameEv>:
  803b58:	d0a01e04 	addi	r2,gp,-32648
  803b5c:	f800283a 	ret

00803b60 <_ZNKSt6locale2id5_M_idEv>:
  803b60:	defffe04 	addi	sp,sp,-8
  803b64:	dc000015 	stw	r16,0(sp)
  803b68:	2021883a 	mov	r16,r4
  803b6c:	80800017 	ldw	r2,0(r16)
  803b70:	dfc00115 	stw	ra,4(sp)
  803b74:	01400044 	movi	r5,1
  803b78:	d1289304 	addi	r4,gp,-23988
  803b7c:	1000031e 	bne	r2,zero,803b8c <_ZNKSt6locale2id5_M_idEv+0x2c>
  803b80:	08355740 	call	835574 <_ZN9__gnu_cxx18__exchange_and_addEPVii>
  803b84:	10800044 	addi	r2,r2,1
  803b88:	80800015 	stw	r2,0(r16)
  803b8c:	10bfffc4 	addi	r2,r2,-1
  803b90:	dfc00117 	ldw	ra,4(sp)
  803b94:	dc000017 	ldw	r16,0(sp)
  803b98:	dec00204 	addi	sp,sp,8
  803b9c:	f800283a 	ret

00803ba0 <_ZNSt6locale21_S_normalize_categoryEi>:
  803ba0:	deffff04 	addi	sp,sp,-4
  803ba4:	dfc00015 	stw	ra,0(sp)
  803ba8:	20001726 	beq	r4,zero,803c08 <_ZNSt6locale21_S_normalize_categoryEi+0x68>
  803bac:	20800fcc 	andi	r2,r4,63
  803bb0:	1000121e 	bne	r2,zero,803bfc <_ZNSt6locale21_S_normalize_categoryEi+0x5c>
  803bb4:	00800144 	movi	r2,5
  803bb8:	1100032e 	bgeu	r2,r4,803bc8 <_ZNSt6locale21_S_normalize_categoryEi+0x28>
  803bbc:	010021b4 	movhi	r4,134
  803bc0:	21232704 	addi	r4,r4,-29540
  803bc4:	083abc00 	call	83abc0 <_ZSt21__throw_runtime_errorPKc>
  803bc8:	2105883a 	add	r2,r4,r4
  803bcc:	1085883a 	add	r2,r2,r2
  803bd0:	00c02034 	movhi	r3,128
  803bd4:	18cef904 	addi	r3,r3,15332
  803bd8:	10c5883a 	add	r2,r2,r3
  803bdc:	11000017 	ldw	r4,0(r2)
  803be0:	2000683a 	jmp	r4
  803be4:	00803c18 	cmpnei	r2,zero,240
  803be8:	00803c20 	cmpeqi	r2,zero,240
  803bec:	00803c28 	cmpgeui	r2,zero,240
  803bf0:	00803c30 	cmpltui	r2,zero,240
  803bf4:	00803c38 	rdprs	r2,zero,240
  803bf8:	00803c40 	call	803c4 <__alt_mem_sdram_controller-0x77fc3c>
  803bfc:	00bff004 	movi	r2,-64
  803c00:	2084703a 	and	r2,r4,r2
  803c04:	103feb1e 	bne	r2,zero,803bb4 <_ZNSt6locale21_S_normalize_categoryEi+0x14>
  803c08:	2005883a 	mov	r2,r4
  803c0c:	dfc00017 	ldw	ra,0(sp)
  803c10:	dec00104 	addi	sp,sp,4
  803c14:	f800283a 	ret
  803c18:	00800fc4 	movi	r2,63
  803c1c:	003ffb06 	br	803c0c <_ZNSt6locale21_S_normalize_categoryEi+0x6c>
  803c20:	00800104 	movi	r2,4
  803c24:	003ff906 	br	803c0c <_ZNSt6locale21_S_normalize_categoryEi+0x6c>
  803c28:	00800044 	movi	r2,1
  803c2c:	003ff706 	br	803c0c <_ZNSt6locale21_S_normalize_categoryEi+0x6c>
  803c30:	00800404 	movi	r2,16
  803c34:	003ff506 	br	803c0c <_ZNSt6locale21_S_normalize_categoryEi+0x6c>
  803c38:	00800084 	movi	r2,2
  803c3c:	003ff306 	br	803c0c <_ZNSt6locale21_S_normalize_categoryEi+0x6c>
  803c40:	00800204 	movi	r2,8
  803c44:	003ff106 	br	803c0c <_ZNSt6locale21_S_normalize_categoryEi+0x6c>

00803c48 <_ZNSt6locale5facetD0Ev>:
  803c48:	008021b4 	movhi	r2,134
  803c4c:	10a33e04 	addi	r2,r2,-29448
  803c50:	20800015 	stw	r2,0(r4)
  803c54:	0837aa01 	jmpi	837aa0 <_ZdlPv>

00803c58 <_ZNSt6locale5facetD1Ev>:
  803c58:	008021b4 	movhi	r2,134
  803c5c:	10a33e04 	addi	r2,r2,-29448
  803c60:	20800015 	stw	r2,0(r4)
  803c64:	f800283a 	ret

00803c68 <_ZNSt6locale5facetD2Ev>:
  803c68:	008021b4 	movhi	r2,134
  803c6c:	10a33e04 	addi	r2,r2,-29448
  803c70:	20800015 	stw	r2,0(r4)
  803c74:	f800283a 	ret

00803c78 <_ZNSt6locale5facet18_S_initialize_onceEv>:
  803c78:	d1289204 	addi	r4,gp,-23992
  803c7c:	d1601e04 	addi	r5,gp,-32648
  803c80:	000d883a 	mov	r6,zero
  803c84:	0836bd41 	jmpi	836bd4 <_ZNSt6locale5facet18_S_create_c_localeERPiPKcS1_>

00803c88 <_ZNSt6locale5facet15_S_get_c_localeEv>:
  803c88:	d0a89217 	ldw	r2,-23992(gp)
  803c8c:	deffff04 	addi	sp,sp,-4
  803c90:	dfc00015 	stw	ra,0(sp)
  803c94:	10000326 	beq	r2,zero,803ca4 <_ZNSt6locale5facet15_S_get_c_localeEv+0x1c>
  803c98:	dfc00017 	ldw	ra,0(sp)
  803c9c:	dec00104 	addi	sp,sp,4
  803ca0:	f800283a 	ret
  803ca4:	0803c780 	call	803c78 <_ZNSt6locale5facet18_S_initialize_onceEv>
  803ca8:	d0a89217 	ldw	r2,-23992(gp)
  803cac:	dfc00017 	ldw	ra,0(sp)
  803cb0:	dec00104 	addi	sp,sp,4
  803cb4:	f800283a 	ret

00803cb8 <_ZNSt6localeC1ERKS_>:
  803cb8:	deffee04 	addi	sp,sp,-72
  803cbc:	00802134 	movhi	r2,132
  803cc0:	10a08504 	addi	r2,r2,-32236
  803cc4:	00c02174 	movhi	r3,133
  803cc8:	18de8904 	addi	r3,r3,31268
  803ccc:	d8800615 	stw	r2,24(sp)
  803cd0:	d9000d15 	stw	r4,52(sp)
  803cd4:	00802034 	movhi	r2,128
  803cd8:	108f5004 	addi	r2,r2,15680
  803cdc:	d809883a 	mov	r4,sp
  803ce0:	d8c00715 	stw	r3,28(sp)
  803ce4:	d8800915 	stw	r2,36(sp)
  803ce8:	d9400e15 	stw	r5,56(sp)
  803cec:	dfc01115 	stw	ra,68(sp)
  803cf0:	df001015 	stw	fp,64(sp)
  803cf4:	ddc00f15 	stw	r23,60(sp)
  803cf8:	dec00815 	stw	sp,32(sp)
  803cfc:	dec00a15 	stw	sp,40(sp)
  803d00:	08433d40 	call	8433d4 <_Unwind_SjLj_Register>
  803d04:	d8800e17 	ldw	r2,56(sp)
  803d08:	d8c00d17 	ldw	r3,52(sp)
  803d0c:	11000017 	ldw	r4,0(r2)
  803d10:	00800044 	movi	r2,1
  803d14:	100b883a 	mov	r5,r2
  803d18:	19000015 	stw	r4,0(r3)
  803d1c:	d8800115 	stw	r2,4(sp)
  803d20:	08355880 	call	835588 <_ZN9__gnu_cxx12__atomic_addEPVii>
  803d24:	d809883a 	mov	r4,sp
  803d28:	08433e40 	call	8433e4 <_Unwind_SjLj_Unregister>
  803d2c:	dfc01117 	ldw	ra,68(sp)
  803d30:	df001017 	ldw	fp,64(sp)
  803d34:	ddc00f17 	ldw	r23,60(sp)
  803d38:	dec01204 	addi	sp,sp,72
  803d3c:	f800283a 	ret
  803d40:	d8800317 	ldw	r2,12(sp)
  803d44:	00ffffc4 	movi	r3,-1
  803d48:	d9000217 	ldw	r4,8(sp)
  803d4c:	10c00226 	beq	r2,r3,803d58 <_ZNSt6localeC1ERKS_+0xa0>
  803d50:	d8c00115 	stw	r3,4(sp)
  803d54:	08436a00 	call	8436a0 <_Unwind_SjLj_Resume>
  803d58:	00bfffc4 	movi	r2,-1
  803d5c:	d8800115 	stw	r2,4(sp)
  803d60:	08380940 	call	838094 <__cxa_call_unexpected>

00803d64 <_ZNSt6localeC2ERKS_>:
  803d64:	deffee04 	addi	sp,sp,-72
  803d68:	00802134 	movhi	r2,132
  803d6c:	10a08504 	addi	r2,r2,-32236
  803d70:	00c02174 	movhi	r3,133
  803d74:	18de8d04 	addi	r3,r3,31284
  803d78:	d8800615 	stw	r2,24(sp)
  803d7c:	d9000d15 	stw	r4,52(sp)
  803d80:	00802034 	movhi	r2,128
  803d84:	108f7b04 	addi	r2,r2,15852
  803d88:	d809883a 	mov	r4,sp
  803d8c:	d8c00715 	stw	r3,28(sp)
  803d90:	d8800915 	stw	r2,36(sp)
  803d94:	d9400e15 	stw	r5,56(sp)
  803d98:	dfc01115 	stw	ra,68(sp)
  803d9c:	df001015 	stw	fp,64(sp)
  803da0:	ddc00f15 	stw	r23,60(sp)
  803da4:	dec00815 	stw	sp,32(sp)
  803da8:	dec00a15 	stw	sp,40(sp)
  803dac:	08433d40 	call	8433d4 <_Unwind_SjLj_Register>
  803db0:	d8800e17 	ldw	r2,56(sp)
  803db4:	d8c00d17 	ldw	r3,52(sp)
  803db8:	11000017 	ldw	r4,0(r2)
  803dbc:	00800044 	movi	r2,1
  803dc0:	100b883a 	mov	r5,r2
  803dc4:	19000015 	stw	r4,0(r3)
  803dc8:	d8800115 	stw	r2,4(sp)
  803dcc:	08355880 	call	835588 <_ZN9__gnu_cxx12__atomic_addEPVii>
  803dd0:	d809883a 	mov	r4,sp
  803dd4:	08433e40 	call	8433e4 <_Unwind_SjLj_Unregister>
  803dd8:	dfc01117 	ldw	ra,68(sp)
  803ddc:	df001017 	ldw	fp,64(sp)
  803de0:	ddc00f17 	ldw	r23,60(sp)
  803de4:	dec01204 	addi	sp,sp,72
  803de8:	f800283a 	ret
  803dec:	d8800317 	ldw	r2,12(sp)
  803df0:	00ffffc4 	movi	r3,-1
  803df4:	d9000217 	ldw	r4,8(sp)
  803df8:	10c00226 	beq	r2,r3,803e04 <_ZNSt6localeC2ERKS_+0xa0>
  803dfc:	d8c00115 	stw	r3,4(sp)
  803e00:	08436a00 	call	8436a0 <_Unwind_SjLj_Resume>
  803e04:	00bfffc4 	movi	r2,-1
  803e08:	d8800115 	stw	r2,4(sp)
  803e0c:	08380940 	call	838094 <__cxa_call_unexpected>

00803e10 <_ZNSt6locale5_Impl16_M_install_cacheEPKNS_5facetEm>:
  803e10:	deffec04 	addi	sp,sp,-80
  803e14:	00802134 	movhi	r2,132
  803e18:	10a08504 	addi	r2,r2,-32236
  803e1c:	00c02174 	movhi	r3,133
  803e20:	18de9104 	addi	r3,r3,31300
  803e24:	d8800615 	stw	r2,24(sp)
  803e28:	d9000e15 	stw	r4,56(sp)
  803e2c:	00802034 	movhi	r2,128
  803e30:	108fbc04 	addi	r2,r2,16112
  803e34:	d809883a 	mov	r4,sp
  803e38:	d8c00715 	stw	r3,28(sp)
  803e3c:	d8800915 	stw	r2,36(sp)
  803e40:	dfc01315 	stw	ra,76(sp)
  803e44:	df001215 	stw	fp,72(sp)
  803e48:	ddc01115 	stw	r23,68(sp)
  803e4c:	dec00815 	stw	sp,32(sp)
  803e50:	dec00a15 	stw	sp,40(sp)
  803e54:	d9801015 	stw	r6,64(sp)
  803e58:	d9400f15 	stw	r5,60(sp)
  803e5c:	08433d40 	call	8433d4 <_Unwind_SjLj_Register>
  803e60:	d8800e17 	ldw	r2,56(sp)
  803e64:	d9001017 	ldw	r4,64(sp)
  803e68:	10c00317 	ldw	r3,12(r2)
  803e6c:	2105883a 	add	r2,r4,r4
  803e70:	1085883a 	add	r2,r2,r2
  803e74:	1887883a 	add	r3,r3,r2
  803e78:	d8800d15 	stw	r2,52(sp)
  803e7c:	18800017 	ldw	r2,0(r3)
  803e80:	10000f26 	beq	r2,zero,803ec0 <_ZNSt6locale5_Impl16_M_install_cacheEPKNS_5facetEm+0xb0>
  803e84:	d9400f17 	ldw	r5,60(sp)
  803e88:	28000626 	beq	r5,zero,803ea4 <_ZNSt6locale5_Impl16_M_install_cacheEPKNS_5facetEm+0x94>
  803e8c:	28800017 	ldw	r2,0(r5)
  803e90:	00c00084 	movi	r3,2
  803e94:	2809883a 	mov	r4,r5
  803e98:	11400117 	ldw	r5,4(r2)
  803e9c:	d8c00115 	stw	r3,4(sp)
  803ea0:	283ee83a 	callr	r5
  803ea4:	d809883a 	mov	r4,sp
  803ea8:	08433e40 	call	8433e4 <_Unwind_SjLj_Unregister>
  803eac:	dfc01317 	ldw	ra,76(sp)
  803eb0:	df001217 	ldw	fp,72(sp)
  803eb4:	ddc01117 	ldw	r23,68(sp)
  803eb8:	dec01404 	addi	sp,sp,80
  803ebc:	f800283a 	ret
  803ec0:	d8800f17 	ldw	r2,60(sp)
  803ec4:	01400044 	movi	r5,1
  803ec8:	d9400115 	stw	r5,4(sp)
  803ecc:	11000104 	addi	r4,r2,4
  803ed0:	08355880 	call	835588 <_ZN9__gnu_cxx12__atomic_addEPVii>
  803ed4:	d8c00e17 	ldw	r3,56(sp)
  803ed8:	d9000d17 	ldw	r4,52(sp)
  803edc:	d9400f17 	ldw	r5,60(sp)
  803ee0:	18800317 	ldw	r2,12(r3)
  803ee4:	2085883a 	add	r2,r4,r2
  803ee8:	11400015 	stw	r5,0(r2)
  803eec:	003fed06 	br	803ea4 <_ZNSt6locale5_Impl16_M_install_cacheEPKNS_5facetEm+0x94>
  803ef0:	d8c00117 	ldw	r3,4(sp)
  803ef4:	00800044 	movi	r2,1
  803ef8:	d9000217 	ldw	r4,8(sp)
  803efc:	d9400317 	ldw	r5,12(sp)
  803f00:	18800426 	beq	r3,r2,803f14 <_ZNSt6locale5_Impl16_M_install_cacheEPKNS_5facetEm+0x104>
  803f04:	00bfffc4 	movi	r2,-1
  803f08:	28800426 	beq	r5,r2,803f1c <_ZNSt6locale5_Impl16_M_install_cacheEPKNS_5facetEm+0x10c>
  803f0c:	d8800115 	stw	r2,4(sp)
  803f10:	08436a00 	call	8436a0 <_Unwind_SjLj_Resume>
  803f14:	00bfffc4 	movi	r2,-1
  803f18:	003ffc06 	br	803f0c <_ZNSt6locale5_Impl16_M_install_cacheEPKNS_5facetEm+0xfc>
  803f1c:	00bfffc4 	movi	r2,-1
  803f20:	d8800115 	stw	r2,4(sp)
  803f24:	08380940 	call	838094 <__cxa_call_unexpected>

00803f28 <_ZNKSt6locale4nameEv>:
  803f28:	deffdd04 	addi	sp,sp,-140
  803f2c:	00802134 	movhi	r2,132
  803f30:	10a08504 	addi	r2,r2,-32236
  803f34:	d8800815 	stw	r2,32(sp)
  803f38:	00802034 	movhi	r2,128
  803f3c:	1090b904 	addi	r2,r2,17124
  803f40:	00c02174 	movhi	r3,133
  803f44:	18de9444 	addi	r3,r3,31313
  803f48:	d8800b15 	stw	r2,44(sp)
  803f4c:	d9001e15 	stw	r4,120(sp)
  803f50:	d8800104 	addi	r2,sp,4
  803f54:	d9000204 	addi	r4,sp,8
  803f58:	d8c00915 	stw	r3,36(sp)
  803f5c:	d8800a15 	stw	r2,40(sp)
  803f60:	dfc02215 	stw	ra,136(sp)
  803f64:	df002115 	stw	fp,132(sp)
  803f68:	ddc02015 	stw	r23,128(sp)
  803f6c:	d9401f15 	stw	r5,124(sp)
  803f70:	dec00c15 	stw	sp,48(sp)
  803f74:	08433d40 	call	8433d4 <_Unwind_SjLj_Register>
  803f78:	d8c01f17 	ldw	r3,124(sp)
  803f7c:	018021b4 	movhi	r6,134
  803f80:	31bc6a04 	addi	r6,r6,-3672
  803f84:	31000304 	addi	r4,r6,12
  803f88:	18800017 	ldw	r2,0(r3)
  803f8c:	10c00417 	ldw	r3,16(r2)
  803f90:	d8801e17 	ldw	r2,120(sp)
  803f94:	11000015 	stw	r4,0(r2)
  803f98:	19800017 	ldw	r6,0(r3)
  803f9c:	d8801a15 	stw	r2,104(sp)
  803fa0:	d9801d15 	stw	r6,116(sp)
  803fa4:	3000c526 	beq	r6,zero,8042bc <_ZNKSt6locale4nameEv+0x394>
  803fa8:	18800117 	ldw	r2,4(r3)
  803fac:	10000f26 	beq	r2,zero,803fec <_ZNKSt6locale4nameEv+0xc4>
  803fb0:	d8c00f15 	stw	r3,60(sp)
  803fb4:	d8001915 	stw	zero,100(sp)
  803fb8:	d8800f17 	ldw	r2,60(sp)
  803fbc:	11000017 	ldw	r4,0(r2)
  803fc0:	11400117 	ldw	r5,4(r2)
  803fc4:	08470e80 	call	8470e8 <strcmp>
  803fc8:	1000181e 	bne	r2,zero,80402c <_ZNKSt6locale4nameEv+0x104>
  803fcc:	d8c01917 	ldw	r3,100(sp)
  803fd0:	d9000f17 	ldw	r4,60(sp)
  803fd4:	01800144 	movi	r6,5
  803fd8:	18c00044 	addi	r3,r3,1
  803fdc:	21000104 	addi	r4,r4,4
  803fe0:	d8c01915 	stw	r3,100(sp)
  803fe4:	d9000f15 	stw	r4,60(sp)
  803fe8:	19bff31e 	bne	r3,r6,803fb8 <_ZNKSt6locale4nameEv+0x90>
  803fec:	d9001d17 	ldw	r4,116(sp)
  803ff0:	08482f80 	call	8482f8 <strlen>
  803ff4:	00c00084 	movi	r3,2
  803ff8:	d8c00315 	stw	r3,12(sp)
  803ffc:	d9401d17 	ldw	r5,116(sp)
  804000:	100d883a 	mov	r6,r2
  804004:	d9001a17 	ldw	r4,104(sp)
  804008:	08342680 	call	834268 <_ZNSs6assignEPKcm>
  80400c:	d9000204 	addi	r4,sp,8
  804010:	08433e40 	call	8433e4 <_Unwind_SjLj_Unregister>
  804014:	d8801e17 	ldw	r2,120(sp)
  804018:	dfc02217 	ldw	ra,136(sp)
  80401c:	df002117 	ldw	fp,132(sp)
  804020:	ddc02017 	ldw	r23,128(sp)
  804024:	dec02304 	addi	sp,sp,140
  804028:	f800283a 	ret
  80402c:	00800084 	movi	r2,2
  804030:	d8800315 	stw	r2,12(sp)
  804034:	d9001a17 	ldw	r4,104(sp)
  804038:	01402004 	movi	r5,128
  80403c:	08337cc0 	call	8337cc <_ZNSs7reserveEm>
  804040:	008021b4 	movhi	r2,134
  804044:	10b3c604 	addi	r2,r2,-12520
  804048:	10800017 	ldw	r2,0(r2)
  80404c:	d8801c15 	stw	r2,112(sp)
  804050:	10800017 	ldw	r2,0(r2)
  804054:	1009883a 	mov	r4,r2
  804058:	d8801815 	stw	r2,96(sp)
  80405c:	08482f80 	call	8482f8 <strlen>
  804060:	00c00084 	movi	r3,2
  804064:	d8c00315 	stw	r3,12(sp)
  804068:	d9401817 	ldw	r5,96(sp)
  80406c:	100d883a 	mov	r6,r2
  804070:	d9001a17 	ldw	r4,104(sp)
  804074:	0833a5c0 	call	833a5c <_ZNSs6appendEPKcm>
  804078:	d9001a17 	ldw	r4,104(sp)
  80407c:	20800017 	ldw	r2,0(r4)
  804080:	113ffd04 	addi	r4,r2,-12
  804084:	20c00017 	ldw	r3,0(r4)
  804088:	20800117 	ldw	r2,4(r4)
  80408c:	18c00044 	addi	r3,r3,1
  804090:	d8c01715 	stw	r3,92(sp)
  804094:	10c00236 	bltu	r2,r3,8040a0 <_ZNKSt6locale4nameEv+0x178>
  804098:	20800217 	ldw	r2,8(r4)
  80409c:	0080050e 	bge	zero,r2,8040b4 <_ZNKSt6locale4nameEv+0x18c>
  8040a0:	01800084 	movi	r6,2
  8040a4:	d9800315 	stw	r6,12(sp)
  8040a8:	d9001a17 	ldw	r4,104(sp)
  8040ac:	d9401717 	ldw	r5,92(sp)
  8040b0:	08337cc0 	call	8337cc <_ZNSs7reserveEm>
  8040b4:	d8801a17 	ldw	r2,104(sp)
  8040b8:	01000f44 	movi	r4,61
  8040bc:	10c00017 	ldw	r3,0(r2)
  8040c0:	18bffd17 	ldw	r2,-12(r3)
  8040c4:	1887883a 	add	r3,r3,r2
  8040c8:	19000005 	stb	r4,0(r3)
  8040cc:	d8c01a17 	ldw	r3,104(sp)
  8040d0:	d9001717 	ldw	r4,92(sp)
  8040d4:	18800017 	ldw	r2,0(r3)
  8040d8:	10bffd04 	addi	r2,r2,-12
  8040dc:	1107883a 	add	r3,r2,r4
  8040e0:	11000015 	stw	r4,0(r2)
  8040e4:	10000215 	stw	zero,8(r2)
  8040e8:	18000305 	stb	zero,12(r3)
  8040ec:	d9801f17 	ldw	r6,124(sp)
  8040f0:	30800017 	ldw	r2,0(r6)
  8040f4:	10c00417 	ldw	r3,16(r2)
  8040f8:	18c00017 	ldw	r3,0(r3)
  8040fc:	1809883a 	mov	r4,r3
  804100:	d8c01615 	stw	r3,88(sp)
  804104:	08482f80 	call	8482f8 <strlen>
  804108:	00c00084 	movi	r3,2
  80410c:	d8c00315 	stw	r3,12(sp)
  804110:	d9401617 	ldw	r5,88(sp)
  804114:	100d883a 	mov	r6,r2
  804118:	d9001a17 	ldw	r4,104(sp)
  80411c:	0833a5c0 	call	833a5c <_ZNSs6appendEPKcm>
  804120:	01000104 	movi	r4,4
  804124:	d9001015 	stw	r4,64(sp)
  804128:	d9801a17 	ldw	r6,104(sp)
  80412c:	30800017 	ldw	r2,0(r6)
  804130:	113ffd17 	ldw	r4,-12(r2)
  804134:	10bffd04 	addi	r2,r2,-12
  804138:	10c00117 	ldw	r3,4(r2)
  80413c:	21000044 	addi	r4,r4,1
  804140:	d9001515 	stw	r4,84(sp)
  804144:	19000236 	bltu	r3,r4,804150 <_ZNKSt6locale4nameEv+0x228>
  804148:	10800217 	ldw	r2,8(r2)
  80414c:	0080050e 	bge	zero,r2,804164 <_ZNKSt6locale4nameEv+0x23c>
  804150:	00800084 	movi	r2,2
  804154:	d8800315 	stw	r2,12(sp)
  804158:	d9001a17 	ldw	r4,104(sp)
  80415c:	d9401517 	ldw	r5,84(sp)
  804160:	08337cc0 	call	8337cc <_ZNSs7reserveEm>
  804164:	d8c01a17 	ldw	r3,104(sp)
  804168:	d9001c17 	ldw	r4,112(sp)
  80416c:	d9801017 	ldw	r6,64(sp)
  804170:	18800017 	ldw	r2,0(r3)
  804174:	218b883a 	add	r5,r4,r6
  804178:	10fffd17 	ldw	r3,-12(r2)
  80417c:	10c5883a 	add	r2,r2,r3
  804180:	00c00ec4 	movi	r3,59
  804184:	10c00005 	stb	r3,0(r2)
  804188:	d9001a17 	ldw	r4,104(sp)
  80418c:	d9801517 	ldw	r6,84(sp)
  804190:	20c00017 	ldw	r3,0(r4)
  804194:	193ffd04 	addi	r4,r3,-12
  804198:	2185883a 	add	r2,r4,r6
  80419c:	19bffd15 	stw	r6,-12(r3)
  8041a0:	20000215 	stw	zero,8(r4)
  8041a4:	10800304 	addi	r2,r2,12
  8041a8:	10000005 	stb	zero,0(r2)
  8041ac:	29400017 	ldw	r5,0(r5)
  8041b0:	2809883a 	mov	r4,r5
  8041b4:	d9401415 	stw	r5,80(sp)
  8041b8:	08482f80 	call	8482f8 <strlen>
  8041bc:	00c00084 	movi	r3,2
  8041c0:	d8c00315 	stw	r3,12(sp)
  8041c4:	d9401417 	ldw	r5,80(sp)
  8041c8:	100d883a 	mov	r6,r2
  8041cc:	d9001a17 	ldw	r4,104(sp)
  8041d0:	0833a5c0 	call	833a5c <_ZNSs6appendEPKcm>
  8041d4:	d9001a17 	ldw	r4,104(sp)
  8041d8:	01800304 	movi	r6,12
  8041dc:	20800017 	ldw	r2,0(r4)
  8041e0:	1189c83a 	sub	r4,r2,r6
  8041e4:	20c00017 	ldw	r3,0(r4)
  8041e8:	20800117 	ldw	r2,4(r4)
  8041ec:	18c00044 	addi	r3,r3,1
  8041f0:	d8c01315 	stw	r3,76(sp)
  8041f4:	10c00236 	bltu	r2,r3,804200 <_ZNKSt6locale4nameEv+0x2d8>
  8041f8:	20800217 	ldw	r2,8(r4)
  8041fc:	0080050e 	bge	zero,r2,804214 <_ZNKSt6locale4nameEv+0x2ec>
  804200:	00800084 	movi	r2,2
  804204:	d8800315 	stw	r2,12(sp)
  804208:	d9001a17 	ldw	r4,104(sp)
  80420c:	d9401317 	ldw	r5,76(sp)
  804210:	08337cc0 	call	8337cc <_ZNSs7reserveEm>
  804214:	d8c01a17 	ldw	r3,104(sp)
  804218:	01000f44 	movi	r4,61
  80421c:	18800017 	ldw	r2,0(r3)
  804220:	10fffd17 	ldw	r3,-12(r2)
  804224:	10c5883a 	add	r2,r2,r3
  804228:	11000005 	stb	r4,0(r2)
  80422c:	d9001a17 	ldw	r4,104(sp)
  804230:	d9801317 	ldw	r6,76(sp)
  804234:	20c00017 	ldw	r3,0(r4)
  804238:	18bffd04 	addi	r2,r3,-12
  80423c:	1189883a 	add	r4,r2,r6
  804240:	19bffd15 	stw	r6,-12(r3)
  804244:	10000215 	stw	zero,8(r2)
  804248:	20000305 	stb	zero,12(r4)
  80424c:	d8801f17 	ldw	r2,124(sp)
  804250:	10c00017 	ldw	r3,0(r2)
  804254:	18800417 	ldw	r2,16(r3)
  804258:	d8c01017 	ldw	r3,64(sp)
  80425c:	10c5883a 	add	r2,r2,r3
  804260:	10800017 	ldw	r2,0(r2)
  804264:	1009883a 	mov	r4,r2
  804268:	d8801215 	stw	r2,72(sp)
  80426c:	08482f80 	call	8482f8 <strlen>
  804270:	01000084 	movi	r4,2
  804274:	d9000315 	stw	r4,12(sp)
  804278:	d9401217 	ldw	r5,72(sp)
  80427c:	100d883a 	mov	r6,r2
  804280:	d9001a17 	ldw	r4,104(sp)
  804284:	0833a5c0 	call	833a5c <_ZNSs6appendEPKcm>
  804288:	d9801017 	ldw	r6,64(sp)
  80428c:	00800604 	movi	r2,24
  804290:	31800104 	addi	r6,r6,4
  804294:	d9801015 	stw	r6,64(sp)
  804298:	30bfa31e 	bne	r6,r2,804128 <_ZNKSt6locale4nameEv+0x200>
  80429c:	d9000204 	addi	r4,sp,8
  8042a0:	08433e40 	call	8433e4 <_Unwind_SjLj_Unregister>
  8042a4:	d8801e17 	ldw	r2,120(sp)
  8042a8:	dfc02217 	ldw	ra,136(sp)
  8042ac:	df002117 	ldw	fp,132(sp)
  8042b0:	ddc02017 	ldw	r23,128(sp)
  8042b4:	dec02304 	addi	sp,sp,140
  8042b8:	f800283a 	ret
  8042bc:	00800a84 	movi	r2,42
  8042c0:	00c00084 	movi	r3,2
  8042c4:	21bffd17 	ldw	r6,-12(r4)
  8042c8:	000b883a 	mov	r5,zero
  8042cc:	d8800015 	stw	r2,0(sp)
  8042d0:	d8c00315 	stw	r3,12(sp)
  8042d4:	d9001e17 	ldw	r4,120(sp)
  8042d8:	01c00044 	movi	r7,1
  8042dc:	08344300 	call	834430 <_ZNSs14_M_replace_auxEmmmc>
  8042e0:	003f4a06 	br	80400c <_ZNKSt6locale4nameEv+0xe4>
  8042e4:	d8c00317 	ldw	r3,12(sp)
  8042e8:	00800044 	movi	r2,1
  8042ec:	d9000417 	ldw	r4,16(sp)
  8042f0:	18800326 	beq	r3,r2,804300 <_ZNKSt6locale4nameEv+0x3d8>
  8042f4:	00bfffc4 	movi	r2,-1
  8042f8:	d8800315 	stw	r2,12(sp)
  8042fc:	08436a00 	call	8436a0 <_Unwind_SjLj_Resume>
  804300:	d8c01a17 	ldw	r3,104(sp)
  804304:	d9001b15 	stw	r4,108(sp)
  804308:	010021b4 	movhi	r4,134
  80430c:	213c6a04 	addi	r4,r4,-3672
  804310:	18800017 	ldw	r2,0(r3)
  804314:	10bffd04 	addi	r2,r2,-12
  804318:	d8801115 	stw	r2,68(sp)
  80431c:	2080041e 	bne	r4,r2,804330 <_ZNKSt6locale4nameEv+0x408>
  804320:	d9001b17 	ldw	r4,108(sp)
  804324:	00bfffc4 	movi	r2,-1
  804328:	d8800315 	stw	r2,12(sp)
  80432c:	08436a00 	call	8436a0 <_Unwind_SjLj_Resume>
  804330:	d9801117 	ldw	r6,68(sp)
  804334:	00800044 	movi	r2,1
  804338:	d8800315 	stw	r2,12(sp)
  80433c:	31000204 	addi	r4,r6,8
  804340:	017fffc4 	movi	r5,-1
  804344:	08355740 	call	835574 <_ZN9__gnu_cxx18__exchange_and_addEPVii>
  804348:	00bff516 	blt	zero,r2,804320 <_ZNKSt6locale4nameEv+0x3f8>
  80434c:	d9001117 	ldw	r4,68(sp)
  804350:	d9400104 	addi	r5,sp,4
  804354:	08320040 	call	832004 <_ZNSs4_Rep10_M_destroyERKSaIcE>
  804358:	003ff106 	br	804320 <_ZNKSt6locale4nameEv+0x3f8>

0080435c <_ZNKSt6localeeqERKS_>:
  80435c:	deffdc04 	addi	sp,sp,-144
  804360:	00802134 	movhi	r2,132
  804364:	10a08504 	addi	r2,r2,-32236
  804368:	00c02174 	movhi	r3,133
  80436c:	18de9704 	addi	r3,r3,31324
  804370:	d8800b15 	stw	r2,44(sp)
  804374:	d9001e15 	stw	r4,120(sp)
  804378:	00802034 	movhi	r2,128
  80437c:	10916504 	addi	r2,r2,17812
  804380:	d9000504 	addi	r4,sp,20
  804384:	d8c00c15 	stw	r3,48(sp)
  804388:	d8800e15 	stw	r2,56(sp)
  80438c:	dfc02315 	stw	ra,140(sp)
  804390:	df002215 	stw	fp,136(sp)
  804394:	ddc02115 	stw	r23,132(sp)
  804398:	d9401f15 	stw	r5,124(sp)
  80439c:	dec00d15 	stw	sp,52(sp)
  8043a0:	dec00f15 	stw	sp,60(sp)
  8043a4:	08433d40 	call	8433d4 <_Unwind_SjLj_Register>
  8043a8:	d8c01e17 	ldw	r3,120(sp)
  8043ac:	d9001f17 	ldw	r4,124(sp)
  8043b0:	18800017 	ldw	r2,0(r3)
  8043b4:	20c00017 	ldw	r3,0(r4)
  8043b8:	10c05426 	beq	r2,r3,80450c <_ZNKSt6localeeqERKS_+0x1b0>
  8043bc:	10800417 	ldw	r2,16(r2)
  8043c0:	11000017 	ldw	r4,0(r2)
  8043c4:	d8801d15 	stw	r2,116(sp)
  8043c8:	20004226 	beq	r4,zero,8044d4 <_ZNKSt6localeeqERKS_+0x178>
  8043cc:	18c00417 	ldw	r3,16(r3)
  8043d0:	19400017 	ldw	r5,0(r3)
  8043d4:	d8c01c15 	stw	r3,112(sp)
  8043d8:	28003e26 	beq	r5,zero,8044d4 <_ZNKSt6localeeqERKS_+0x178>
  8043dc:	08470e80 	call	8470e8 <strcmp>
  8043e0:	10003c1e 	bne	r2,zero,8044d4 <_ZNKSt6localeeqERKS_+0x178>
  8043e4:	d8c01d17 	ldw	r3,116(sp)
  8043e8:	18800117 	ldw	r2,4(r3)
  8043ec:	10004426 	beq	r2,zero,804500 <_ZNKSt6localeeqERKS_+0x1a4>
  8043f0:	00800144 	movi	r2,5
  8043f4:	d8800615 	stw	r2,24(sp)
  8043f8:	d9401e17 	ldw	r5,120(sp)
  8043fc:	d9000204 	addi	r4,sp,8
  804400:	0803f280 	call	803f28 <_ZNKSt6locale4nameEv>
  804404:	d8800217 	ldw	r2,8(sp)
  804408:	01000104 	movi	r4,4
  80440c:	d9000615 	stw	r4,24(sp)
  804410:	d9401f17 	ldw	r5,124(sp)
  804414:	d909883a 	add	r4,sp,r4
  804418:	d8801715 	stw	r2,92(sp)
  80441c:	0803f280 	call	803f28 <_ZNKSt6locale4nameEv>
  804420:	d9400117 	ldw	r5,4(sp)
  804424:	d8c01717 	ldw	r3,92(sp)
  804428:	00bffd04 	movi	r2,-12
  80442c:	1887883a 	add	r3,r3,r2
  804430:	2885883a 	add	r2,r5,r2
  804434:	19000017 	ldw	r4,0(r3)
  804438:	d8801915 	stw	r2,100(sp)
  80443c:	10800017 	ldw	r2,0(r2)
  804440:	d8c01815 	stw	r3,96(sp)
  804444:	d9001415 	stw	r4,80(sp)
  804448:	d8801515 	stw	r2,84(sp)
  80444c:	d9000315 	stw	r4,12(sp)
  804450:	d8800415 	stw	r2,16(sp)
  804454:	11002836 	bltu	r2,r4,8044f8 <_ZNKSt6localeeqERKS_+0x19c>
  804458:	d9800304 	addi	r6,sp,12
  80445c:	31800017 	ldw	r6,0(r6)
  804460:	d9001717 	ldw	r4,92(sp)
  804464:	084607c0 	call	84607c <memcmp>
  804468:	d8801615 	stw	r2,88(sp)
  80446c:	1000041e 	bne	r2,zero,804480 <_ZNKSt6localeeqERKS_+0x124>
  804470:	d8c01417 	ldw	r3,80(sp)
  804474:	d9001517 	ldw	r4,84(sp)
  804478:	1907c83a 	sub	r3,r3,r4
  80447c:	d8c01615 	stw	r3,88(sp)
  804480:	d9001917 	ldw	r4,100(sp)
  804484:	008021b4 	movhi	r2,134
  804488:	10bc6a04 	addi	r2,r2,-3672
  80448c:	2080331e 	bne	r4,r2,80455c <_ZNKSt6localeeqERKS_+0x200>
  804490:	d9001617 	ldw	r4,88(sp)
  804494:	00c021b4 	movhi	r3,134
  804498:	18fc6a04 	addi	r3,r3,-3672
  80449c:	2005003a 	cmpeq	r2,r4,zero
  8044a0:	d8802005 	stb	r2,128(sp)
  8044a4:	d8801817 	ldw	r2,96(sp)
  8044a8:	10c0221e 	bne	r2,r3,804534 <_ZNKSt6localeeqERKS_+0x1d8>
  8044ac:	d9002003 	ldbu	r4,128(sp)
  8044b0:	d9001215 	stw	r4,72(sp)
  8044b4:	d9000504 	addi	r4,sp,20
  8044b8:	08433e40 	call	8433e4 <_Unwind_SjLj_Unregister>
  8044bc:	d8801217 	ldw	r2,72(sp)
  8044c0:	dfc02317 	ldw	ra,140(sp)
  8044c4:	df002217 	ldw	fp,136(sp)
  8044c8:	ddc02117 	ldw	r23,132(sp)
  8044cc:	dec02404 	addi	sp,sp,144
  8044d0:	f800283a 	ret
  8044d4:	d9000504 	addi	r4,sp,20
  8044d8:	d8001215 	stw	zero,72(sp)
  8044dc:	08433e40 	call	8433e4 <_Unwind_SjLj_Unregister>
  8044e0:	d8801217 	ldw	r2,72(sp)
  8044e4:	dfc02317 	ldw	ra,140(sp)
  8044e8:	df002217 	ldw	fp,136(sp)
  8044ec:	ddc02117 	ldw	r23,132(sp)
  8044f0:	dec02404 	addi	sp,sp,144
  8044f4:	f800283a 	ret
  8044f8:	d9800404 	addi	r6,sp,16
  8044fc:	003fd706 	br	80445c <_ZNKSt6localeeqERKS_+0x100>
  804500:	d9001c17 	ldw	r4,112(sp)
  804504:	20800117 	ldw	r2,4(r4)
  804508:	103fb91e 	bne	r2,zero,8043f0 <_ZNKSt6localeeqERKS_+0x94>
  80450c:	00800044 	movi	r2,1
  804510:	d9000504 	addi	r4,sp,20
  804514:	d8801215 	stw	r2,72(sp)
  804518:	08433e40 	call	8433e4 <_Unwind_SjLj_Unregister>
  80451c:	d8801217 	ldw	r2,72(sp)
  804520:	dfc02317 	ldw	ra,140(sp)
  804524:	df002217 	ldw	fp,136(sp)
  804528:	ddc02117 	ldw	r23,132(sp)
  80452c:	dec02404 	addi	sp,sp,144
  804530:	f800283a 	ret
  804534:	00800044 	movi	r2,1
  804538:	d8800615 	stw	r2,24(sp)
  80453c:	d8801817 	ldw	r2,96(sp)
  804540:	017fffc4 	movi	r5,-1
  804544:	11000204 	addi	r4,r2,8
  804548:	08355740 	call	835574 <_ZN9__gnu_cxx18__exchange_and_addEPVii>
  80454c:	00800d0e 	bge	zero,r2,804584 <_ZNKSt6localeeqERKS_+0x228>
  804550:	d8c02003 	ldbu	r3,128(sp)
  804554:	d8c01215 	stw	r3,72(sp)
  804558:	003fd606 	br	8044b4 <_ZNKSt6localeeqERKS_+0x158>
  80455c:	008000c4 	movi	r2,3
  804560:	d8800615 	stw	r2,24(sp)
  804564:	21000204 	addi	r4,r4,8
  804568:	017fffc4 	movi	r5,-1
  80456c:	08355740 	call	835574 <_ZN9__gnu_cxx18__exchange_and_addEPVii>
  804570:	00bfc716 	blt	zero,r2,804490 <_ZNKSt6localeeqERKS_+0x134>
  804574:	d9001917 	ldw	r4,100(sp)
  804578:	d9400084 	addi	r5,sp,2
  80457c:	08320040 	call	832004 <_ZNSs4_Rep10_M_destroyERKSaIcE>
  804580:	003fc306 	br	804490 <_ZNKSt6localeeqERKS_+0x134>
  804584:	d9001817 	ldw	r4,96(sp)
  804588:	d80b883a 	mov	r5,sp
  80458c:	08320040 	call	832004 <_ZNSs4_Rep10_M_destroyERKSaIcE>
  804590:	003fc606 	br	8044ac <_ZNKSt6localeeqERKS_+0x150>
  804594:	d8c00617 	ldw	r3,24(sp)
  804598:	00800044 	movi	r2,1
  80459c:	d9000717 	ldw	r4,28(sp)
  8045a0:	d9400817 	ldw	r5,32(sp)
  8045a4:	18800426 	beq	r3,r2,8045b8 <_ZNKSt6localeeqERKS_+0x25c>
  8045a8:	00800084 	movi	r2,2
  8045ac:	18800626 	beq	r3,r2,8045c8 <_ZNKSt6localeeqERKS_+0x26c>
  8045b0:	008000c4 	movi	r2,3
  8045b4:	18800426 	beq	r3,r2,8045c8 <_ZNKSt6localeeqERKS_+0x26c>
  8045b8:	00bfffc4 	movi	r2,-1
  8045bc:	28800e26 	beq	r5,r2,8045f8 <_ZNKSt6localeeqERKS_+0x29c>
  8045c0:	d8800615 	stw	r2,24(sp)
  8045c4:	08436a00 	call	8436a0 <_Unwind_SjLj_Resume>
  8045c8:	d8801717 	ldw	r2,92(sp)
  8045cc:	d9401a15 	stw	r5,104(sp)
  8045d0:	d9001b15 	stw	r4,108(sp)
  8045d4:	10bffd04 	addi	r2,r2,-12
  8045d8:	d8801315 	stw	r2,76(sp)
  8045dc:	d8c01317 	ldw	r3,76(sp)
  8045e0:	008021b4 	movhi	r2,134
  8045e4:	10bc6a04 	addi	r2,r2,-3672
  8045e8:	1880061e 	bne	r3,r2,804604 <_ZNKSt6localeeqERKS_+0x2a8>
  8045ec:	d9001b17 	ldw	r4,108(sp)
  8045f0:	d9401a17 	ldw	r5,104(sp)
  8045f4:	003ff006 	br	8045b8 <_ZNKSt6localeeqERKS_+0x25c>
  8045f8:	00bfffc4 	movi	r2,-1
  8045fc:	d8800615 	stw	r2,24(sp)
  804600:	08380940 	call	838094 <__cxa_call_unexpected>
  804604:	00800084 	movi	r2,2
  804608:	d8800615 	stw	r2,24(sp)
  80460c:	19000204 	addi	r4,r3,8
  804610:	017fffc4 	movi	r5,-1
  804614:	08355740 	call	835574 <_ZN9__gnu_cxx18__exchange_and_addEPVii>
  804618:	00bff416 	blt	zero,r2,8045ec <_ZNKSt6localeeqERKS_+0x290>
  80461c:	d9001317 	ldw	r4,76(sp)
  804620:	d9400044 	addi	r5,sp,1
  804624:	08320040 	call	832004 <_ZNSs4_Rep10_M_destroyERKSaIcE>
  804628:	003ff006 	br	8045ec <_ZNKSt6localeeqERKS_+0x290>

0080462c <_ZNSt6locale5_ImplD1Ev>:
  80462c:	deffe104 	addi	sp,sp,-124
  804630:	00802134 	movhi	r2,132
  804634:	10a08504 	addi	r2,r2,-32236
  804638:	d8800615 	stw	r2,24(sp)
  80463c:	00c02174 	movhi	r3,133
  804640:	18de9d04 	addi	r3,r3,31348
  804644:	00802034 	movhi	r2,128
  804648:	10921d04 	addi	r2,r2,18548
  80464c:	d9001415 	stw	r4,80(sp)
  804650:	d809883a 	mov	r4,sp
  804654:	d8800915 	stw	r2,36(sp)
  804658:	dfc01e15 	stw	ra,120(sp)
  80465c:	df001d15 	stw	fp,116(sp)
  804660:	ddc01c15 	stw	r23,112(sp)
  804664:	dd801b15 	stw	r22,108(sp)
  804668:	dd401a15 	stw	r21,104(sp)
  80466c:	dd001915 	stw	r20,100(sp)
  804670:	dcc01815 	stw	r19,96(sp)
  804674:	dc801715 	stw	r18,92(sp)
  804678:	dc401615 	stw	r17,88(sp)
  80467c:	dc001515 	stw	r16,84(sp)
  804680:	d8c00715 	stw	r3,28(sp)
  804684:	dec00815 	stw	sp,32(sp)
  804688:	dec00a15 	stw	sp,40(sp)
  80468c:	08433d40 	call	8433d4 <_Unwind_SjLj_Register>
  804690:	d8801417 	ldw	r2,80(sp)
  804694:	11000117 	ldw	r4,4(r2)
  804698:	20002726 	beq	r4,zero,804738 <_ZNSt6locale5_ImplD1Ev+0x10c>
  80469c:	10800217 	ldw	r2,8(r2)
  8046a0:	10002426 	beq	r2,zero,804734 <_ZNSt6locale5_ImplD1Ev+0x108>
  8046a4:	d8001115 	stw	zero,68(sp)
  8046a8:	d8000d15 	stw	zero,52(sp)
  8046ac:	d8c01417 	ldw	r3,80(sp)
  8046b0:	18800117 	ldw	r2,4(r3)
  8046b4:	d8c00d17 	ldw	r3,52(sp)
  8046b8:	1885883a 	add	r2,r3,r2
  8046bc:	10800017 	ldw	r2,0(r2)
  8046c0:	d8801315 	stw	r2,76(sp)
  8046c4:	10000e26 	beq	r2,zero,804700 <_ZNSt6locale5_ImplD1Ev+0xd4>
  8046c8:	01000104 	movi	r4,4
  8046cc:	d9000115 	stw	r4,4(sp)
  8046d0:	017fffc4 	movi	r5,-1
  8046d4:	1109883a 	add	r4,r2,r4
  8046d8:	08355740 	call	835574 <_ZN9__gnu_cxx18__exchange_and_addEPVii>
  8046dc:	00c00044 	movi	r3,1
  8046e0:	10c0071e 	bne	r2,r3,804700 <_ZNSt6locale5_ImplD1Ev+0xd4>
  8046e4:	d8c01317 	ldw	r3,76(sp)
  8046e8:	18800017 	ldw	r2,0(r3)
  8046ec:	1809883a 	mov	r4,r3
  8046f0:	00c000c4 	movi	r3,3
  8046f4:	11400117 	ldw	r5,4(r2)
  8046f8:	d8c00115 	stw	r3,4(sp)
  8046fc:	283ee83a 	callr	r5
  804700:	d8c01417 	ldw	r3,80(sp)
  804704:	18800217 	ldw	r2,8(r3)
  804708:	d8c01117 	ldw	r3,68(sp)
  80470c:	18c00044 	addi	r3,r3,1
  804710:	d8c01115 	stw	r3,68(sp)
  804714:	d8c00d17 	ldw	r3,52(sp)
  804718:	18c00104 	addi	r3,r3,4
  80471c:	d8c00d15 	stw	r3,52(sp)
  804720:	d8c01117 	ldw	r3,68(sp)
  804724:	18bfe136 	bltu	r3,r2,8046ac <_ZNSt6locale5_ImplD1Ev+0x80>
  804728:	d8801417 	ldw	r2,80(sp)
  80472c:	11000117 	ldw	r4,4(r2)
  804730:	20000126 	beq	r4,zero,804738 <_ZNSt6locale5_ImplD1Ev+0x10c>
  804734:	0837aac0 	call	837aac <_ZdaPv>
  804738:	d8c01417 	ldw	r3,80(sp)
  80473c:	19000317 	ldw	r4,12(r3)
  804740:	20002a26 	beq	r4,zero,8047ec <_ZNSt6locale5_ImplD1Ev+0x1c0>
  804744:	18800217 	ldw	r2,8(r3)
  804748:	10002726 	beq	r2,zero,8047e8 <_ZNSt6locale5_ImplD1Ev+0x1bc>
  80474c:	d8001015 	stw	zero,64(sp)
  804750:	d8000e15 	stw	zero,56(sp)
  804754:	00000a06 	br	804780 <_ZNSt6locale5_ImplD1Ev+0x154>
  804758:	d8c01417 	ldw	r3,80(sp)
  80475c:	18800217 	ldw	r2,8(r3)
  804760:	d8c01017 	ldw	r3,64(sp)
  804764:	18c00044 	addi	r3,r3,1
  804768:	d8c01015 	stw	r3,64(sp)
  80476c:	d8c00e17 	ldw	r3,56(sp)
  804770:	18c00104 	addi	r3,r3,4
  804774:	d8c00e15 	stw	r3,56(sp)
  804778:	d8c01017 	ldw	r3,64(sp)
  80477c:	1880172e 	bgeu	r3,r2,8047dc <_ZNSt6locale5_ImplD1Ev+0x1b0>
  804780:	d8c01417 	ldw	r3,80(sp)
  804784:	18800317 	ldw	r2,12(r3)
  804788:	d8c00e17 	ldw	r3,56(sp)
  80478c:	10c5883a 	add	r2,r2,r3
  804790:	10800017 	ldw	r2,0(r2)
  804794:	d8801215 	stw	r2,72(sp)
  804798:	103fef26 	beq	r2,zero,804758 <_ZNSt6locale5_ImplD1Ev+0x12c>
  80479c:	00800084 	movi	r2,2
  8047a0:	d8800115 	stw	r2,4(sp)
  8047a4:	d8801217 	ldw	r2,72(sp)
  8047a8:	017fffc4 	movi	r5,-1
  8047ac:	11000104 	addi	r4,r2,4
  8047b0:	08355740 	call	835574 <_ZN9__gnu_cxx18__exchange_and_addEPVii>
  8047b4:	100b883a 	mov	r5,r2
  8047b8:	00800044 	movi	r2,1
  8047bc:	28bfe61e 	bne	r5,r2,804758 <_ZNSt6locale5_ImplD1Ev+0x12c>
  8047c0:	d8c01217 	ldw	r3,72(sp)
  8047c4:	18800017 	ldw	r2,0(r3)
  8047c8:	1809883a 	mov	r4,r3
  8047cc:	10c00117 	ldw	r3,4(r2)
  8047d0:	d9400115 	stw	r5,4(sp)
  8047d4:	183ee83a 	callr	r3
  8047d8:	003fdf06 	br	804758 <_ZNSt6locale5_ImplD1Ev+0x12c>
  8047dc:	d8801417 	ldw	r2,80(sp)
  8047e0:	11000317 	ldw	r4,12(r2)
  8047e4:	20000126 	beq	r4,zero,8047ec <_ZNSt6locale5_ImplD1Ev+0x1c0>
  8047e8:	0837aac0 	call	837aac <_ZdaPv>
  8047ec:	d8c01417 	ldw	r3,80(sp)
  8047f0:	18800417 	ldw	r2,16(r3)
  8047f4:	10001126 	beq	r2,zero,80483c <_ZNSt6locale5_ImplD1Ev+0x210>
  8047f8:	d8000f15 	stw	zero,60(sp)
  8047fc:	d8c01417 	ldw	r3,80(sp)
  804800:	18800417 	ldw	r2,16(r3)
  804804:	d8c00f17 	ldw	r3,60(sp)
  804808:	10c5883a 	add	r2,r2,r3
  80480c:	11000017 	ldw	r4,0(r2)
  804810:	20000126 	beq	r4,zero,804818 <_ZNSt6locale5_ImplD1Ev+0x1ec>
  804814:	0837aac0 	call	837aac <_ZdaPv>
  804818:	d8800f17 	ldw	r2,60(sp)
  80481c:	00c00604 	movi	r3,24
  804820:	10800104 	addi	r2,r2,4
  804824:	d8800f15 	stw	r2,60(sp)
  804828:	10fff41e 	bne	r2,r3,8047fc <_ZNSt6locale5_ImplD1Ev+0x1d0>
  80482c:	d8801417 	ldw	r2,80(sp)
  804830:	11000417 	ldw	r4,16(r2)
  804834:	20000126 	beq	r4,zero,80483c <_ZNSt6locale5_ImplD1Ev+0x210>
  804838:	0837aac0 	call	837aac <_ZdaPv>
  80483c:	d809883a 	mov	r4,sp
  804840:	08433e40 	call	8433e4 <_Unwind_SjLj_Unregister>
  804844:	dfc01e17 	ldw	ra,120(sp)
  804848:	df001d17 	ldw	fp,116(sp)
  80484c:	ddc01c17 	ldw	r23,112(sp)
  804850:	dd801b17 	ldw	r22,108(sp)
  804854:	dd401a17 	ldw	r21,104(sp)
  804858:	dd001917 	ldw	r20,100(sp)
  80485c:	dcc01817 	ldw	r19,96(sp)
  804860:	dc801717 	ldw	r18,92(sp)
  804864:	dc401617 	ldw	r17,88(sp)
  804868:	dc001517 	ldw	r16,84(sp)
  80486c:	dec01f04 	addi	sp,sp,124
  804870:	f800283a 	ret
  804874:	d8c00117 	ldw	r3,4(sp)
  804878:	00800044 	movi	r2,1
  80487c:	d9000217 	ldw	r4,8(sp)
  804880:	d9400317 	ldw	r5,12(sp)
  804884:	18800826 	beq	r3,r2,8048a8 <_ZNSt6locale5_ImplD1Ev+0x27c>
  804888:	00800084 	movi	r2,2
  80488c:	18800a26 	beq	r3,r2,8048b8 <_ZNSt6locale5_ImplD1Ev+0x28c>
  804890:	008000c4 	movi	r2,3
  804894:	18800426 	beq	r3,r2,8048a8 <_ZNSt6locale5_ImplD1Ev+0x27c>
  804898:	08379880 	call	837988 <__cxa_begin_catch>
  80489c:	d8000115 	stw	zero,4(sp)
  8048a0:	08378e40 	call	8378e4 <__cxa_end_catch>
  8048a4:	003fac06 	br	804758 <_ZNSt6locale5_ImplD1Ev+0x12c>
  8048a8:	00bfffc4 	movi	r2,-1
  8048ac:	28800626 	beq	r5,r2,8048c8 <_ZNSt6locale5_ImplD1Ev+0x29c>
  8048b0:	d8800115 	stw	r2,4(sp)
  8048b4:	08436a00 	call	8436a0 <_Unwind_SjLj_Resume>
  8048b8:	08379880 	call	837988 <__cxa_begin_catch>
  8048bc:	d8000115 	stw	zero,4(sp)
  8048c0:	08378e40 	call	8378e4 <__cxa_end_catch>
  8048c4:	003f8e06 	br	804700 <_ZNSt6locale5_ImplD1Ev+0xd4>
  8048c8:	00bfffc4 	movi	r2,-1
  8048cc:	d8800115 	stw	r2,4(sp)
  8048d0:	08380940 	call	838094 <__cxa_call_unexpected>

008048d4 <_ZNSt6locale5_ImplC1ERKS0_m>:
  8048d4:	deffe504 	addi	sp,sp,-108
  8048d8:	00802134 	movhi	r2,132
  8048dc:	10a08504 	addi	r2,r2,-32236
  8048e0:	00c02174 	movhi	r3,133
  8048e4:	18dea404 	addi	r3,r3,31376
  8048e8:	d8800615 	stw	r2,24(sp)
  8048ec:	d9001415 	stw	r4,80(sp)
  8048f0:	00802034 	movhi	r2,128
  8048f4:	1092d204 	addi	r2,r2,19272
  8048f8:	d809883a 	mov	r4,sp
  8048fc:	d8c00715 	stw	r3,28(sp)
  804900:	d8800915 	stw	r2,36(sp)
  804904:	dfc01a15 	stw	ra,104(sp)
  804908:	df001915 	stw	fp,100(sp)
  80490c:	ddc01815 	stw	r23,96(sp)
  804910:	d9401515 	stw	r5,84(sp)
  804914:	dec00815 	stw	sp,32(sp)
  804918:	dec00a15 	stw	sp,40(sp)
  80491c:	d9801615 	stw	r6,88(sp)
  804920:	08433d40 	call	8433d4 <_Unwind_SjLj_Register>
  804924:	d8801517 	ldw	r2,84(sp)
  804928:	d8c01417 	ldw	r3,80(sp)
  80492c:	11000217 	ldw	r4,8(r2)
  804930:	d8801617 	ldw	r2,88(sp)
  804934:	18000115 	stw	zero,4(r3)
  804938:	19000215 	stw	r4,8(r3)
  80493c:	18800015 	stw	r2,0(r3)
  804940:	18000315 	stw	zero,12(r3)
  804944:	18000415 	stw	zero,16(r3)
  804948:	00800104 	movi	r2,4
  80494c:	2109883a 	add	r4,r4,r4
  804950:	d8800115 	stw	r2,4(sp)
  804954:	2109883a 	add	r4,r4,r4
  804958:	083781c0 	call	83781c <_Znam>
  80495c:	d8c01417 	ldw	r3,80(sp)
  804960:	19000217 	ldw	r4,8(r3)
  804964:	18800115 	stw	r2,4(r3)
  804968:	20001b26 	beq	r4,zero,8049d8 <_ZNSt6locale5_ImplC1ERKS0_m+0x104>
  80496c:	d8001215 	stw	zero,72(sp)
  804970:	d8000d15 	stw	zero,52(sp)
  804974:	d9001517 	ldw	r4,84(sp)
  804978:	20800117 	ldw	r2,4(r4)
  80497c:	d9001417 	ldw	r4,80(sp)
  804980:	20c00117 	ldw	r3,4(r4)
  804984:	d9000d17 	ldw	r4,52(sp)
  804988:	2085883a 	add	r2,r4,r2
  80498c:	11000017 	ldw	r4,0(r2)
  804990:	d8800d17 	ldw	r2,52(sp)
  804994:	10c7883a 	add	r3,r2,r3
  804998:	19000015 	stw	r4,0(r3)
  80499c:	20000526 	beq	r4,zero,8049b4 <_ZNSt6locale5_ImplC1ERKS0_m+0xe0>
  8049a0:	00800084 	movi	r2,2
  8049a4:	d8800115 	stw	r2,4(sp)
  8049a8:	21000104 	addi	r4,r4,4
  8049ac:	01400044 	movi	r5,1
  8049b0:	08355880 	call	835588 <_ZN9__gnu_cxx12__atomic_addEPVii>
  8049b4:	d8c01417 	ldw	r3,80(sp)
  8049b8:	d8801217 	ldw	r2,72(sp)
  8049bc:	19000217 	ldw	r4,8(r3)
  8049c0:	d8c00d17 	ldw	r3,52(sp)
  8049c4:	10800044 	addi	r2,r2,1
  8049c8:	d8801215 	stw	r2,72(sp)
  8049cc:	18c00104 	addi	r3,r3,4
  8049d0:	d8c00d15 	stw	r3,52(sp)
  8049d4:	113fe736 	bltu	r2,r4,804974 <_ZNSt6locale5_ImplC1ERKS0_m+0xa0>
  8049d8:	00800104 	movi	r2,4
  8049dc:	2109883a 	add	r4,r4,r4
  8049e0:	d8800115 	stw	r2,4(sp)
  8049e4:	2109883a 	add	r4,r4,r4
  8049e8:	083781c0 	call	83781c <_Znam>
  8049ec:	d9001417 	ldw	r4,80(sp)
  8049f0:	20c00217 	ldw	r3,8(r4)
  8049f4:	20800315 	stw	r2,12(r4)
  8049f8:	18001926 	beq	r3,zero,804a60 <_ZNSt6locale5_ImplC1ERKS0_m+0x18c>
  8049fc:	d8001115 	stw	zero,68(sp)
  804a00:	d8000e15 	stw	zero,56(sp)
  804a04:	d8c01517 	ldw	r3,84(sp)
  804a08:	d9001417 	ldw	r4,80(sp)
  804a0c:	18800317 	ldw	r2,12(r3)
  804a10:	20c00317 	ldw	r3,12(r4)
  804a14:	d9000e17 	ldw	r4,56(sp)
  804a18:	2085883a 	add	r2,r4,r2
  804a1c:	10800017 	ldw	r2,0(r2)
  804a20:	20c7883a 	add	r3,r4,r3
  804a24:	18800015 	stw	r2,0(r3)
  804a28:	10000426 	beq	r2,zero,804a3c <_ZNSt6locale5_ImplC1ERKS0_m+0x168>
  804a2c:	01400044 	movi	r5,1
  804a30:	d9400115 	stw	r5,4(sp)
  804a34:	11000104 	addi	r4,r2,4
  804a38:	08355880 	call	835588 <_ZN9__gnu_cxx12__atomic_addEPVii>
  804a3c:	d8c01417 	ldw	r3,80(sp)
  804a40:	d9001117 	ldw	r4,68(sp)
  804a44:	18800217 	ldw	r2,8(r3)
  804a48:	d8c00e17 	ldw	r3,56(sp)
  804a4c:	21000044 	addi	r4,r4,1
  804a50:	d9001115 	stw	r4,68(sp)
  804a54:	18c00104 	addi	r3,r3,4
  804a58:	d8c00e15 	stw	r3,56(sp)
  804a5c:	20bfe936 	bltu	r4,r2,804a04 <_ZNSt6locale5_ImplC1ERKS0_m+0x130>
  804a60:	01000104 	movi	r4,4
  804a64:	d9000115 	stw	r4,4(sp)
  804a68:	01000604 	movi	r4,24
  804a6c:	083781c0 	call	83781c <_Znam>
  804a70:	1009883a 	mov	r4,r2
  804a74:	d8801417 	ldw	r2,80(sp)
  804a78:	01800104 	movi	r6,4
  804a7c:	01400604 	movi	r5,24
  804a80:	11000415 	stw	r4,16(r2)
  804a84:	0007883a 	mov	r3,zero
  804a88:	20c5883a 	add	r2,r4,r3
  804a8c:	1987883a 	add	r3,r3,r6
  804a90:	10000015 	stw	zero,0(r2)
  804a94:	197ffc1e 	bne	r3,r5,804a88 <_ZNSt6locale5_ImplC1ERKS0_m+0x1b4>
  804a98:	d8000f15 	stw	zero,60(sp)
  804a9c:	d8c01517 	ldw	r3,84(sp)
  804aa0:	d9000f17 	ldw	r4,60(sp)
  804aa4:	18800417 	ldw	r2,16(r3)
  804aa8:	1105883a 	add	r2,r2,r4
  804aac:	11000017 	ldw	r4,0(r2)
  804ab0:	20001e26 	beq	r4,zero,804b2c <_ZNSt6locale5_ImplC1ERKS0_m+0x258>
  804ab4:	08482f80 	call	8482f8 <strlen>
  804ab8:	d9001417 	ldw	r4,80(sp)
  804abc:	10800044 	addi	r2,r2,1
  804ac0:	d8801015 	stw	r2,64(sp)
  804ac4:	20c00417 	ldw	r3,16(r4)
  804ac8:	d9000f17 	ldw	r4,60(sp)
  804acc:	00800104 	movi	r2,4
  804ad0:	d8800115 	stw	r2,4(sp)
  804ad4:	20c7883a 	add	r3,r4,r3
  804ad8:	d8c01315 	stw	r3,76(sp)
  804adc:	d9001017 	ldw	r4,64(sp)
  804ae0:	083781c0 	call	83781c <_Znam>
  804ae4:	d9001417 	ldw	r4,80(sp)
  804ae8:	20c00417 	ldw	r3,16(r4)
  804aec:	d9001517 	ldw	r4,84(sp)
  804af0:	21800417 	ldw	r6,16(r4)
  804af4:	d9001317 	ldw	r4,76(sp)
  804af8:	20800015 	stw	r2,0(r4)
  804afc:	d8800f17 	ldw	r2,60(sp)
  804b00:	1887883a 	add	r3,r3,r2
  804b04:	308d883a 	add	r6,r6,r2
  804b08:	19000017 	ldw	r4,0(r3)
  804b0c:	31400017 	ldw	r5,0(r6)
  804b10:	d9801017 	ldw	r6,64(sp)
  804b14:	10800104 	addi	r2,r2,4
  804b18:	d8800f15 	stw	r2,60(sp)
  804b1c:	08460f00 	call	8460f0 <memcpy>
  804b20:	d9000f17 	ldw	r4,60(sp)
  804b24:	00c00604 	movi	r3,24
  804b28:	20ffdc1e 	bne	r4,r3,804a9c <_ZNSt6locale5_ImplC1ERKS0_m+0x1c8>
  804b2c:	d809883a 	mov	r4,sp
  804b30:	08433e40 	call	8433e4 <_Unwind_SjLj_Unregister>
  804b34:	dfc01a17 	ldw	ra,104(sp)
  804b38:	df001917 	ldw	fp,100(sp)
  804b3c:	ddc01817 	ldw	r23,96(sp)
  804b40:	dec01b04 	addi	sp,sp,108
  804b44:	f800283a 	ret
  804b48:	d8800217 	ldw	r2,8(sp)
  804b4c:	d8c00117 	ldw	r3,4(sp)
  804b50:	d9000317 	ldw	r4,12(sp)
  804b54:	d8801715 	stw	r2,92(sp)
  804b58:	00800044 	movi	r2,1
  804b5c:	18800426 	beq	r3,r2,804b70 <_ZNSt6locale5_ImplC1ERKS0_m+0x29c>
  804b60:	00800084 	movi	r2,2
  804b64:	18800e26 	beq	r3,r2,804ba0 <_ZNSt6locale5_ImplC1ERKS0_m+0x2cc>
  804b68:	008000c4 	movi	r2,3
  804b6c:	18800526 	beq	r3,r2,804b84 <_ZNSt6locale5_ImplC1ERKS0_m+0x2b0>
  804b70:	00bfffc4 	movi	r2,-1
  804b74:	20800e26 	beq	r4,r2,804bb0 <_ZNSt6locale5_ImplC1ERKS0_m+0x2dc>
  804b78:	d9001717 	ldw	r4,92(sp)
  804b7c:	d8800115 	stw	r2,4(sp)
  804b80:	08436a00 	call	8436a0 <_Unwind_SjLj_Resume>
  804b84:	d9001717 	ldw	r4,92(sp)
  804b88:	08379880 	call	837988 <__cxa_begin_catch>
  804b8c:	d9001417 	ldw	r4,80(sp)
  804b90:	080462c0 	call	80462c <_ZNSt6locale5_ImplD1Ev>
  804b94:	008000c4 	movi	r2,3
  804b98:	d8800115 	stw	r2,4(sp)
  804b9c:	0836e840 	call	836e84 <__cxa_rethrow>
  804ba0:	d8000115 	stw	zero,4(sp)
  804ba4:	08378e40 	call	8378e4 <__cxa_end_catch>
  804ba8:	00bfffc4 	movi	r2,-1
  804bac:	003ff206 	br	804b78 <_ZNSt6locale5_ImplC1ERKS0_m+0x2a4>
  804bb0:	d9001717 	ldw	r4,92(sp)
  804bb4:	00bfffc4 	movi	r2,-1
  804bb8:	d8800115 	stw	r2,4(sp)
  804bbc:	08380940 	call	838094 <__cxa_call_unexpected>

00804bc0 <_ZNSt6locale5_ImplC2ERKS0_m>:
  804bc0:	deffe504 	addi	sp,sp,-108
  804bc4:	00802134 	movhi	r2,132
  804bc8:	10a08504 	addi	r2,r2,-32236
  804bcc:	00c02174 	movhi	r3,133
  804bd0:	18deab04 	addi	r3,r3,31404
  804bd4:	d8800615 	stw	r2,24(sp)
  804bd8:	d9001415 	stw	r4,80(sp)
  804bdc:	00802034 	movhi	r2,128
  804be0:	10938d04 	addi	r2,r2,20020
  804be4:	d809883a 	mov	r4,sp
  804be8:	d8c00715 	stw	r3,28(sp)
  804bec:	d8800915 	stw	r2,36(sp)
  804bf0:	dfc01a15 	stw	ra,104(sp)
  804bf4:	df001915 	stw	fp,100(sp)
  804bf8:	ddc01815 	stw	r23,96(sp)
  804bfc:	d9401515 	stw	r5,84(sp)
  804c00:	dec00815 	stw	sp,32(sp)
  804c04:	dec00a15 	stw	sp,40(sp)
  804c08:	d9801615 	stw	r6,88(sp)
  804c0c:	08433d40 	call	8433d4 <_Unwind_SjLj_Register>
  804c10:	d8801517 	ldw	r2,84(sp)
  804c14:	d8c01417 	ldw	r3,80(sp)
  804c18:	11000217 	ldw	r4,8(r2)
  804c1c:	d8801617 	ldw	r2,88(sp)
  804c20:	18000115 	stw	zero,4(r3)
  804c24:	19000215 	stw	r4,8(r3)
  804c28:	18800015 	stw	r2,0(r3)
  804c2c:	18000315 	stw	zero,12(r3)
  804c30:	18000415 	stw	zero,16(r3)
  804c34:	00800104 	movi	r2,4
  804c38:	2109883a 	add	r4,r4,r4
  804c3c:	d8800115 	stw	r2,4(sp)
  804c40:	2109883a 	add	r4,r4,r4
  804c44:	083781c0 	call	83781c <_Znam>
  804c48:	d8c01417 	ldw	r3,80(sp)
  804c4c:	19000217 	ldw	r4,8(r3)
  804c50:	18800115 	stw	r2,4(r3)
  804c54:	20001b26 	beq	r4,zero,804cc4 <_ZNSt6locale5_ImplC2ERKS0_m+0x104>
  804c58:	d8001215 	stw	zero,72(sp)
  804c5c:	d8000d15 	stw	zero,52(sp)
  804c60:	d9001517 	ldw	r4,84(sp)
  804c64:	20800117 	ldw	r2,4(r4)
  804c68:	d9001417 	ldw	r4,80(sp)
  804c6c:	20c00117 	ldw	r3,4(r4)
  804c70:	d9000d17 	ldw	r4,52(sp)
  804c74:	1105883a 	add	r2,r2,r4
  804c78:	11000017 	ldw	r4,0(r2)
  804c7c:	d8800d17 	ldw	r2,52(sp)
  804c80:	1887883a 	add	r3,r3,r2
  804c84:	19000015 	stw	r4,0(r3)
  804c88:	20000526 	beq	r4,zero,804ca0 <_ZNSt6locale5_ImplC2ERKS0_m+0xe0>
  804c8c:	00800084 	movi	r2,2
  804c90:	d8800115 	stw	r2,4(sp)
  804c94:	21000104 	addi	r4,r4,4
  804c98:	01400044 	movi	r5,1
  804c9c:	08355880 	call	835588 <_ZN9__gnu_cxx12__atomic_addEPVii>
  804ca0:	d8c01417 	ldw	r3,80(sp)
  804ca4:	d8801217 	ldw	r2,72(sp)
  804ca8:	19000217 	ldw	r4,8(r3)
  804cac:	d8c00d17 	ldw	r3,52(sp)
  804cb0:	10800044 	addi	r2,r2,1
  804cb4:	d8801215 	stw	r2,72(sp)
  804cb8:	18c00104 	addi	r3,r3,4
  804cbc:	d8c00d15 	stw	r3,52(sp)
  804cc0:	113fe736 	bltu	r2,r4,804c60 <_ZNSt6locale5_ImplC2ERKS0_m+0xa0>
  804cc4:	00800104 	movi	r2,4
  804cc8:	2109883a 	add	r4,r4,r4
  804ccc:	d8800115 	stw	r2,4(sp)
  804cd0:	2109883a 	add	r4,r4,r4
  804cd4:	083781c0 	call	83781c <_Znam>
  804cd8:	d9001417 	ldw	r4,80(sp)
  804cdc:	20c00217 	ldw	r3,8(r4)
  804ce0:	20800315 	stw	r2,12(r4)
  804ce4:	18001926 	beq	r3,zero,804d4c <_ZNSt6locale5_ImplC2ERKS0_m+0x18c>
  804ce8:	d8001115 	stw	zero,68(sp)
  804cec:	d8000e15 	stw	zero,56(sp)
  804cf0:	d8c01517 	ldw	r3,84(sp)
  804cf4:	d9001417 	ldw	r4,80(sp)
  804cf8:	18800317 	ldw	r2,12(r3)
  804cfc:	20c00317 	ldw	r3,12(r4)
  804d00:	d9000e17 	ldw	r4,56(sp)
  804d04:	2085883a 	add	r2,r4,r2
  804d08:	10800017 	ldw	r2,0(r2)
  804d0c:	20c7883a 	add	r3,r4,r3
  804d10:	18800015 	stw	r2,0(r3)
  804d14:	10000426 	beq	r2,zero,804d28 <_ZNSt6locale5_ImplC2ERKS0_m+0x168>
  804d18:	01400044 	movi	r5,1
  804d1c:	d9400115 	stw	r5,4(sp)
  804d20:	11000104 	addi	r4,r2,4
  804d24:	08355880 	call	835588 <_ZN9__gnu_cxx12__atomic_addEPVii>
  804d28:	d8c01417 	ldw	r3,80(sp)
  804d2c:	d9001117 	ldw	r4,68(sp)
  804d30:	18800217 	ldw	r2,8(r3)
  804d34:	d8c00e17 	ldw	r3,56(sp)
  804d38:	21000044 	addi	r4,r4,1
  804d3c:	d9001115 	stw	r4,68(sp)
  804d40:	18c00104 	addi	r3,r3,4
  804d44:	d8c00e15 	stw	r3,56(sp)
  804d48:	20bfe936 	bltu	r4,r2,804cf0 <_ZNSt6locale5_ImplC2ERKS0_m+0x130>
  804d4c:	01000104 	movi	r4,4
  804d50:	d9000115 	stw	r4,4(sp)
  804d54:	01000604 	movi	r4,24
  804d58:	083781c0 	call	83781c <_Znam>
  804d5c:	1009883a 	mov	r4,r2
  804d60:	d8801417 	ldw	r2,80(sp)
  804d64:	01800104 	movi	r6,4
  804d68:	01400604 	movi	r5,24
  804d6c:	11000415 	stw	r4,16(r2)
  804d70:	0007883a 	mov	r3,zero
  804d74:	20c5883a 	add	r2,r4,r3
  804d78:	1987883a 	add	r3,r3,r6
  804d7c:	10000015 	stw	zero,0(r2)
  804d80:	197ffc1e 	bne	r3,r5,804d74 <_ZNSt6locale5_ImplC2ERKS0_m+0x1b4>
  804d84:	d8000f15 	stw	zero,60(sp)
  804d88:	d8c01517 	ldw	r3,84(sp)
  804d8c:	d9000f17 	ldw	r4,60(sp)
  804d90:	18800417 	ldw	r2,16(r3)
  804d94:	1105883a 	add	r2,r2,r4
  804d98:	11000017 	ldw	r4,0(r2)
  804d9c:	20001e26 	beq	r4,zero,804e18 <_ZNSt6locale5_ImplC2ERKS0_m+0x258>
  804da0:	08482f80 	call	8482f8 <strlen>
  804da4:	d9001417 	ldw	r4,80(sp)
  804da8:	10800044 	addi	r2,r2,1
  804dac:	d8801015 	stw	r2,64(sp)
  804db0:	20c00417 	ldw	r3,16(r4)
  804db4:	d9000f17 	ldw	r4,60(sp)
  804db8:	00800104 	movi	r2,4
  804dbc:	d8800115 	stw	r2,4(sp)
  804dc0:	20c7883a 	add	r3,r4,r3
  804dc4:	d8c01315 	stw	r3,76(sp)
  804dc8:	d9001017 	ldw	r4,64(sp)
  804dcc:	083781c0 	call	83781c <_Znam>
  804dd0:	d9001417 	ldw	r4,80(sp)
  804dd4:	20c00417 	ldw	r3,16(r4)
  804dd8:	d9001517 	ldw	r4,84(sp)
  804ddc:	21800417 	ldw	r6,16(r4)
  804de0:	d9001317 	ldw	r4,76(sp)
  804de4:	20800015 	stw	r2,0(r4)
  804de8:	d8800f17 	ldw	r2,60(sp)
  804dec:	10c7883a 	add	r3,r2,r3
  804df0:	118d883a 	add	r6,r2,r6
  804df4:	19000017 	ldw	r4,0(r3)
  804df8:	31400017 	ldw	r5,0(r6)
  804dfc:	d9801017 	ldw	r6,64(sp)
  804e00:	10800104 	addi	r2,r2,4
  804e04:	d8800f15 	stw	r2,60(sp)
  804e08:	08460f00 	call	8460f0 <memcpy>
  804e0c:	d9000f17 	ldw	r4,60(sp)
  804e10:	00c00604 	movi	r3,24
  804e14:	20ffdc1e 	bne	r4,r3,804d88 <_ZNSt6locale5_ImplC2ERKS0_m+0x1c8>
  804e18:	d809883a 	mov	r4,sp
  804e1c:	08433e40 	call	8433e4 <_Unwind_SjLj_Unregister>
  804e20:	dfc01a17 	ldw	ra,104(sp)
  804e24:	df001917 	ldw	fp,100(sp)
  804e28:	ddc01817 	ldw	r23,96(sp)
  804e2c:	dec01b04 	addi	sp,sp,108
  804e30:	f800283a 	ret
  804e34:	d8800217 	ldw	r2,8(sp)
  804e38:	d8c00117 	ldw	r3,4(sp)
  804e3c:	d9000317 	ldw	r4,12(sp)
  804e40:	d8801715 	stw	r2,92(sp)
  804e44:	00800044 	movi	r2,1
  804e48:	18800426 	beq	r3,r2,804e5c <_ZNSt6locale5_ImplC2ERKS0_m+0x29c>
  804e4c:	00800084 	movi	r2,2
  804e50:	18800e26 	beq	r3,r2,804e8c <_ZNSt6locale5_ImplC2ERKS0_m+0x2cc>
  804e54:	008000c4 	movi	r2,3
  804e58:	18800526 	beq	r3,r2,804e70 <_ZNSt6locale5_ImplC2ERKS0_m+0x2b0>
  804e5c:	00bfffc4 	movi	r2,-1
  804e60:	20800e26 	beq	r4,r2,804e9c <_ZNSt6locale5_ImplC2ERKS0_m+0x2dc>
  804e64:	d9001717 	ldw	r4,92(sp)
  804e68:	d8800115 	stw	r2,4(sp)
  804e6c:	08436a00 	call	8436a0 <_Unwind_SjLj_Resume>
  804e70:	d9001717 	ldw	r4,92(sp)
  804e74:	08379880 	call	837988 <__cxa_begin_catch>
  804e78:	d9001417 	ldw	r4,80(sp)
  804e7c:	080462c0 	call	80462c <_ZNSt6locale5_ImplD1Ev>
  804e80:	008000c4 	movi	r2,3
  804e84:	d8800115 	stw	r2,4(sp)
  804e88:	0836e840 	call	836e84 <__cxa_rethrow>
  804e8c:	d8000115 	stw	zero,4(sp)
  804e90:	08378e40 	call	8378e4 <__cxa_end_catch>
  804e94:	00bfffc4 	movi	r2,-1
  804e98:	003ff206 	br	804e64 <_ZNSt6locale5_ImplC2ERKS0_m+0x2a4>
  804e9c:	d9001717 	ldw	r4,92(sp)
  804ea0:	00bfffc4 	movi	r2,-1
  804ea4:	d8800115 	stw	r2,4(sp)
  804ea8:	08380940 	call	838094 <__cxa_call_unexpected>

00804eac <_ZNSt6localeD1Ev>:
  804eac:	deffee04 	addi	sp,sp,-72
  804eb0:	00802134 	movhi	r2,132
  804eb4:	10a08504 	addi	r2,r2,-32236
  804eb8:	00c02174 	movhi	r3,133
  804ebc:	18deb204 	addi	r3,r3,31432
  804ec0:	d8800615 	stw	r2,24(sp)
  804ec4:	d9000e15 	stw	r4,56(sp)
  804ec8:	00802034 	movhi	r2,128
  804ecc:	1093db04 	addi	r2,r2,20332
  804ed0:	d809883a 	mov	r4,sp
  804ed4:	d8c00715 	stw	r3,28(sp)
  804ed8:	d8800915 	stw	r2,36(sp)
  804edc:	dfc01115 	stw	ra,68(sp)
  804ee0:	df001015 	stw	fp,64(sp)
  804ee4:	ddc00f15 	stw	r23,60(sp)
  804ee8:	dec00815 	stw	sp,32(sp)
  804eec:	dec00a15 	stw	sp,40(sp)
  804ef0:	08433d40 	call	8433d4 <_Unwind_SjLj_Register>
  804ef4:	d8800e17 	ldw	r2,56(sp)
  804ef8:	00c00044 	movi	r3,1
  804efc:	017fffc4 	movi	r5,-1
  804f00:	10800017 	ldw	r2,0(r2)
  804f04:	d8c00115 	stw	r3,4(sp)
  804f08:	d8800d15 	stw	r2,52(sp)
  804f0c:	1009883a 	mov	r4,r2
  804f10:	08355740 	call	835574 <_ZN9__gnu_cxx18__exchange_and_addEPVii>
  804f14:	00c00044 	movi	r3,1
  804f18:	10c00726 	beq	r2,r3,804f38 <_ZNSt6localeD1Ev+0x8c>
  804f1c:	d809883a 	mov	r4,sp
  804f20:	08433e40 	call	8433e4 <_Unwind_SjLj_Unregister>
  804f24:	dfc01117 	ldw	ra,68(sp)
  804f28:	df001017 	ldw	fp,64(sp)
  804f2c:	ddc00f17 	ldw	r23,60(sp)
  804f30:	dec01204 	addi	sp,sp,72
  804f34:	f800283a 	ret
  804f38:	d8800d17 	ldw	r2,52(sp)
  804f3c:	103ff726 	beq	r2,zero,804f1c <_ZNSt6localeD1Ev+0x70>
  804f40:	1009883a 	mov	r4,r2
  804f44:	080462c0 	call	80462c <_ZNSt6locale5_ImplD1Ev>
  804f48:	d9000d17 	ldw	r4,52(sp)
  804f4c:	0837aa00 	call	837aa0 <_ZdlPv>
  804f50:	d809883a 	mov	r4,sp
  804f54:	08433e40 	call	8433e4 <_Unwind_SjLj_Unregister>
  804f58:	dfc01117 	ldw	ra,68(sp)
  804f5c:	df001017 	ldw	fp,64(sp)
  804f60:	ddc00f17 	ldw	r23,60(sp)
  804f64:	dec01204 	addi	sp,sp,72
  804f68:	f800283a 	ret
  804f6c:	d8800317 	ldw	r2,12(sp)
  804f70:	00ffffc4 	movi	r3,-1
  804f74:	d9000217 	ldw	r4,8(sp)
  804f78:	10c00226 	beq	r2,r3,804f84 <_ZNSt6localeD1Ev+0xd8>
  804f7c:	d8c00115 	stw	r3,4(sp)
  804f80:	08436a00 	call	8436a0 <_Unwind_SjLj_Resume>
  804f84:	00bfffc4 	movi	r2,-1
  804f88:	d8800115 	stw	r2,4(sp)
  804f8c:	08380940 	call	838094 <__cxa_call_unexpected>

00804f90 <_ZNSt6localeD2Ev>:
  804f90:	deffee04 	addi	sp,sp,-72
  804f94:	00802134 	movhi	r2,132
  804f98:	10a08504 	addi	r2,r2,-32236
  804f9c:	00c02174 	movhi	r3,133
  804fa0:	18deb604 	addi	r3,r3,31448
  804fa4:	d8800615 	stw	r2,24(sp)
  804fa8:	d9000e15 	stw	r4,56(sp)
  804fac:	00802034 	movhi	r2,128
  804fb0:	10941404 	addi	r2,r2,20560
  804fb4:	d809883a 	mov	r4,sp
  804fb8:	d8c00715 	stw	r3,28(sp)
  804fbc:	d8800915 	stw	r2,36(sp)
  804fc0:	dfc01115 	stw	ra,68(sp)
  804fc4:	df001015 	stw	fp,64(sp)
  804fc8:	ddc00f15 	stw	r23,60(sp)
  804fcc:	dec00815 	stw	sp,32(sp)
  804fd0:	dec00a15 	stw	sp,40(sp)
  804fd4:	08433d40 	call	8433d4 <_Unwind_SjLj_Register>
  804fd8:	d8800e17 	ldw	r2,56(sp)
  804fdc:	00c00044 	movi	r3,1
  804fe0:	017fffc4 	movi	r5,-1
  804fe4:	10800017 	ldw	r2,0(r2)
  804fe8:	d8c00115 	stw	r3,4(sp)
  804fec:	d8800d15 	stw	r2,52(sp)
  804ff0:	1009883a 	mov	r4,r2
  804ff4:	08355740 	call	835574 <_ZN9__gnu_cxx18__exchange_and_addEPVii>
  804ff8:	00c00044 	movi	r3,1
  804ffc:	10c00726 	beq	r2,r3,80501c <_ZNSt6localeD2Ev+0x8c>
  805000:	d809883a 	mov	r4,sp
  805004:	08433e40 	call	8433e4 <_Unwind_SjLj_Unregister>
  805008:	dfc01117 	ldw	ra,68(sp)
  80500c:	df001017 	ldw	fp,64(sp)
  805010:	ddc00f17 	ldw	r23,60(sp)
  805014:	dec01204 	addi	sp,sp,72
  805018:	f800283a 	ret
  80501c:	d8800d17 	ldw	r2,52(sp)
  805020:	103ff726 	beq	r2,zero,805000 <_ZNSt6localeD2Ev+0x70>
  805024:	1009883a 	mov	r4,r2
  805028:	080462c0 	call	80462c <_ZNSt6locale5_ImplD1Ev>
  80502c:	d9000d17 	ldw	r4,52(sp)
  805030:	0837aa00 	call	837aa0 <_ZdlPv>
  805034:	d809883a 	mov	r4,sp
  805038:	08433e40 	call	8433e4 <_Unwind_SjLj_Unregister>
  80503c:	dfc01117 	ldw	ra,68(sp)
  805040:	df001017 	ldw	fp,64(sp)
  805044:	ddc00f17 	ldw	r23,60(sp)
  805048:	dec01204 	addi	sp,sp,72
  80504c:	f800283a 	ret
  805050:	d8800317 	ldw	r2,12(sp)
  805054:	00ffffc4 	movi	r3,-1
  805058:	d9000217 	ldw	r4,8(sp)
  80505c:	10c00226 	beq	r2,r3,805068 <_ZNSt6localeD2Ev+0xd8>
  805060:	d8c00115 	stw	r3,4(sp)
  805064:	08436a00 	call	8436a0 <_Unwind_SjLj_Resume>
  805068:	00bfffc4 	movi	r2,-1
  80506c:	d8800115 	stw	r2,4(sp)
  805070:	08380940 	call	838094 <__cxa_call_unexpected>

00805074 <_ZNSt6localeaSERKS_>:
  805074:	deffed04 	addi	sp,sp,-76
  805078:	00802134 	movhi	r2,132
  80507c:	10a08504 	addi	r2,r2,-32236
  805080:	d8800615 	stw	r2,24(sp)
  805084:	00c02174 	movhi	r3,133
  805088:	18deba04 	addi	r3,r3,31464
  80508c:	00802034 	movhi	r2,128
  805090:	10945304 	addi	r2,r2,20812
  805094:	d9000e15 	stw	r4,56(sp)
  805098:	d809883a 	mov	r4,sp
  80509c:	d8800915 	stw	r2,36(sp)
  8050a0:	d9400f15 	stw	r5,60(sp)
  8050a4:	dfc01215 	stw	ra,72(sp)
  8050a8:	df001115 	stw	fp,68(sp)
  8050ac:	ddc01015 	stw	r23,64(sp)
  8050b0:	d8c00715 	stw	r3,28(sp)
  8050b4:	dec00815 	stw	sp,32(sp)
  8050b8:	dec00a15 	stw	sp,40(sp)
  8050bc:	08433d40 	call	8433d4 <_Unwind_SjLj_Register>
  8050c0:	00800084 	movi	r2,2
  8050c4:	d8800115 	stw	r2,4(sp)
  8050c8:	d8800f17 	ldw	r2,60(sp)
  8050cc:	01400044 	movi	r5,1
  8050d0:	11000017 	ldw	r4,0(r2)
  8050d4:	08355880 	call	835588 <_ZN9__gnu_cxx12__atomic_addEPVii>
  8050d8:	d8c00e17 	ldw	r3,56(sp)
  8050dc:	00800044 	movi	r2,1
  8050e0:	017fffc4 	movi	r5,-1
  8050e4:	18c00017 	ldw	r3,0(r3)
  8050e8:	d8800115 	stw	r2,4(sp)
  8050ec:	d8c00d15 	stw	r3,52(sp)
  8050f0:	1809883a 	mov	r4,r3
  8050f4:	08355740 	call	835574 <_ZN9__gnu_cxx18__exchange_and_addEPVii>
  8050f8:	00c00044 	movi	r3,1
  8050fc:	10c00c26 	beq	r2,r3,805130 <_ZNSt6localeaSERKS_+0xbc>
  805100:	d8c00f17 	ldw	r3,60(sp)
  805104:	d809883a 	mov	r4,sp
  805108:	18800017 	ldw	r2,0(r3)
  80510c:	d8c00e17 	ldw	r3,56(sp)
  805110:	18800015 	stw	r2,0(r3)
  805114:	08433e40 	call	8433e4 <_Unwind_SjLj_Unregister>
  805118:	d8800e17 	ldw	r2,56(sp)
  80511c:	dfc01217 	ldw	ra,72(sp)
  805120:	df001117 	ldw	fp,68(sp)
  805124:	ddc01017 	ldw	r23,64(sp)
  805128:	dec01304 	addi	sp,sp,76
  80512c:	f800283a 	ret
  805130:	d8800d17 	ldw	r2,52(sp)
  805134:	103ff226 	beq	r2,zero,805100 <_ZNSt6localeaSERKS_+0x8c>
  805138:	1009883a 	mov	r4,r2
  80513c:	080462c0 	call	80462c <_ZNSt6locale5_ImplD1Ev>
  805140:	d9000d17 	ldw	r4,52(sp)
  805144:	0837aa00 	call	837aa0 <_ZdlPv>
  805148:	003fed06 	br	805100 <_ZNSt6localeaSERKS_+0x8c>
  80514c:	d9400317 	ldw	r5,12(sp)
  805150:	00bfffc4 	movi	r2,-1
  805154:	d9000217 	ldw	r4,8(sp)
  805158:	28800226 	beq	r5,r2,805164 <_ZNSt6localeaSERKS_+0xf0>
  80515c:	d8800115 	stw	r2,4(sp)
  805160:	08436a00 	call	8436a0 <_Unwind_SjLj_Resume>
  805164:	00bfffc4 	movi	r2,-1
  805168:	d8800115 	stw	r2,4(sp)
  80516c:	08380940 	call	838094 <__cxa_call_unexpected>

00805170 <_ZNSt6locale5_ImplD2Ev>:
  805170:	deffe104 	addi	sp,sp,-124
  805174:	00802134 	movhi	r2,132
  805178:	10a08504 	addi	r2,r2,-32236
  80517c:	d8800615 	stw	r2,24(sp)
  805180:	00c02174 	movhi	r3,133
  805184:	18debe04 	addi	r3,r3,31480
  805188:	00802034 	movhi	r2,128
  80518c:	1094ee04 	addi	r2,r2,21432
  805190:	d9001415 	stw	r4,80(sp)
  805194:	d809883a 	mov	r4,sp
  805198:	d8800915 	stw	r2,36(sp)
  80519c:	dfc01e15 	stw	ra,120(sp)
  8051a0:	df001d15 	stw	fp,116(sp)
  8051a4:	ddc01c15 	stw	r23,112(sp)
  8051a8:	dd801b15 	stw	r22,108(sp)
  8051ac:	dd401a15 	stw	r21,104(sp)
  8051b0:	dd001915 	stw	r20,100(sp)
  8051b4:	dcc01815 	stw	r19,96(sp)
  8051b8:	dc801715 	stw	r18,92(sp)
  8051bc:	dc401615 	stw	r17,88(sp)
  8051c0:	dc001515 	stw	r16,84(sp)
  8051c4:	d8c00715 	stw	r3,28(sp)
  8051c8:	dec00815 	stw	sp,32(sp)
  8051cc:	dec00a15 	stw	sp,40(sp)
  8051d0:	08433d40 	call	8433d4 <_Unwind_SjLj_Register>
  8051d4:	d8801417 	ldw	r2,80(sp)
  8051d8:	11000117 	ldw	r4,4(r2)
  8051dc:	20002726 	beq	r4,zero,80527c <_ZNSt6locale5_ImplD2Ev+0x10c>
  8051e0:	10800217 	ldw	r2,8(r2)
  8051e4:	10002426 	beq	r2,zero,805278 <_ZNSt6locale5_ImplD2Ev+0x108>
  8051e8:	d8001115 	stw	zero,68(sp)
  8051ec:	d8000d15 	stw	zero,52(sp)
  8051f0:	d8c01417 	ldw	r3,80(sp)
  8051f4:	18800117 	ldw	r2,4(r3)
  8051f8:	d8c00d17 	ldw	r3,52(sp)
  8051fc:	1885883a 	add	r2,r3,r2
  805200:	10800017 	ldw	r2,0(r2)
  805204:	d8801315 	stw	r2,76(sp)
  805208:	10000e26 	beq	r2,zero,805244 <_ZNSt6locale5_ImplD2Ev+0xd4>
  80520c:	01000104 	movi	r4,4
  805210:	d9000115 	stw	r4,4(sp)
  805214:	017fffc4 	movi	r5,-1
  805218:	1109883a 	add	r4,r2,r4
  80521c:	08355740 	call	835574 <_ZN9__gnu_cxx18__exchange_and_addEPVii>
  805220:	00c00044 	movi	r3,1
  805224:	10c0071e 	bne	r2,r3,805244 <_ZNSt6locale5_ImplD2Ev+0xd4>
  805228:	d8c01317 	ldw	r3,76(sp)
  80522c:	18800017 	ldw	r2,0(r3)
  805230:	1809883a 	mov	r4,r3
  805234:	00c000c4 	movi	r3,3
  805238:	11400117 	ldw	r5,4(r2)
  80523c:	d8c00115 	stw	r3,4(sp)
  805240:	283ee83a 	callr	r5
  805244:	d8c01417 	ldw	r3,80(sp)
  805248:	18800217 	ldw	r2,8(r3)
  80524c:	d8c01117 	ldw	r3,68(sp)
  805250:	18c00044 	addi	r3,r3,1
  805254:	d8c01115 	stw	r3,68(sp)
  805258:	d8c00d17 	ldw	r3,52(sp)
  80525c:	18c00104 	addi	r3,r3,4
  805260:	d8c00d15 	stw	r3,52(sp)
  805264:	d8c01117 	ldw	r3,68(sp)
  805268:	18bfe136 	bltu	r3,r2,8051f0 <_ZNSt6locale5_ImplD2Ev+0x80>
  80526c:	d8801417 	ldw	r2,80(sp)
  805270:	11000117 	ldw	r4,4(r2)
  805274:	20000126 	beq	r4,zero,80527c <_ZNSt6locale5_ImplD2Ev+0x10c>
  805278:	0837aac0 	call	837aac <_ZdaPv>
  80527c:	d8c01417 	ldw	r3,80(sp)
  805280:	19000317 	ldw	r4,12(r3)
  805284:	20002a26 	beq	r4,zero,805330 <_ZNSt6locale5_ImplD2Ev+0x1c0>
  805288:	18800217 	ldw	r2,8(r3)
  80528c:	10002726 	beq	r2,zero,80532c <_ZNSt6locale5_ImplD2Ev+0x1bc>
  805290:	d8001015 	stw	zero,64(sp)
  805294:	d8000e15 	stw	zero,56(sp)
  805298:	00000a06 	br	8052c4 <_ZNSt6locale5_ImplD2Ev+0x154>
  80529c:	d8c01417 	ldw	r3,80(sp)
  8052a0:	18800217 	ldw	r2,8(r3)
  8052a4:	d8c01017 	ldw	r3,64(sp)
  8052a8:	18c00044 	addi	r3,r3,1
  8052ac:	d8c01015 	stw	r3,64(sp)
  8052b0:	d8c00e17 	ldw	r3,56(sp)
  8052b4:	18c00104 	addi	r3,r3,4
  8052b8:	d8c00e15 	stw	r3,56(sp)
  8052bc:	d8c01017 	ldw	r3,64(sp)
  8052c0:	1880172e 	bgeu	r3,r2,805320 <_ZNSt6locale5_ImplD2Ev+0x1b0>
  8052c4:	d8c01417 	ldw	r3,80(sp)
  8052c8:	18800317 	ldw	r2,12(r3)
  8052cc:	d8c00e17 	ldw	r3,56(sp)
  8052d0:	10c5883a 	add	r2,r2,r3
  8052d4:	10800017 	ldw	r2,0(r2)
  8052d8:	d8801215 	stw	r2,72(sp)
  8052dc:	103fef26 	beq	r2,zero,80529c <_ZNSt6locale5_ImplD2Ev+0x12c>
  8052e0:	00800084 	movi	r2,2
  8052e4:	d8800115 	stw	r2,4(sp)
  8052e8:	d8801217 	ldw	r2,72(sp)
  8052ec:	017fffc4 	movi	r5,-1
  8052f0:	11000104 	addi	r4,r2,4
  8052f4:	08355740 	call	835574 <_ZN9__gnu_cxx18__exchange_and_addEPVii>
  8052f8:	100b883a 	mov	r5,r2
  8052fc:	00800044 	movi	r2,1
  805300:	28bfe61e 	bne	r5,r2,80529c <_ZNSt6locale5_ImplD2Ev+0x12c>
  805304:	d8c01217 	ldw	r3,72(sp)
  805308:	18800017 	ldw	r2,0(r3)
  80530c:	1809883a 	mov	r4,r3
  805310:	10c00117 	ldw	r3,4(r2)
  805314:	d9400115 	stw	r5,4(sp)
  805318:	183ee83a 	callr	r3
  80531c:	003fdf06 	br	80529c <_ZNSt6locale5_ImplD2Ev+0x12c>
  805320:	d8801417 	ldw	r2,80(sp)
  805324:	11000317 	ldw	r4,12(r2)
  805328:	20000126 	beq	r4,zero,805330 <_ZNSt6locale5_ImplD2Ev+0x1c0>
  80532c:	0837aac0 	call	837aac <_ZdaPv>
  805330:	d8c01417 	ldw	r3,80(sp)
  805334:	18800417 	ldw	r2,16(r3)
  805338:	10001126 	beq	r2,zero,805380 <_ZNSt6locale5_ImplD2Ev+0x210>
  80533c:	d8000f15 	stw	zero,60(sp)
  805340:	d8c01417 	ldw	r3,80(sp)
  805344:	18800417 	ldw	r2,16(r3)
  805348:	d8c00f17 	ldw	r3,60(sp)
  80534c:	10c5883a 	add	r2,r2,r3
  805350:	11000017 	ldw	r4,0(r2)
  805354:	20000126 	beq	r4,zero,80535c <_ZNSt6locale5_ImplD2Ev+0x1ec>
  805358:	0837aac0 	call	837aac <_ZdaPv>
  80535c:	d8800f17 	ldw	r2,60(sp)
  805360:	00c00604 	movi	r3,24
  805364:	10800104 	addi	r2,r2,4
  805368:	d8800f15 	stw	r2,60(sp)
  80536c:	10fff41e 	bne	r2,r3,805340 <_ZNSt6locale5_ImplD2Ev+0x1d0>
  805370:	d8801417 	ldw	r2,80(sp)
  805374:	11000417 	ldw	r4,16(r2)
  805378:	20000126 	beq	r4,zero,805380 <_ZNSt6locale5_ImplD2Ev+0x210>
  80537c:	0837aac0 	call	837aac <_ZdaPv>
  805380:	d809883a 	mov	r4,sp
  805384:	08433e40 	call	8433e4 <_Unwind_SjLj_Unregister>
  805388:	dfc01e17 	ldw	ra,120(sp)
  80538c:	df001d17 	ldw	fp,116(sp)
  805390:	ddc01c17 	ldw	r23,112(sp)
  805394:	dd801b17 	ldw	r22,108(sp)
  805398:	dd401a17 	ldw	r21,104(sp)
  80539c:	dd001917 	ldw	r20,100(sp)
  8053a0:	dcc01817 	ldw	r19,96(sp)
  8053a4:	dc801717 	ldw	r18,92(sp)
  8053a8:	dc401617 	ldw	r17,88(sp)
  8053ac:	dc001517 	ldw	r16,84(sp)
  8053b0:	dec01f04 	addi	sp,sp,124
  8053b4:	f800283a 	ret
  8053b8:	d8c00117 	ldw	r3,4(sp)
  8053bc:	00800044 	movi	r2,1
  8053c0:	d9000217 	ldw	r4,8(sp)
  8053c4:	d9400317 	ldw	r5,12(sp)
  8053c8:	18800826 	beq	r3,r2,8053ec <_ZNSt6locale5_ImplD2Ev+0x27c>
  8053cc:	00800084 	movi	r2,2
  8053d0:	18800a26 	beq	r3,r2,8053fc <_ZNSt6locale5_ImplD2Ev+0x28c>
  8053d4:	008000c4 	movi	r2,3
  8053d8:	18800426 	beq	r3,r2,8053ec <_ZNSt6locale5_ImplD2Ev+0x27c>
  8053dc:	08379880 	call	837988 <__cxa_begin_catch>
  8053e0:	d8000115 	stw	zero,4(sp)
  8053e4:	08378e40 	call	8378e4 <__cxa_end_catch>
  8053e8:	003fac06 	br	80529c <_ZNSt6locale5_ImplD2Ev+0x12c>
  8053ec:	00bfffc4 	movi	r2,-1
  8053f0:	28800626 	beq	r5,r2,80540c <_ZNSt6locale5_ImplD2Ev+0x29c>
  8053f4:	d8800115 	stw	r2,4(sp)
  8053f8:	08436a00 	call	8436a0 <_Unwind_SjLj_Resume>
  8053fc:	08379880 	call	837988 <__cxa_begin_catch>
  805400:	d8000115 	stw	zero,4(sp)
  805404:	08378e40 	call	8378e4 <__cxa_end_catch>
  805408:	003f8e06 	br	805244 <_ZNSt6locale5_ImplD2Ev+0xd4>
  80540c:	00bfffc4 	movi	r2,-1
  805410:	d8800115 	stw	r2,4(sp)
  805414:	08380940 	call	838094 <__cxa_call_unexpected>

00805418 <_ZNSt6locale5_Impl16_M_install_facetEPKNS_2idEPKNS_5facetE>:
  805418:	deffd704 	addi	sp,sp,-164
  80541c:	00802134 	movhi	r2,132
  805420:	10a08504 	addi	r2,r2,-32236
  805424:	d8800615 	stw	r2,24(sp)
  805428:	00c02174 	movhi	r3,133
  80542c:	18dec504 	addi	r3,r3,31508
  805430:	00802034 	movhi	r2,128
  805434:	1095e904 	addi	r2,r2,22436
  805438:	d9001a15 	stw	r4,104(sp)
  80543c:	d809883a 	mov	r4,sp
  805440:	d8800915 	stw	r2,36(sp)
  805444:	dfc02815 	stw	ra,160(sp)
  805448:	df002715 	stw	fp,156(sp)
  80544c:	ddc02615 	stw	r23,152(sp)
  805450:	dd802515 	stw	r22,148(sp)
  805454:	dd402415 	stw	r21,144(sp)
  805458:	dd002315 	stw	r20,140(sp)
  80545c:	dcc02215 	stw	r19,136(sp)
  805460:	dc802115 	stw	r18,132(sp)
  805464:	dc402015 	stw	r17,128(sp)
  805468:	dc001f15 	stw	r16,124(sp)
  80546c:	d8c00715 	stw	r3,28(sp)
  805470:	d9801c15 	stw	r6,112(sp)
  805474:	dec00815 	stw	sp,32(sp)
  805478:	dec00a15 	stw	sp,40(sp)
  80547c:	d9401b15 	stw	r5,108(sp)
  805480:	08433d40 	call	8433d4 <_Unwind_SjLj_Register>
  805484:	d8801c17 	ldw	r2,112(sp)
  805488:	10004826 	beq	r2,zero,8055ac <_ZNSt6locale5_Impl16_M_install_facetEPKNS_2idEPKNS_5facetE+0x194>
  80548c:	d9001b17 	ldw	r4,108(sp)
  805490:	00ffffc4 	movi	r3,-1
  805494:	d8c00115 	stw	r3,4(sp)
  805498:	0803b600 	call	803b60 <_ZNKSt6locale2id5_M_idEv>
  80549c:	d9001a17 	ldw	r4,104(sp)
  8054a0:	d8801515 	stw	r2,84(sp)
  8054a4:	d9401517 	ldw	r5,84(sp)
  8054a8:	20800217 	ldw	r2,8(r4)
  8054ac:	10bfffc4 	addi	r2,r2,-1
  8054b0:	11404c36 	bltu	r2,r5,8055e4 <_ZNSt6locale5_Impl16_M_install_facetEPKNS_2idEPKNS_5facetE+0x1cc>
  8054b4:	da801c17 	ldw	r10,112(sp)
  8054b8:	00800144 	movi	r2,5
  8054bc:	d8800115 	stw	r2,4(sp)
  8054c0:	51000104 	addi	r4,r10,4
  8054c4:	01400044 	movi	r5,1
  8054c8:	08355880 	call	835588 <_ZN9__gnu_cxx12__atomic_addEPVii>
  8054cc:	d8801a17 	ldw	r2,104(sp)
  8054d0:	d9001517 	ldw	r4,84(sp)
  8054d4:	10c00117 	ldw	r3,4(r2)
  8054d8:	2105883a 	add	r2,r4,r4
  8054dc:	1085883a 	add	r2,r2,r2
  8054e0:	10c5883a 	add	r2,r2,r3
  8054e4:	11400017 	ldw	r5,0(r2)
  8054e8:	d8801415 	stw	r2,80(sp)
  8054ec:	d9401715 	stw	r5,92(sp)
  8054f0:	28009926 	beq	r5,zero,805758 <_ZNSt6locale5_Impl16_M_install_facetEPKNS_2idEPKNS_5facetE+0x340>
  8054f4:	01000104 	movi	r4,4
  8054f8:	d9000115 	stw	r4,4(sp)
  8054fc:	2909883a 	add	r4,r5,r4
  805500:	017fffc4 	movi	r5,-1
  805504:	08355740 	call	835574 <_ZN9__gnu_cxx18__exchange_and_addEPVii>
  805508:	00c00044 	movi	r3,1
  80550c:	10c09626 	beq	r2,r3,805768 <_ZNSt6locale5_Impl16_M_install_facetEPKNS_2idEPKNS_5facetE+0x350>
  805510:	d8801c17 	ldw	r2,112(sp)
  805514:	da801417 	ldw	r10,80(sp)
  805518:	50800015 	stw	r2,0(r10)
  80551c:	d9401a17 	ldw	r5,104(sp)
  805520:	28800217 	ldw	r2,8(r5)
  805524:	10002126 	beq	r2,zero,8055ac <_ZNSt6locale5_Impl16_M_install_facetEPKNS_2idEPKNS_5facetE+0x194>
  805528:	d8000f15 	stw	zero,60(sp)
  80552c:	d8000d15 	stw	zero,52(sp)
  805530:	d9801a17 	ldw	r6,104(sp)
  805534:	da800d17 	ldw	r10,52(sp)
  805538:	30800317 	ldw	r2,12(r6)
  80553c:	da801615 	stw	r10,88(sp)
  805540:	1285883a 	add	r2,r2,r10
  805544:	10800017 	ldw	r2,0(r2)
  805548:	d8800e15 	stw	r2,56(sp)
  80554c:	10000e26 	beq	r2,zero,805588 <_ZNSt6locale5_Impl16_M_install_facetEPKNS_2idEPKNS_5facetE+0x170>
  805550:	00800084 	movi	r2,2
  805554:	d8800115 	stw	r2,4(sp)
  805558:	d8800e17 	ldw	r2,56(sp)
  80555c:	017fffc4 	movi	r5,-1
  805560:	11000104 	addi	r4,r2,4
  805564:	08355740 	call	835574 <_ZN9__gnu_cxx18__exchange_and_addEPVii>
  805568:	100b883a 	mov	r5,r2
  80556c:	00800044 	movi	r2,1
  805570:	28808526 	beq	r5,r2,805788 <_ZNSt6locale5_Impl16_M_install_facetEPKNS_2idEPKNS_5facetE+0x370>
  805574:	d9801a17 	ldw	r6,104(sp)
  805578:	da801617 	ldw	r10,88(sp)
  80557c:	30800317 	ldw	r2,12(r6)
  805580:	1285883a 	add	r2,r2,r10
  805584:	10000015 	stw	zero,0(r2)
  805588:	d8c01a17 	ldw	r3,104(sp)
  80558c:	d9000f17 	ldw	r4,60(sp)
  805590:	d9400d17 	ldw	r5,52(sp)
  805594:	18800217 	ldw	r2,8(r3)
  805598:	21000044 	addi	r4,r4,1
  80559c:	29400104 	addi	r5,r5,4
  8055a0:	d9000f15 	stw	r4,60(sp)
  8055a4:	d9400d15 	stw	r5,52(sp)
  8055a8:	20bfe136 	bltu	r4,r2,805530 <_ZNSt6locale5_Impl16_M_install_facetEPKNS_2idEPKNS_5facetE+0x118>
  8055ac:	d809883a 	mov	r4,sp
  8055b0:	08433e40 	call	8433e4 <_Unwind_SjLj_Unregister>
  8055b4:	dfc02817 	ldw	ra,160(sp)
  8055b8:	df002717 	ldw	fp,156(sp)
  8055bc:	ddc02617 	ldw	r23,152(sp)
  8055c0:	dd802517 	ldw	r22,148(sp)
  8055c4:	dd402417 	ldw	r21,144(sp)
  8055c8:	dd002317 	ldw	r20,140(sp)
  8055cc:	dcc02217 	ldw	r19,136(sp)
  8055d0:	dc802117 	ldw	r18,132(sp)
  8055d4:	dc402017 	ldw	r17,128(sp)
  8055d8:	dc001f17 	ldw	r16,124(sp)
  8055dc:	dec02904 	addi	sp,sp,164
  8055e0:	f800283a 	ret
  8055e4:	da801a17 	ldw	r10,104(sp)
  8055e8:	29800104 	addi	r6,r5,4
  8055ec:	3185883a 	add	r2,r6,r6
  8055f0:	52800117 	ldw	r10,4(r10)
  8055f4:	1085883a 	add	r2,r2,r2
  8055f8:	1009883a 	mov	r4,r2
  8055fc:	d9801315 	stw	r6,76(sp)
  805600:	d8801915 	stw	r2,100(sp)
  805604:	da801215 	stw	r10,72(sp)
  805608:	083781c0 	call	83781c <_Znam>
  80560c:	d8801115 	stw	r2,68(sp)
  805610:	d8801a17 	ldw	r2,104(sp)
  805614:	d8c01117 	ldw	r3,68(sp)
  805618:	11000217 	ldw	r4,8(r2)
  80561c:	d8c01815 	stw	r3,96(sp)
  805620:	20000d26 	beq	r4,zero,805658 <_ZNSt6locale5_Impl16_M_install_facetEPKNS_2idEPKNS_5facetE+0x240>
  805624:	11c00117 	ldw	r7,4(r2)
  805628:	02400104 	movi	r9,4
  80562c:	000d883a 	mov	r6,zero
  805630:	000b883a 	mov	r5,zero
  805634:	02000044 	movi	r8,1
  805638:	3945883a 	add	r2,r7,r5
  80563c:	da801117 	ldw	r10,68(sp)
  805640:	10c00017 	ldw	r3,0(r2)
  805644:	320d883a 	add	r6,r6,r8
  805648:	5145883a 	add	r2,r10,r5
  80564c:	10c00015 	stw	r3,0(r2)
  805650:	2a4b883a 	add	r5,r5,r9
  805654:	313ff81e 	bne	r6,r4,805638 <_ZNSt6locale5_Impl16_M_install_facetEPKNS_2idEPKNS_5facetE+0x220>
  805658:	d8801317 	ldw	r2,76(sp)
  80565c:	20800b2e 	bgeu	r4,r2,80568c <_ZNSt6locale5_Impl16_M_install_facetEPKNS_2idEPKNS_5facetE+0x274>
  805660:	d8c01117 	ldw	r3,68(sp)
  805664:	2105883a 	add	r2,r4,r4
  805668:	1085883a 	add	r2,r2,r2
  80566c:	1885883a 	add	r2,r3,r2
  805670:	01400044 	movi	r5,1
  805674:	00c00104 	movi	r3,4
  805678:	d9801317 	ldw	r6,76(sp)
  80567c:	2149883a 	add	r4,r4,r5
  805680:	10000015 	stw	zero,0(r2)
  805684:	10c5883a 	add	r2,r2,r3
  805688:	21bffb36 	bltu	r4,r6,805678 <_ZNSt6locale5_Impl16_M_install_facetEPKNS_2idEPKNS_5facetE+0x260>
  80568c:	da801a17 	ldw	r10,104(sp)
  805690:	008001c4 	movi	r2,7
  805694:	d9001917 	ldw	r4,100(sp)
  805698:	52800317 	ldw	r10,12(r10)
  80569c:	d8800115 	stw	r2,4(sp)
  8056a0:	da801015 	stw	r10,64(sp)
  8056a4:	083781c0 	call	83781c <_Znam>
  8056a8:	100f883a 	mov	r7,r2
  8056ac:	d8801a17 	ldw	r2,104(sp)
  8056b0:	11000217 	ldw	r4,8(r2)
  8056b4:	20000d26 	beq	r4,zero,8056ec <_ZNSt6locale5_Impl16_M_install_facetEPKNS_2idEPKNS_5facetE+0x2d4>
  8056b8:	d9401a17 	ldw	r5,104(sp)
  8056bc:	000d883a 	mov	r6,zero
  8056c0:	02800044 	movi	r10,1
  8056c4:	2a000317 	ldw	r8,12(r5)
  8056c8:	02400104 	movi	r9,4
  8056cc:	000b883a 	mov	r5,zero
  8056d0:	2a05883a 	add	r2,r5,r8
  8056d4:	10c00017 	ldw	r3,0(r2)
  8056d8:	328d883a 	add	r6,r6,r10
  8056dc:	29c5883a 	add	r2,r5,r7
  8056e0:	10c00015 	stw	r3,0(r2)
  8056e4:	2a4b883a 	add	r5,r5,r9
  8056e8:	313ff91e 	bne	r6,r4,8056d0 <_ZNSt6locale5_Impl16_M_install_facetEPKNS_2idEPKNS_5facetE+0x2b8>
  8056ec:	d9801317 	ldw	r6,76(sp)
  8056f0:	21800a2e 	bgeu	r4,r6,80571c <_ZNSt6locale5_Impl16_M_install_facetEPKNS_2idEPKNS_5facetE+0x304>
  8056f4:	2105883a 	add	r2,r4,r4
  8056f8:	1085883a 	add	r2,r2,r2
  8056fc:	3885883a 	add	r2,r7,r2
  805700:	01400044 	movi	r5,1
  805704:	00c00104 	movi	r3,4
  805708:	da801317 	ldw	r10,76(sp)
  80570c:	2149883a 	add	r4,r4,r5
  805710:	10000015 	stw	zero,0(r2)
  805714:	10c5883a 	add	r2,r2,r3
  805718:	22bffb36 	bltu	r4,r10,805708 <_ZNSt6locale5_Impl16_M_install_facetEPKNS_2idEPKNS_5facetE+0x2f0>
  80571c:	d8c01a17 	ldw	r3,104(sp)
  805720:	d8801317 	ldw	r2,76(sp)
  805724:	d9001117 	ldw	r4,68(sp)
  805728:	d9401217 	ldw	r5,72(sp)
  80572c:	18800215 	stw	r2,8(r3)
  805730:	19c00315 	stw	r7,12(r3)
  805734:	19000115 	stw	r4,4(r3)
  805738:	28000226 	beq	r5,zero,805744 <_ZNSt6locale5_Impl16_M_install_facetEPKNS_2idEPKNS_5facetE+0x32c>
  80573c:	2809883a 	mov	r4,r5
  805740:	0837aac0 	call	837aac <_ZdaPv>
  805744:	d9801017 	ldw	r6,64(sp)
  805748:	303f5a26 	beq	r6,zero,8054b4 <_ZNSt6locale5_Impl16_M_install_facetEPKNS_2idEPKNS_5facetE+0x9c>
  80574c:	3009883a 	mov	r4,r6
  805750:	0837aac0 	call	837aac <_ZdaPv>
  805754:	003f5706 	br	8054b4 <_ZNSt6locale5_Impl16_M_install_facetEPKNS_2idEPKNS_5facetE+0x9c>
  805758:	d9001c17 	ldw	r4,112(sp)
  80575c:	d8c01417 	ldw	r3,80(sp)
  805760:	19000015 	stw	r4,0(r3)
  805764:	003f6d06 	br	80551c <_ZNSt6locale5_Impl16_M_install_facetEPKNS_2idEPKNS_5facetE+0x104>
  805768:	d9801717 	ldw	r6,92(sp)
  80576c:	00c000c4 	movi	r3,3
  805770:	30800017 	ldw	r2,0(r6)
  805774:	3009883a 	mov	r4,r6
  805778:	11400117 	ldw	r5,4(r2)
  80577c:	d8c00115 	stw	r3,4(sp)
  805780:	283ee83a 	callr	r5
  805784:	003f6206 	br	805510 <_ZNSt6locale5_Impl16_M_install_facetEPKNS_2idEPKNS_5facetE+0xf8>
  805788:	d8c00e17 	ldw	r3,56(sp)
  80578c:	18800017 	ldw	r2,0(r3)
  805790:	1809883a 	mov	r4,r3
  805794:	10c00117 	ldw	r3,4(r2)
  805798:	d9400115 	stw	r5,4(sp)
  80579c:	183ee83a 	callr	r3
  8057a0:	003f7406 	br	805574 <_ZNSt6locale5_Impl16_M_install_facetEPKNS_2idEPKNS_5facetE+0x15c>
  8057a4:	d9000117 	ldw	r4,4(sp)
  8057a8:	d9400217 	ldw	r5,8(sp)
  8057ac:	00800044 	movi	r2,1
  8057b0:	d9001e15 	stw	r4,120(sp)
  8057b4:	d9401d15 	stw	r5,116(sp)
  8057b8:	d8c00317 	ldw	r3,12(sp)
  8057bc:	20800f26 	beq	r4,r2,8057fc <_ZNSt6locale5_Impl16_M_install_facetEPKNS_2idEPKNS_5facetE+0x3e4>
  8057c0:	00800084 	movi	r2,2
  8057c4:	20802526 	beq	r4,r2,80585c <_ZNSt6locale5_Impl16_M_install_facetEPKNS_2idEPKNS_5facetE+0x444>
  8057c8:	008000c4 	movi	r2,3
  8057cc:	20800b26 	beq	r4,r2,8057fc <_ZNSt6locale5_Impl16_M_install_facetEPKNS_2idEPKNS_5facetE+0x3e4>
  8057d0:	00800104 	movi	r2,4
  8057d4:	20800926 	beq	r4,r2,8057fc <_ZNSt6locale5_Impl16_M_install_facetEPKNS_2idEPKNS_5facetE+0x3e4>
  8057d8:	00800144 	movi	r2,5
  8057dc:	20801926 	beq	r4,r2,805844 <_ZNSt6locale5_Impl16_M_install_facetEPKNS_2idEPKNS_5facetE+0x42c>
  8057e0:	00800184 	movi	r2,6
  8057e4:	20800a26 	beq	r4,r2,805810 <_ZNSt6locale5_Impl16_M_install_facetEPKNS_2idEPKNS_5facetE+0x3f8>
  8057e8:	2809883a 	mov	r4,r5
  8057ec:	08379880 	call	837988 <__cxa_begin_catch>
  8057f0:	d8000115 	stw	zero,4(sp)
  8057f4:	08378e40 	call	8378e4 <__cxa_end_catch>
  8057f8:	003f5e06 	br	805574 <_ZNSt6locale5_Impl16_M_install_facetEPKNS_2idEPKNS_5facetE+0x15c>
  8057fc:	00bfffc4 	movi	r2,-1
  805800:	18800c26 	beq	r3,r2,805834 <_ZNSt6locale5_Impl16_M_install_facetEPKNS_2idEPKNS_5facetE+0x41c>
  805804:	d9001d17 	ldw	r4,116(sp)
  805808:	d8800115 	stw	r2,4(sp)
  80580c:	08436a00 	call	8436a0 <_Unwind_SjLj_Resume>
  805810:	d9001d17 	ldw	r4,116(sp)
  805814:	08379880 	call	837988 <__cxa_begin_catch>
  805818:	d8c01817 	ldw	r3,96(sp)
  80581c:	18000226 	beq	r3,zero,805828 <_ZNSt6locale5_Impl16_M_install_facetEPKNS_2idEPKNS_5facetE+0x410>
  805820:	d9001117 	ldw	r4,68(sp)
  805824:	0837aac0 	call	837aac <_ZdaPv>
  805828:	d9001e17 	ldw	r4,120(sp)
  80582c:	d9000115 	stw	r4,4(sp)
  805830:	0836e840 	call	836e84 <__cxa_rethrow>
  805834:	d9001d17 	ldw	r4,116(sp)
  805838:	00bfffc4 	movi	r2,-1
  80583c:	d8800115 	stw	r2,4(sp)
  805840:	08380940 	call	838094 <__cxa_call_unexpected>
  805844:	d8000115 	stw	zero,4(sp)
  805848:	08378e40 	call	8378e4 <__cxa_end_catch>
  80584c:	d9001d17 	ldw	r4,116(sp)
  805850:	00bfffc4 	movi	r2,-1
  805854:	d8800115 	stw	r2,4(sp)
  805858:	08436a00 	call	8436a0 <_Unwind_SjLj_Resume>
  80585c:	d9001d17 	ldw	r4,116(sp)
  805860:	08379880 	call	837988 <__cxa_begin_catch>
  805864:	d8000115 	stw	zero,4(sp)
  805868:	08378e40 	call	8378e4 <__cxa_end_catch>
  80586c:	003f2806 	br	805510 <_ZNSt6locale5_Impl16_M_install_facetEPKNS_2idEPKNS_5facetE+0xf8>

00805870 <_ZNSt6locale5_Impl16_M_replace_facetEPKS0_PKNS_2idE>:
  805870:	defffc04 	addi	sp,sp,-16
  805874:	dc800215 	stw	r18,8(sp)
  805878:	2025883a 	mov	r18,r4
  80587c:	3009883a 	mov	r4,r6
  805880:	dc400115 	stw	r17,4(sp)
  805884:	dc000015 	stw	r16,0(sp)
  805888:	dfc00315 	stw	ra,12(sp)
  80588c:	2821883a 	mov	r16,r5
  805890:	3023883a 	mov	r17,r6
  805894:	0803b600 	call	803b60 <_ZNKSt6locale2id5_M_idEv>
  805898:	1009883a 	mov	r4,r2
  80589c:	80800217 	ldw	r2,8(r16)
  8058a0:	10bfffc4 	addi	r2,r2,-1
  8058a4:	11000e36 	bltu	r2,r4,8058e0 <_ZNSt6locale5_Impl16_M_replace_facetEPKS0_PKNS_2idE+0x70>
  8058a8:	80c00117 	ldw	r3,4(r16)
  8058ac:	2105883a 	add	r2,r4,r4
  8058b0:	1085883a 	add	r2,r2,r2
  8058b4:	10c5883a 	add	r2,r2,r3
  8058b8:	11800017 	ldw	r6,0(r2)
  8058bc:	30000826 	beq	r6,zero,8058e0 <_ZNSt6locale5_Impl16_M_replace_facetEPKS0_PKNS_2idE+0x70>
  8058c0:	9009883a 	mov	r4,r18
  8058c4:	880b883a 	mov	r5,r17
  8058c8:	dfc00317 	ldw	ra,12(sp)
  8058cc:	dc800217 	ldw	r18,8(sp)
  8058d0:	dc400117 	ldw	r17,4(sp)
  8058d4:	dc000017 	ldw	r16,0(sp)
  8058d8:	dec00404 	addi	sp,sp,16
  8058dc:	08054181 	jmpi	805418 <_ZNSt6locale5_Impl16_M_install_facetEPKNS_2idEPKNS_5facetE>
  8058e0:	010021b4 	movhi	r4,134
  8058e4:	21233404 	addi	r4,r4,-29488
  8058e8:	083abc00 	call	83abc0 <_ZSt21__throw_runtime_errorPKc>

008058ec <_ZNSt6locale5_Impl19_M_replace_categoryEPKS0_PKPKNS_2idE>:
  8058ec:	defffc04 	addi	sp,sp,-16
  8058f0:	dc000015 	stw	r16,0(sp)
  8058f4:	3021883a 	mov	r16,r6
  8058f8:	31800017 	ldw	r6,0(r6)
  8058fc:	dc800215 	stw	r18,8(sp)
  805900:	dc400115 	stw	r17,4(sp)
  805904:	dfc00315 	stw	ra,12(sp)
  805908:	2025883a 	mov	r18,r4
  80590c:	2823883a 	mov	r17,r5
  805910:	30000626 	beq	r6,zero,80592c <_ZNSt6locale5_Impl19_M_replace_categoryEPKS0_PKPKNS_2idE+0x40>
  805914:	84000104 	addi	r16,r16,4
  805918:	9009883a 	mov	r4,r18
  80591c:	880b883a 	mov	r5,r17
  805920:	08058700 	call	805870 <_ZNSt6locale5_Impl16_M_replace_facetEPKS0_PKNS_2idE>
  805924:	81800017 	ldw	r6,0(r16)
  805928:	303ffa1e 	bne	r6,zero,805914 <_ZNSt6locale5_Impl19_M_replace_categoryEPKS0_PKPKNS_2idE+0x28>
  80592c:	dfc00317 	ldw	ra,12(sp)
  805930:	dc800217 	ldw	r18,8(sp)
  805934:	dc400117 	ldw	r17,4(sp)
  805938:	dc000017 	ldw	r16,0(sp)
  80593c:	dec00404 	addi	sp,sp,16
  805940:	f800283a 	ret

00805944 <_ZNSt6locale5_ImplC2Em>:
  805944:	deffe804 	addi	sp,sp,-96
  805948:	00802134 	movhi	r2,132
  80594c:	10a08504 	addi	r2,r2,-32236
  805950:	00c02174 	movhi	r3,133
  805954:	18decd04 	addi	r3,r3,31540
  805958:	d8800615 	stw	r2,24(sp)
  80595c:	d9001115 	stw	r4,68(sp)
  805960:	00802034 	movhi	r2,128
  805964:	10980b04 	addi	r2,r2,24620
  805968:	d809883a 	mov	r4,sp
  80596c:	d8c00715 	stw	r3,28(sp)
  805970:	d8800915 	stw	r2,36(sp)
  805974:	d9401215 	stw	r5,72(sp)
  805978:	dfc01715 	stw	ra,92(sp)
  80597c:	df001615 	stw	fp,88(sp)
  805980:	ddc01515 	stw	r23,84(sp)
  805984:	dec00815 	stw	sp,32(sp)
  805988:	dec00a15 	stw	sp,40(sp)
  80598c:	08433d40 	call	8433d4 <_Unwind_SjLj_Register>
  805990:	d9401117 	ldw	r5,68(sp)
  805994:	d9801217 	ldw	r6,72(sp)
  805998:	008021b4 	movhi	r2,134
  80599c:	10be7c04 	addi	r2,r2,-1552
  8059a0:	00c021b4 	movhi	r3,134
  8059a4:	18fe8a04 	addi	r3,r3,-1496
  8059a8:	01000384 	movi	r4,14
  8059ac:	29800015 	stw	r6,0(r5)
  8059b0:	29000215 	stw	r4,8(r5)
  8059b4:	28000415 	stw	zero,16(r5)
  8059b8:	28800115 	stw	r2,4(r5)
  8059bc:	28c00315 	stw	r3,12(r5)
  8059c0:	1013883a 	mov	r9,r2
  8059c4:	1811883a 	mov	r8,r3
  8059c8:	000d883a 	mov	r6,zero
  8059cc:	000b883a 	mov	r5,zero
  8059d0:	01c00044 	movi	r7,1
  8059d4:	2a05883a 	add	r2,r5,r8
  8059d8:	2a47883a 	add	r3,r5,r9
  8059dc:	10000015 	stw	zero,0(r2)
  8059e0:	31cd883a 	add	r6,r6,r7
  8059e4:	18000015 	stw	zero,0(r3)
  8059e8:	29400104 	addi	r5,r5,4
  8059ec:	313ff936 	bltu	r6,r4,8059d4 <_ZNSt6locale5_ImplC2Em+0x90>
  8059f0:	d9401117 	ldw	r5,68(sp)
  8059f4:	00c021b4 	movhi	r3,134
  8059f8:	18fe7304 	addi	r3,r3,-1588
  8059fc:	008021b4 	movhi	r2,134
  805a00:	10be7904 	addi	r2,r2,-1564
  805a04:	18800015 	stw	r2,0(r3)
  805a08:	28c00415 	stw	r3,16(r5)
  805a0c:	00800244 	movi	r2,9
  805a10:	d8800115 	stw	r2,4(sp)
  805a14:	0803b580 	call	803b58 <_ZNSt6locale5facet13_S_get_c_nameEv>
  805a18:	11000003 	ldbu	r4,0(r2)
  805a1c:	018021b4 	movhi	r6,134
  805a20:	31be7904 	addi	r6,r6,-1564
  805a24:	01400104 	movi	r5,4
  805a28:	31000005 	stb	r4,0(r6)
  805a2c:	10c00043 	ldbu	r3,1(r2)
  805a30:	01000604 	movi	r4,24
  805a34:	30c00045 	stb	r3,1(r6)
  805a38:	d8801117 	ldw	r2,68(sp)
  805a3c:	10c00417 	ldw	r3,16(r2)
  805a40:	28c5883a 	add	r2,r5,r3
  805a44:	29400104 	addi	r5,r5,4
  805a48:	10000015 	stw	zero,0(r2)
  805a4c:	293ffc1e 	bne	r5,r4,805a40 <_ZNSt6locale5_ImplC2Em+0xfc>
  805a50:	00800204 	movi	r2,8
  805a54:	d8800115 	stw	r2,4(sp)
  805a58:	010021b4 	movhi	r4,134
  805a5c:	213e9804 	addi	r4,r4,-1440
  805a60:	000b883a 	mov	r5,zero
  805a64:	000d883a 	mov	r6,zero
  805a68:	01c00044 	movi	r7,1
  805a6c:	0839cd80 	call	839cd8 <_ZNSt5ctypeIcEC1EPKcbm>
  805a70:	00c00244 	movi	r3,9
  805a74:	d8c00115 	stw	r3,4(sp)
  805a78:	018021b4 	movhi	r6,134
  805a7c:	31be9804 	addi	r6,r6,-1440
  805a80:	d9001117 	ldw	r4,68(sp)
  805a84:	014021b4 	movhi	r5,134
  805a88:	297c4904 	addi	r5,r5,-3804
  805a8c:	08054180 	call	805418 <_ZNSt6locale5_Impl16_M_install_facetEPKNS_2idEPKNS_5facetE>
  805a90:	008001c4 	movi	r2,7
  805a94:	d8800115 	stw	r2,4(sp)
  805a98:	010021b4 	movhi	r4,134
  805a9c:	213f2604 	addi	r4,r4,-872
  805aa0:	01400044 	movi	r5,1
  805aa4:	08393c00 	call	8393c0 <_ZNSt7codecvtIcc10_mbstate_tEC1Em>
  805aa8:	01400244 	movi	r5,9
  805aac:	d9400115 	stw	r5,4(sp)
  805ab0:	018021b4 	movhi	r6,134
  805ab4:	31bf2604 	addi	r6,r6,-872
  805ab8:	d9001117 	ldw	r4,68(sp)
  805abc:	014021b4 	movhi	r5,134
  805ac0:	297c4804 	addi	r5,r5,-3808
  805ac4:	08054180 	call	805418 <_ZNSt6locale5_Impl16_M_install_facetEPKNS_2idEPKNS_5facetE>
  805ac8:	008021b4 	movhi	r2,134
  805acc:	10bf3804 	addi	r2,r2,-800
  805ad0:	00c021b4 	movhi	r3,134
  805ad4:	18e3ef04 	addi	r3,r3,-28740
  805ad8:	010021b4 	movhi	r4,134
  805adc:	213f2304 	addi	r4,r4,-884
  805ae0:	10c00015 	stw	r3,0(r2)
  805ae4:	01800044 	movi	r6,1
  805ae8:	00c021b4 	movhi	r3,134
  805aec:	18e4ac04 	addi	r3,r3,-27984
  805af0:	20800215 	stw	r2,8(r4)
  805af4:	11800115 	stw	r6,4(r2)
  805af8:	10000215 	stw	zero,8(r2)
  805afc:	10000315 	stw	zero,12(r2)
  805b00:	10000405 	stb	zero,16(r2)
  805b04:	10000515 	stw	zero,20(r2)
  805b08:	10000615 	stw	zero,24(r2)
  805b0c:	10000715 	stw	zero,28(r2)
  805b10:	10000815 	stw	zero,32(r2)
  805b14:	10000905 	stb	zero,36(r2)
  805b18:	10000945 	stb	zero,37(r2)
  805b1c:	10001905 	stb	zero,100(r2)
  805b20:	21800115 	stw	r6,4(r4)
  805b24:	20c00015 	stw	r3,0(r4)
  805b28:	00800104 	movi	r2,4
  805b2c:	d8800115 	stw	r2,4(sp)
  805b30:	000b883a 	mov	r5,zero
  805b34:	0835fe00 	call	835fe0 <_ZNSt8numpunctIcE22_M_initialize_numpunctEPi>
  805b38:	00c00244 	movi	r3,9
  805b3c:	d8c00115 	stw	r3,4(sp)
  805b40:	d9001117 	ldw	r4,68(sp)
  805b44:	014021b4 	movhi	r5,134
  805b48:	297c2304 	addi	r5,r5,-3956
  805b4c:	018021b4 	movhi	r6,134
  805b50:	31bf2304 	addi	r6,r6,-884
  805b54:	08054180 	call	805418 <_ZNSt6locale5_Impl16_M_install_facetEPKNS_2idEPKNS_5facetE>
  805b58:	018021b4 	movhi	r6,134
  805b5c:	31bc4b04 	addi	r6,r6,-3796
  805b60:	01400044 	movi	r5,1
  805b64:	008021b4 	movhi	r2,134
  805b68:	10a43e04 	addi	r2,r2,-28424
  805b6c:	31400115 	stw	r5,4(r6)
  805b70:	30800015 	stw	r2,0(r6)
  805b74:	d9001117 	ldw	r4,68(sp)
  805b78:	014021b4 	movhi	r5,134
  805b7c:	297c2404 	addi	r5,r5,-3952
  805b80:	08054180 	call	805418 <_ZNSt6locale5_Impl16_M_install_facetEPKNS_2idEPKNS_5facetE>
  805b84:	018021b4 	movhi	r6,134
  805b88:	31bc4d04 	addi	r6,r6,-3788
  805b8c:	008021b4 	movhi	r2,134
  805b90:	10a43204 	addi	r2,r2,-28472
  805b94:	30800015 	stw	r2,0(r6)
  805b98:	00800044 	movi	r2,1
  805b9c:	30800115 	stw	r2,4(r6)
  805ba0:	d9001117 	ldw	r4,68(sp)
  805ba4:	014021b4 	movhi	r5,134
  805ba8:	297c2504 	addi	r5,r5,-3948
  805bac:	08054180 	call	805418 <_ZNSt6locale5_Impl16_M_install_facetEPKNS_2idEPKNS_5facetE>
  805bb0:	00c021b4 	movhi	r3,134
  805bb4:	18ff2004 	addi	r3,r3,-896
  805bb8:	01400044 	movi	r5,1
  805bbc:	008021b4 	movhi	r2,134
  805bc0:	10a4a504 	addi	r2,r2,-28012
  805bc4:	19400115 	stw	r5,4(r3)
  805bc8:	18800015 	stw	r2,0(r3)
  805bcc:	00c000c4 	movi	r3,3
  805bd0:	d8c00115 	stw	r3,4(sp)
  805bd4:	0803c880 	call	803c88 <_ZNSt6locale5facet15_S_get_c_localeEv>
  805bd8:	018021b4 	movhi	r6,134
  805bdc:	31bf2004 	addi	r6,r6,-896
  805be0:	30800215 	stw	r2,8(r6)
  805be4:	00800244 	movi	r2,9
  805be8:	d8800115 	stw	r2,4(sp)
  805bec:	d9001117 	ldw	r4,68(sp)
  805bf0:	014021b4 	movhi	r5,134
  805bf4:	297c2a04 	addi	r5,r5,-3928
  805bf8:	08054180 	call	805418 <_ZNSt6locale5_Impl16_M_install_facetEPKNS_2idEPKNS_5facetE>
  805bfc:	008021b4 	movhi	r2,134
  805c00:	10bf6304 	addi	r2,r2,-628
  805c04:	00c021b4 	movhi	r3,134
  805c08:	18e3f704 	addi	r3,r3,-28708
  805c0c:	010021b4 	movhi	r4,134
  805c10:	213f2c04 	addi	r4,r4,-848
  805c14:	01400044 	movi	r5,1
  805c18:	10c00015 	stw	r3,0(r2)
  805c1c:	00c021b4 	movhi	r3,134
  805c20:	18e48304 	addi	r3,r3,-28148
  805c24:	21400115 	stw	r5,4(r4)
  805c28:	20c00015 	stw	r3,0(r4)
  805c2c:	11400115 	stw	r5,4(r2)
  805c30:	20800215 	stw	r2,8(r4)
  805c34:	10000215 	stw	zero,8(r2)
  805c38:	10000315 	stw	zero,12(r2)
  805c3c:	10000405 	stb	zero,16(r2)
  805c40:	10000445 	stb	zero,17(r2)
  805c44:	10000485 	stb	zero,18(r2)
  805c48:	10000515 	stw	zero,20(r2)
  805c4c:	10000615 	stw	zero,24(r2)
  805c50:	10000715 	stw	zero,28(r2)
  805c54:	10000815 	stw	zero,32(r2)
  805c58:	10000915 	stw	zero,36(r2)
  805c5c:	10000a15 	stw	zero,40(r2)
  805c60:	10000b15 	stw	zero,44(r2)
  805c64:	10000c15 	stw	zero,48(r2)
  805c68:	10000d15 	stw	zero,52(r2)
  805c6c:	100010c5 	stb	zero,67(r2)
  805c70:	00c00084 	movi	r3,2
  805c74:	d8c00115 	stw	r3,4(sp)
  805c78:	000b883a 	mov	r5,zero
  805c7c:	000d883a 	mov	r6,zero
  805c80:	0835b100 	call	835b10 <_ZNSt10moneypunctIcLb0EE24_M_initialize_moneypunctEPiPKc>
  805c84:	00800244 	movi	r2,9
  805c88:	d8800115 	stw	r2,4(sp)
  805c8c:	d9001117 	ldw	r4,68(sp)
  805c90:	014021b4 	movhi	r5,134
  805c94:	297c1f04 	addi	r5,r5,-3972
  805c98:	018021b4 	movhi	r6,134
  805c9c:	31bf2c04 	addi	r6,r6,-848
  805ca0:	08054180 	call	805418 <_ZNSt6locale5_Impl16_M_install_facetEPKNS_2idEPKNS_5facetE>
  805ca4:	008021b4 	movhi	r2,134
  805ca8:	10bf5204 	addi	r2,r2,-696
  805cac:	01800044 	movi	r6,1
  805cb0:	010021b4 	movhi	r4,134
  805cb4:	213f2904 	addi	r4,r4,-860
  805cb8:	014021b4 	movhi	r5,134
  805cbc:	29649004 	addi	r5,r5,-28096
  805cc0:	00c021b4 	movhi	r3,134
  805cc4:	18e3f304 	addi	r3,r3,-28724
  805cc8:	21400015 	stw	r5,0(r4)
  805ccc:	11800115 	stw	r6,4(r2)
  805cd0:	21800115 	stw	r6,4(r4)
  805cd4:	10c00015 	stw	r3,0(r2)
  805cd8:	20800215 	stw	r2,8(r4)
  805cdc:	10000215 	stw	zero,8(r2)
  805ce0:	10000315 	stw	zero,12(r2)
  805ce4:	10000405 	stb	zero,16(r2)
  805ce8:	10000445 	stb	zero,17(r2)
  805cec:	10000485 	stb	zero,18(r2)
  805cf0:	10000515 	stw	zero,20(r2)
  805cf4:	10000615 	stw	zero,24(r2)
  805cf8:	10000715 	stw	zero,28(r2)
  805cfc:	10000815 	stw	zero,32(r2)
  805d00:	10000915 	stw	zero,36(r2)
  805d04:	10000a15 	stw	zero,40(r2)
  805d08:	10000b15 	stw	zero,44(r2)
  805d0c:	10000c15 	stw	zero,48(r2)
  805d10:	10000d15 	stw	zero,52(r2)
  805d14:	100010c5 	stb	zero,67(r2)
  805d18:	d9800115 	stw	r6,4(sp)
  805d1c:	000b883a 	mov	r5,zero
  805d20:	000d883a 	mov	r6,zero
  805d24:	0835c480 	call	835c48 <_ZNSt10moneypunctIcLb1EE24_M_initialize_moneypunctEPiPKc>
  805d28:	00800244 	movi	r2,9
  805d2c:	d8800115 	stw	r2,4(sp)
  805d30:	d9001117 	ldw	r4,68(sp)
  805d34:	014021b4 	movhi	r5,134
  805d38:	297c2004 	addi	r5,r5,-3968
  805d3c:	018021b4 	movhi	r6,134
  805d40:	31bf2904 	addi	r6,r6,-860
  805d44:	08054180 	call	805418 <_ZNSt6locale5_Impl16_M_install_facetEPKNS_2idEPKNS_5facetE>
  805d48:	018021b4 	movhi	r6,134
  805d4c:	31bc4f04 	addi	r6,r6,-3780
  805d50:	008021b4 	movhi	r2,134
  805d54:	10a45c04 	addi	r2,r2,-28304
  805d58:	00c00044 	movi	r3,1
  805d5c:	30800015 	stw	r2,0(r6)
  805d60:	30c00115 	stw	r3,4(r6)
  805d64:	d9001117 	ldw	r4,68(sp)
  805d68:	014021b4 	movhi	r5,134
  805d6c:	297c2104 	addi	r5,r5,-3964
  805d70:	08054180 	call	805418 <_ZNSt6locale5_Impl16_M_install_facetEPKNS_2idEPKNS_5facetE>
  805d74:	018021b4 	movhi	r6,134
  805d78:	31bc5104 	addi	r6,r6,-3772
  805d7c:	01400044 	movi	r5,1
  805d80:	008021b4 	movhi	r2,134
  805d84:	10a45604 	addi	r2,r2,-28328
  805d88:	31400115 	stw	r5,4(r6)
  805d8c:	30800015 	stw	r2,0(r6)
  805d90:	d9001117 	ldw	r4,68(sp)
  805d94:	014021b4 	movhi	r5,134
  805d98:	297c2204 	addi	r5,r5,-3960
  805d9c:	08054180 	call	805418 <_ZNSt6locale5_Impl16_M_install_facetEPKNS_2idEPKNS_5facetE>
  805da0:	014021b4 	movhi	r5,134
  805da4:	297f7404 	addi	r5,r5,-560
  805da8:	008021b4 	movhi	r2,134
  805dac:	10a4a104 	addi	r2,r2,-28028
  805db0:	01800044 	movi	r6,1
  805db4:	28800015 	stw	r2,0(r5)
  805db8:	29800115 	stw	r6,4(r5)
  805dbc:	28000215 	stw	zero,8(r5)
  805dc0:	28000315 	stw	zero,12(r5)
  805dc4:	28000415 	stw	zero,16(r5)
  805dc8:	28000515 	stw	zero,20(r5)
  805dcc:	28000615 	stw	zero,24(r5)
  805dd0:	28000715 	stw	zero,28(r5)
  805dd4:	28000815 	stw	zero,32(r5)
  805dd8:	28000915 	stw	zero,36(r5)
  805ddc:	28000a15 	stw	zero,40(r5)
  805de0:	28000b15 	stw	zero,44(r5)
  805de4:	28000c15 	stw	zero,48(r5)
  805de8:	28000d15 	stw	zero,52(r5)
  805dec:	28000e15 	stw	zero,56(r5)
  805df0:	28000f15 	stw	zero,60(r5)
  805df4:	28001015 	stw	zero,64(r5)
  805df8:	28001115 	stw	zero,68(r5)
  805dfc:	28001215 	stw	zero,72(r5)
  805e00:	28001315 	stw	zero,76(r5)
  805e04:	28001415 	stw	zero,80(r5)
  805e08:	28001515 	stw	zero,84(r5)
  805e0c:	28001615 	stw	zero,88(r5)
  805e10:	28001715 	stw	zero,92(r5)
  805e14:	28001815 	stw	zero,96(r5)
  805e18:	28001915 	stw	zero,100(r5)
  805e1c:	28001a15 	stw	zero,104(r5)
  805e20:	28001b15 	stw	zero,108(r5)
  805e24:	28001c15 	stw	zero,112(r5)
  805e28:	28001d15 	stw	zero,116(r5)
  805e2c:	28001e15 	stw	zero,120(r5)
  805e30:	28001f15 	stw	zero,124(r5)
  805e34:	28002015 	stw	zero,128(r5)
  805e38:	28002115 	stw	zero,132(r5)
  805e3c:	00800184 	movi	r2,6
  805e40:	28002215 	stw	zero,136(r5)
  805e44:	28002315 	stw	zero,140(r5)
  805e48:	28002415 	stw	zero,144(r5)
  805e4c:	28002515 	stw	zero,148(r5)
  805e50:	28002615 	stw	zero,152(r5)
  805e54:	28002715 	stw	zero,156(r5)
  805e58:	28002815 	stw	zero,160(r5)
  805e5c:	28002915 	stw	zero,164(r5)
  805e60:	28002a15 	stw	zero,168(r5)
  805e64:	28002b15 	stw	zero,172(r5)
  805e68:	28002c15 	stw	zero,176(r5)
  805e6c:	28002d15 	stw	zero,180(r5)
  805e70:	28002e15 	stw	zero,184(r5)
  805e74:	28002f15 	stw	zero,188(r5)
  805e78:	28003015 	stw	zero,192(r5)
  805e7c:	28003105 	stb	zero,196(r5)
  805e80:	d8800115 	stw	r2,4(sp)
  805e84:	010021b4 	movhi	r4,134
  805e88:	213f2f04 	addi	r4,r4,-836
  805e8c:	0812cc80 	call	812cc8 <_ZNSt11__timepunctIcEC1EPSt17__timepunct_cacheIcEm>
  805e90:	00800244 	movi	r2,9
  805e94:	d8800115 	stw	r2,4(sp)
  805e98:	018021b4 	movhi	r6,134
  805e9c:	31bf2f04 	addi	r6,r6,-836
  805ea0:	d9001117 	ldw	r4,68(sp)
  805ea4:	014021b4 	movhi	r5,134
  805ea8:	297c2604 	addi	r5,r5,-3944
  805eac:	08054180 	call	805418 <_ZNSt6locale5_Impl16_M_install_facetEPKNS_2idEPKNS_5facetE>
  805eb0:	018021b4 	movhi	r6,134
  805eb4:	31bc5304 	addi	r6,r6,-3764
  805eb8:	008021b4 	movhi	r2,134
  805ebc:	10a41e04 	addi	r2,r2,-28552
  805ec0:	00c00044 	movi	r3,1
  805ec4:	30800015 	stw	r2,0(r6)
  805ec8:	30c00115 	stw	r3,4(r6)
  805ecc:	d9001117 	ldw	r4,68(sp)
  805ed0:	014021b4 	movhi	r5,134
  805ed4:	297c2804 	addi	r5,r5,-3936
  805ed8:	08054180 	call	805418 <_ZNSt6locale5_Impl16_M_install_facetEPKNS_2idEPKNS_5facetE>
  805edc:	018021b4 	movhi	r6,134
  805ee0:	31bc5504 	addi	r6,r6,-3756
  805ee4:	01400044 	movi	r5,1
  805ee8:	008021b4 	movhi	r2,134
  805eec:	10a42d04 	addi	r2,r2,-28492
  805ef0:	31400115 	stw	r5,4(r6)
  805ef4:	30800015 	stw	r2,0(r6)
  805ef8:	d9001117 	ldw	r4,68(sp)
  805efc:	014021b4 	movhi	r5,134
  805f00:	297c2704 	addi	r5,r5,-3940
  805f04:	08054180 	call	805418 <_ZNSt6locale5_Impl16_M_install_facetEPKNS_2idEPKNS_5facetE>
  805f08:	00800144 	movi	r2,5
  805f0c:	d8800115 	stw	r2,4(sp)
  805f10:	01400044 	movi	r5,1
  805f14:	010021b4 	movhi	r4,134
  805f18:	213f3404 	addi	r4,r4,-816
  805f1c:	081460c0 	call	81460c <_ZNSt8messagesIcEC1Em>
  805f20:	01800244 	movi	r6,9
  805f24:	d9800115 	stw	r6,4(sp)
  805f28:	d9001117 	ldw	r4,68(sp)
  805f2c:	018021b4 	movhi	r6,134
  805f30:	31bf3404 	addi	r6,r6,-816
  805f34:	014021b4 	movhi	r5,134
  805f38:	297c2904 	addi	r5,r5,-3932
  805f3c:	08054180 	call	805418 <_ZNSt6locale5_Impl16_M_install_facetEPKNS_2idEPKNS_5facetE>
  805f40:	d8801117 	ldw	r2,68(sp)
  805f44:	010021b4 	movhi	r4,134
  805f48:	213c2304 	addi	r4,r4,-3956
  805f4c:	10800317 	ldw	r2,12(r2)
  805f50:	d8801015 	stw	r2,64(sp)
  805f54:	0803b600 	call	803b60 <_ZNKSt6locale2id5_M_idEv>
  805f58:	d9401117 	ldw	r5,68(sp)
  805f5c:	d8c01017 	ldw	r3,64(sp)
  805f60:	1085883a 	add	r2,r2,r2
  805f64:	1085883a 	add	r2,r2,r2
  805f68:	29400317 	ldw	r5,12(r5)
  805f6c:	10c5883a 	add	r2,r2,r3
  805f70:	00c021b4 	movhi	r3,134
  805f74:	18ff3804 	addi	r3,r3,-800
  805f78:	10c00015 	stw	r3,0(r2)
  805f7c:	d9400f15 	stw	r5,60(sp)
  805f80:	010021b4 	movhi	r4,134
  805f84:	213c1f04 	addi	r4,r4,-3972
  805f88:	0803b600 	call	803b60 <_ZNKSt6locale2id5_M_idEv>
  805f8c:	d9800f17 	ldw	r6,60(sp)
  805f90:	1085883a 	add	r2,r2,r2
  805f94:	1085883a 	add	r2,r2,r2
  805f98:	1185883a 	add	r2,r2,r6
  805f9c:	00c021b4 	movhi	r3,134
  805fa0:	18ff6304 	addi	r3,r3,-628
  805fa4:	10c00015 	stw	r3,0(r2)
  805fa8:	d8801117 	ldw	r2,68(sp)
  805fac:	010021b4 	movhi	r4,134
  805fb0:	213c2004 	addi	r4,r4,-3968
  805fb4:	10800317 	ldw	r2,12(r2)
  805fb8:	d8800e15 	stw	r2,56(sp)
  805fbc:	0803b600 	call	803b60 <_ZNKSt6locale2id5_M_idEv>
  805fc0:	d9401117 	ldw	r5,68(sp)
  805fc4:	d8c00e17 	ldw	r3,56(sp)
  805fc8:	1085883a 	add	r2,r2,r2
  805fcc:	1085883a 	add	r2,r2,r2
  805fd0:	29400317 	ldw	r5,12(r5)
  805fd4:	10c5883a 	add	r2,r2,r3
  805fd8:	00c021b4 	movhi	r3,134
  805fdc:	18ff5204 	addi	r3,r3,-696
  805fe0:	10c00015 	stw	r3,0(r2)
  805fe4:	d9400d15 	stw	r5,52(sp)
  805fe8:	010021b4 	movhi	r4,134
  805fec:	213c2604 	addi	r4,r4,-3944
  805ff0:	0803b600 	call	803b60 <_ZNKSt6locale2id5_M_idEv>
  805ff4:	d8c00d17 	ldw	r3,52(sp)
  805ff8:	1085883a 	add	r2,r2,r2
  805ffc:	1085883a 	add	r2,r2,r2
  806000:	10c5883a 	add	r2,r2,r3
  806004:	00c021b4 	movhi	r3,134
  806008:	18ff7404 	addi	r3,r3,-560
  80600c:	10c00015 	stw	r3,0(r2)
  806010:	d809883a 	mov	r4,sp
  806014:	08433e40 	call	8433e4 <_Unwind_SjLj_Unregister>
  806018:	dfc01717 	ldw	ra,92(sp)
  80601c:	df001617 	ldw	fp,88(sp)
  806020:	ddc01517 	ldw	r23,84(sp)
  806024:	dec01804 	addi	sp,sp,96
  806028:	f800283a 	ret
  80602c:	d9400217 	ldw	r5,8(sp)
  806030:	d9800317 	ldw	r6,12(sp)
  806034:	d8c00117 	ldw	r3,4(sp)
  806038:	00800044 	movi	r2,1
  80603c:	d9401415 	stw	r5,80(sp)
  806040:	d9801315 	stw	r6,76(sp)
  806044:	18802626 	beq	r3,r2,8060e0 <_ZNSt6locale5_ImplC2Em+0x79c>
  806048:	00800084 	movi	r2,2
  80604c:	18801f26 	beq	r3,r2,8060cc <_ZNSt6locale5_ImplC2Em+0x788>
  806050:	008000c4 	movi	r2,3
  806054:	18801426 	beq	r3,r2,8060a8 <_ZNSt6locale5_ImplC2Em+0x764>
  806058:	00800104 	movi	r2,4
  80605c:	18800c26 	beq	r3,r2,806090 <_ZNSt6locale5_ImplC2Em+0x74c>
  806060:	00800144 	movi	r2,5
  806064:	18800a26 	beq	r3,r2,806090 <_ZNSt6locale5_ImplC2Em+0x74c>
  806068:	00800184 	movi	r2,6
  80606c:	18800826 	beq	r3,r2,806090 <_ZNSt6locale5_ImplC2Em+0x74c>
  806070:	008001c4 	movi	r2,7
  806074:	18800626 	beq	r3,r2,806090 <_ZNSt6locale5_ImplC2Em+0x74c>
  806078:	00800204 	movi	r2,8
  80607c:	18800426 	beq	r3,r2,806090 <_ZNSt6locale5_ImplC2Em+0x74c>
  806080:	010021b4 	movhi	r4,134
  806084:	213f2904 	addi	r4,r4,-860
  806088:	d8000115 	stw	zero,4(sp)
  80608c:	0803c680 	call	803c68 <_ZNSt6locale5facetD2Ev>
  806090:	d9801317 	ldw	r6,76(sp)
  806094:	00bfffc4 	movi	r2,-1
  806098:	30800826 	beq	r6,r2,8060bc <_ZNSt6locale5_ImplC2Em+0x778>
  80609c:	d9001417 	ldw	r4,80(sp)
  8060a0:	d8800115 	stw	r2,4(sp)
  8060a4:	08436a00 	call	8436a0 <_Unwind_SjLj_Resume>
  8060a8:	010021b4 	movhi	r4,134
  8060ac:	213f2304 	addi	r4,r4,-884
  8060b0:	d8000115 	stw	zero,4(sp)
  8060b4:	0803c680 	call	803c68 <_ZNSt6locale5facetD2Ev>
  8060b8:	003ff506 	br	806090 <_ZNSt6locale5_ImplC2Em+0x74c>
  8060bc:	d9001417 	ldw	r4,80(sp)
  8060c0:	00bfffc4 	movi	r2,-1
  8060c4:	d8800115 	stw	r2,4(sp)
  8060c8:	08380940 	call	838094 <__cxa_call_unexpected>
  8060cc:	010021b4 	movhi	r4,134
  8060d0:	213f2004 	addi	r4,r4,-896
  8060d4:	d8000115 	stw	zero,4(sp)
  8060d8:	0803c680 	call	803c68 <_ZNSt6locale5facetD2Ev>
  8060dc:	003fec06 	br	806090 <_ZNSt6locale5_ImplC2Em+0x74c>
  8060e0:	010021b4 	movhi	r4,134
  8060e4:	213f2c04 	addi	r4,r4,-848
  8060e8:	d8000115 	stw	zero,4(sp)
  8060ec:	0803c680 	call	803c68 <_ZNSt6locale5facetD2Ev>
  8060f0:	003fe706 	br	806090 <_ZNSt6locale5_ImplC2Em+0x74c>

008060f4 <_ZNSt6locale5_ImplC1Em>:
  8060f4:	deffe804 	addi	sp,sp,-96
  8060f8:	00802134 	movhi	r2,132
  8060fc:	10a08504 	addi	r2,r2,-32236
  806100:	00c02174 	movhi	r3,133
  806104:	18ded504 	addi	r3,r3,31572
  806108:	d8800615 	stw	r2,24(sp)
  80610c:	d9001115 	stw	r4,68(sp)
  806110:	00802034 	movhi	r2,128
  806114:	1099f704 	addi	r2,r2,26588
  806118:	d809883a 	mov	r4,sp
  80611c:	d8c00715 	stw	r3,28(sp)
  806120:	d8800915 	stw	r2,36(sp)
  806124:	d9401215 	stw	r5,72(sp)
  806128:	dfc01715 	stw	ra,92(sp)
  80612c:	df001615 	stw	fp,88(sp)
  806130:	ddc01515 	stw	r23,84(sp)
  806134:	dec00815 	stw	sp,32(sp)
  806138:	dec00a15 	stw	sp,40(sp)
  80613c:	08433d40 	call	8433d4 <_Unwind_SjLj_Register>
  806140:	d9401117 	ldw	r5,68(sp)
  806144:	d9801217 	ldw	r6,72(sp)
  806148:	008021b4 	movhi	r2,134
  80614c:	10be7c04 	addi	r2,r2,-1552
  806150:	00c021b4 	movhi	r3,134
  806154:	18fe8a04 	addi	r3,r3,-1496
  806158:	01000384 	movi	r4,14
  80615c:	29800015 	stw	r6,0(r5)
  806160:	29000215 	stw	r4,8(r5)
  806164:	28000415 	stw	zero,16(r5)
  806168:	28800115 	stw	r2,4(r5)
  80616c:	28c00315 	stw	r3,12(r5)
  806170:	1013883a 	mov	r9,r2
  806174:	1811883a 	mov	r8,r3
  806178:	000d883a 	mov	r6,zero
  80617c:	000b883a 	mov	r5,zero
  806180:	01c00044 	movi	r7,1
  806184:	2a05883a 	add	r2,r5,r8
  806188:	2a47883a 	add	r3,r5,r9
  80618c:	10000015 	stw	zero,0(r2)
  806190:	31cd883a 	add	r6,r6,r7
  806194:	18000015 	stw	zero,0(r3)
  806198:	29400104 	addi	r5,r5,4
  80619c:	313ff936 	bltu	r6,r4,806184 <_ZNSt6locale5_ImplC1Em+0x90>
  8061a0:	d9401117 	ldw	r5,68(sp)
  8061a4:	00c021b4 	movhi	r3,134
  8061a8:	18fe7304 	addi	r3,r3,-1588
  8061ac:	008021b4 	movhi	r2,134
  8061b0:	10be7904 	addi	r2,r2,-1564
  8061b4:	18800015 	stw	r2,0(r3)
  8061b8:	28c00415 	stw	r3,16(r5)
  8061bc:	00800244 	movi	r2,9
  8061c0:	d8800115 	stw	r2,4(sp)
  8061c4:	0803b580 	call	803b58 <_ZNSt6locale5facet13_S_get_c_nameEv>
  8061c8:	11000003 	ldbu	r4,0(r2)
  8061cc:	018021b4 	movhi	r6,134
  8061d0:	31be7904 	addi	r6,r6,-1564
  8061d4:	01400104 	movi	r5,4
  8061d8:	31000005 	stb	r4,0(r6)
  8061dc:	10c00043 	ldbu	r3,1(r2)
  8061e0:	01000604 	movi	r4,24
  8061e4:	30c00045 	stb	r3,1(r6)
  8061e8:	d8801117 	ldw	r2,68(sp)
  8061ec:	10c00417 	ldw	r3,16(r2)
  8061f0:	28c5883a 	add	r2,r5,r3
  8061f4:	29400104 	addi	r5,r5,4
  8061f8:	10000015 	stw	zero,0(r2)
  8061fc:	293ffc1e 	bne	r5,r4,8061f0 <_ZNSt6locale5_ImplC1Em+0xfc>
  806200:	00800204 	movi	r2,8
  806204:	d8800115 	stw	r2,4(sp)
  806208:	010021b4 	movhi	r4,134
  80620c:	213e9804 	addi	r4,r4,-1440
  806210:	000b883a 	mov	r5,zero
  806214:	000d883a 	mov	r6,zero
  806218:	01c00044 	movi	r7,1
  80621c:	0839cd80 	call	839cd8 <_ZNSt5ctypeIcEC1EPKcbm>
  806220:	00c00244 	movi	r3,9
  806224:	d8c00115 	stw	r3,4(sp)
  806228:	018021b4 	movhi	r6,134
  80622c:	31be9804 	addi	r6,r6,-1440
  806230:	d9001117 	ldw	r4,68(sp)
  806234:	014021b4 	movhi	r5,134
  806238:	297c4904 	addi	r5,r5,-3804
  80623c:	08054180 	call	805418 <_ZNSt6locale5_Impl16_M_install_facetEPKNS_2idEPKNS_5facetE>
  806240:	008001c4 	movi	r2,7
  806244:	d8800115 	stw	r2,4(sp)
  806248:	010021b4 	movhi	r4,134
  80624c:	213f2604 	addi	r4,r4,-872
  806250:	01400044 	movi	r5,1
  806254:	08393c00 	call	8393c0 <_ZNSt7codecvtIcc10_mbstate_tEC1Em>
  806258:	01400244 	movi	r5,9
  80625c:	d9400115 	stw	r5,4(sp)
  806260:	018021b4 	movhi	r6,134
  806264:	31bf2604 	addi	r6,r6,-872
  806268:	d9001117 	ldw	r4,68(sp)
  80626c:	014021b4 	movhi	r5,134
  806270:	297c4804 	addi	r5,r5,-3808
  806274:	08054180 	call	805418 <_ZNSt6locale5_Impl16_M_install_facetEPKNS_2idEPKNS_5facetE>
  806278:	008021b4 	movhi	r2,134
  80627c:	10bf3804 	addi	r2,r2,-800
  806280:	00c021b4 	movhi	r3,134
  806284:	18e3ef04 	addi	r3,r3,-28740
  806288:	010021b4 	movhi	r4,134
  80628c:	213f2304 	addi	r4,r4,-884
  806290:	10c00015 	stw	r3,0(r2)
  806294:	01800044 	movi	r6,1
  806298:	00c021b4 	movhi	r3,134
  80629c:	18e4ac04 	addi	r3,r3,-27984
  8062a0:	20800215 	stw	r2,8(r4)
  8062a4:	11800115 	stw	r6,4(r2)
  8062a8:	10000215 	stw	zero,8(r2)
  8062ac:	10000315 	stw	zero,12(r2)
  8062b0:	10000405 	stb	zero,16(r2)
  8062b4:	10000515 	stw	zero,20(r2)
  8062b8:	10000615 	stw	zero,24(r2)
  8062bc:	10000715 	stw	zero,28(r2)
  8062c0:	10000815 	stw	zero,32(r2)
  8062c4:	10000905 	stb	zero,36(r2)
  8062c8:	10000945 	stb	zero,37(r2)
  8062cc:	10001905 	stb	zero,100(r2)
  8062d0:	21800115 	stw	r6,4(r4)
  8062d4:	20c00015 	stw	r3,0(r4)
  8062d8:	00800104 	movi	r2,4
  8062dc:	d8800115 	stw	r2,4(sp)
  8062e0:	000b883a 	mov	r5,zero
  8062e4:	0835fe00 	call	835fe0 <_ZNSt8numpunctIcE22_M_initialize_numpunctEPi>
  8062e8:	00c00244 	movi	r3,9
  8062ec:	d8c00115 	stw	r3,4(sp)
  8062f0:	d9001117 	ldw	r4,68(sp)
  8062f4:	014021b4 	movhi	r5,134
  8062f8:	297c2304 	addi	r5,r5,-3956
  8062fc:	018021b4 	movhi	r6,134
  806300:	31bf2304 	addi	r6,r6,-884
  806304:	08054180 	call	805418 <_ZNSt6locale5_Impl16_M_install_facetEPKNS_2idEPKNS_5facetE>
  806308:	018021b4 	movhi	r6,134
  80630c:	31bc4b04 	addi	r6,r6,-3796
  806310:	01400044 	movi	r5,1
  806314:	008021b4 	movhi	r2,134
  806318:	10a43e04 	addi	r2,r2,-28424
  80631c:	31400115 	stw	r5,4(r6)
  806320:	30800015 	stw	r2,0(r6)
  806324:	d9001117 	ldw	r4,68(sp)
  806328:	014021b4 	movhi	r5,134
  80632c:	297c2404 	addi	r5,r5,-3952
  806330:	08054180 	call	805418 <_ZNSt6locale5_Impl16_M_install_facetEPKNS_2idEPKNS_5facetE>
  806334:	018021b4 	movhi	r6,134
  806338:	31bc4d04 	addi	r6,r6,-3788
  80633c:	008021b4 	movhi	r2,134
  806340:	10a43204 	addi	r2,r2,-28472
  806344:	30800015 	stw	r2,0(r6)
  806348:	00800044 	movi	r2,1
  80634c:	30800115 	stw	r2,4(r6)
  806350:	d9001117 	ldw	r4,68(sp)
  806354:	014021b4 	movhi	r5,134
  806358:	297c2504 	addi	r5,r5,-3948
  80635c:	08054180 	call	805418 <_ZNSt6locale5_Impl16_M_install_facetEPKNS_2idEPKNS_5facetE>
  806360:	00c021b4 	movhi	r3,134
  806364:	18ff2004 	addi	r3,r3,-896
  806368:	01400044 	movi	r5,1
  80636c:	008021b4 	movhi	r2,134
  806370:	10a4a504 	addi	r2,r2,-28012
  806374:	19400115 	stw	r5,4(r3)
  806378:	18800015 	stw	r2,0(r3)
  80637c:	00c000c4 	movi	r3,3
  806380:	d8c00115 	stw	r3,4(sp)
  806384:	0803c880 	call	803c88 <_ZNSt6locale5facet15_S_get_c_localeEv>
  806388:	018021b4 	movhi	r6,134
  80638c:	31bf2004 	addi	r6,r6,-896
  806390:	30800215 	stw	r2,8(r6)
  806394:	00800244 	movi	r2,9
  806398:	d8800115 	stw	r2,4(sp)
  80639c:	d9001117 	ldw	r4,68(sp)
  8063a0:	014021b4 	movhi	r5,134
  8063a4:	297c2a04 	addi	r5,r5,-3928
  8063a8:	08054180 	call	805418 <_ZNSt6locale5_Impl16_M_install_facetEPKNS_2idEPKNS_5facetE>
  8063ac:	008021b4 	movhi	r2,134
  8063b0:	10bf6304 	addi	r2,r2,-628
  8063b4:	00c021b4 	movhi	r3,134
  8063b8:	18e3f704 	addi	r3,r3,-28708
  8063bc:	010021b4 	movhi	r4,134
  8063c0:	213f2c04 	addi	r4,r4,-848
  8063c4:	01400044 	movi	r5,1
  8063c8:	10c00015 	stw	r3,0(r2)
  8063cc:	00c021b4 	movhi	r3,134
  8063d0:	18e48304 	addi	r3,r3,-28148
  8063d4:	21400115 	stw	r5,4(r4)
  8063d8:	20c00015 	stw	r3,0(r4)
  8063dc:	11400115 	stw	r5,4(r2)
  8063e0:	20800215 	stw	r2,8(r4)
  8063e4:	10000215 	stw	zero,8(r2)
  8063e8:	10000315 	stw	zero,12(r2)
  8063ec:	10000405 	stb	zero,16(r2)
  8063f0:	10000445 	stb	zero,17(r2)
  8063f4:	10000485 	stb	zero,18(r2)
  8063f8:	10000515 	stw	zero,20(r2)
  8063fc:	10000615 	stw	zero,24(r2)
  806400:	10000715 	stw	zero,28(r2)
  806404:	10000815 	stw	zero,32(r2)
  806408:	10000915 	stw	zero,36(r2)
  80640c:	10000a15 	stw	zero,40(r2)
  806410:	10000b15 	stw	zero,44(r2)
  806414:	10000c15 	stw	zero,48(r2)
  806418:	10000d15 	stw	zero,52(r2)
  80641c:	100010c5 	stb	zero,67(r2)
  806420:	00c00084 	movi	r3,2
  806424:	d8c00115 	stw	r3,4(sp)
  806428:	000b883a 	mov	r5,zero
  80642c:	000d883a 	mov	r6,zero
  806430:	0835b100 	call	835b10 <_ZNSt10moneypunctIcLb0EE24_M_initialize_moneypunctEPiPKc>
  806434:	00800244 	movi	r2,9
  806438:	d8800115 	stw	r2,4(sp)
  80643c:	d9001117 	ldw	r4,68(sp)
  806440:	014021b4 	movhi	r5,134
  806444:	297c1f04 	addi	r5,r5,-3972
  806448:	018021b4 	movhi	r6,134
  80644c:	31bf2c04 	addi	r6,r6,-848
  806450:	08054180 	call	805418 <_ZNSt6locale5_Impl16_M_install_facetEPKNS_2idEPKNS_5facetE>
  806454:	008021b4 	movhi	r2,134
  806458:	10bf5204 	addi	r2,r2,-696
  80645c:	01800044 	movi	r6,1
  806460:	010021b4 	movhi	r4,134
  806464:	213f2904 	addi	r4,r4,-860
  806468:	014021b4 	movhi	r5,134
  80646c:	29649004 	addi	r5,r5,-28096
  806470:	00c021b4 	movhi	r3,134
  806474:	18e3f304 	addi	r3,r3,-28724
  806478:	21400015 	stw	r5,0(r4)
  80647c:	11800115 	stw	r6,4(r2)
  806480:	21800115 	stw	r6,4(r4)
  806484:	10c00015 	stw	r3,0(r2)
  806488:	20800215 	stw	r2,8(r4)
  80648c:	10000215 	stw	zero,8(r2)
  806490:	10000315 	stw	zero,12(r2)
  806494:	10000405 	stb	zero,16(r2)
  806498:	10000445 	stb	zero,17(r2)
  80649c:	10000485 	stb	zero,18(r2)
  8064a0:	10000515 	stw	zero,20(r2)
  8064a4:	10000615 	stw	zero,24(r2)
  8064a8:	10000715 	stw	zero,28(r2)
  8064ac:	10000815 	stw	zero,32(r2)
  8064b0:	10000915 	stw	zero,36(r2)
  8064b4:	10000a15 	stw	zero,40(r2)
  8064b8:	10000b15 	stw	zero,44(r2)
  8064bc:	10000c15 	stw	zero,48(r2)
  8064c0:	10000d15 	stw	zero,52(r2)
  8064c4:	100010c5 	stb	zero,67(r2)
  8064c8:	d9800115 	stw	r6,4(sp)
  8064cc:	000b883a 	mov	r5,zero
  8064d0:	000d883a 	mov	r6,zero
  8064d4:	0835c480 	call	835c48 <_ZNSt10moneypunctIcLb1EE24_M_initialize_moneypunctEPiPKc>
  8064d8:	00800244 	movi	r2,9
  8064dc:	d8800115 	stw	r2,4(sp)
  8064e0:	d9001117 	ldw	r4,68(sp)
  8064e4:	014021b4 	movhi	r5,134
  8064e8:	297c2004 	addi	r5,r5,-3968
  8064ec:	018021b4 	movhi	r6,134
  8064f0:	31bf2904 	addi	r6,r6,-860
  8064f4:	08054180 	call	805418 <_ZNSt6locale5_Impl16_M_install_facetEPKNS_2idEPKNS_5facetE>
  8064f8:	018021b4 	movhi	r6,134
  8064fc:	31bc4f04 	addi	r6,r6,-3780
  806500:	008021b4 	movhi	r2,134
  806504:	10a45c04 	addi	r2,r2,-28304
  806508:	00c00044 	movi	r3,1
  80650c:	30800015 	stw	r2,0(r6)
  806510:	30c00115 	stw	r3,4(r6)
  806514:	d9001117 	ldw	r4,68(sp)
  806518:	014021b4 	movhi	r5,134
  80651c:	297c2104 	addi	r5,r5,-3964
  806520:	08054180 	call	805418 <_ZNSt6locale5_Impl16_M_install_facetEPKNS_2idEPKNS_5facetE>
  806524:	018021b4 	movhi	r6,134
  806528:	31bc5104 	addi	r6,r6,-3772
  80652c:	01400044 	movi	r5,1
  806530:	008021b4 	movhi	r2,134
  806534:	10a45604 	addi	r2,r2,-28328
  806538:	31400115 	stw	r5,4(r6)
  80653c:	30800015 	stw	r2,0(r6)
  806540:	d9001117 	ldw	r4,68(sp)
  806544:	014021b4 	movhi	r5,134
  806548:	297c2204 	addi	r5,r5,-3960
  80654c:	08054180 	call	805418 <_ZNSt6locale5_Impl16_M_install_facetEPKNS_2idEPKNS_5facetE>
  806550:	014021b4 	movhi	r5,134
  806554:	297f7404 	addi	r5,r5,-560
  806558:	008021b4 	movhi	r2,134
  80655c:	10a4a104 	addi	r2,r2,-28028
  806560:	01800044 	movi	r6,1
  806564:	28800015 	stw	r2,0(r5)
  806568:	29800115 	stw	r6,4(r5)
  80656c:	28000215 	stw	zero,8(r5)
  806570:	28000315 	stw	zero,12(r5)
  806574:	28000415 	stw	zero,16(r5)
  806578:	28000515 	stw	zero,20(r5)
  80657c:	28000615 	stw	zero,24(r5)
  806580:	28000715 	stw	zero,28(r5)
  806584:	28000815 	stw	zero,32(r5)
  806588:	28000915 	stw	zero,36(r5)
  80658c:	28000a15 	stw	zero,40(r5)
  806590:	28000b15 	stw	zero,44(r5)
  806594:	28000c15 	stw	zero,48(r5)
  806598:	28000d15 	stw	zero,52(r5)
  80659c:	28000e15 	stw	zero,56(r5)
  8065a0:	28000f15 	stw	zero,60(r5)
  8065a4:	28001015 	stw	zero,64(r5)
  8065a8:	28001115 	stw	zero,68(r5)
  8065ac:	28001215 	stw	zero,72(r5)
  8065b0:	28001315 	stw	zero,76(r5)
  8065b4:	28001415 	stw	zero,80(r5)
  8065b8:	28001515 	stw	zero,84(r5)
  8065bc:	28001615 	stw	zero,88(r5)
  8065c0:	28001715 	stw	zero,92(r5)
  8065c4:	28001815 	stw	zero,96(r5)
  8065c8:	28001915 	stw	zero,100(r5)
  8065cc:	28001a15 	stw	zero,104(r5)
  8065d0:	28001b15 	stw	zero,108(r5)
  8065d4:	28001c15 	stw	zero,112(r5)
  8065d8:	28001d15 	stw	zero,116(r5)
  8065dc:	28001e15 	stw	zero,120(r5)
  8065e0:	28001f15 	stw	zero,124(r5)
  8065e4:	28002015 	stw	zero,128(r5)
  8065e8:	28002115 	stw	zero,132(r5)
  8065ec:	00800184 	movi	r2,6
  8065f0:	28002215 	stw	zero,136(r5)
  8065f4:	28002315 	stw	zero,140(r5)
  8065f8:	28002415 	stw	zero,144(r5)
  8065fc:	28002515 	stw	zero,148(r5)
  806600:	28002615 	stw	zero,152(r5)
  806604:	28002715 	stw	zero,156(r5)
  806608:	28002815 	stw	zero,160(r5)
  80660c:	28002915 	stw	zero,164(r5)
  806610:	28002a15 	stw	zero,168(r5)
  806614:	28002b15 	stw	zero,172(r5)
  806618:	28002c15 	stw	zero,176(r5)
  80661c:	28002d15 	stw	zero,180(r5)
  806620:	28002e15 	stw	zero,184(r5)
  806624:	28002f15 	stw	zero,188(r5)
  806628:	28003015 	stw	zero,192(r5)
  80662c:	28003105 	stb	zero,196(r5)
  806630:	d8800115 	stw	r2,4(sp)
  806634:	010021b4 	movhi	r4,134
  806638:	213f2f04 	addi	r4,r4,-836
  80663c:	0812cc80 	call	812cc8 <_ZNSt11__timepunctIcEC1EPSt17__timepunct_cacheIcEm>
  806640:	00800244 	movi	r2,9
  806644:	d8800115 	stw	r2,4(sp)
  806648:	018021b4 	movhi	r6,134
  80664c:	31bf2f04 	addi	r6,r6,-836
  806650:	d9001117 	ldw	r4,68(sp)
  806654:	014021b4 	movhi	r5,134
  806658:	297c2604 	addi	r5,r5,-3944
  80665c:	08054180 	call	805418 <_ZNSt6locale5_Impl16_M_install_facetEPKNS_2idEPKNS_5facetE>
  806660:	018021b4 	movhi	r6,134
  806664:	31bc5304 	addi	r6,r6,-3764
  806668:	008021b4 	movhi	r2,134
  80666c:	10a41e04 	addi	r2,r2,-28552
  806670:	00c00044 	movi	r3,1
  806674:	30800015 	stw	r2,0(r6)
  806678:	30c00115 	stw	r3,4(r6)
  80667c:	d9001117 	ldw	r4,68(sp)
  806680:	014021b4 	movhi	r5,134
  806684:	297c2804 	addi	r5,r5,-3936
  806688:	08054180 	call	805418 <_ZNSt6locale5_Impl16_M_install_facetEPKNS_2idEPKNS_5facetE>
  80668c:	018021b4 	movhi	r6,134
  806690:	31bc5504 	addi	r6,r6,-3756
  806694:	01400044 	movi	r5,1
  806698:	008021b4 	movhi	r2,134
  80669c:	10a42d04 	addi	r2,r2,-28492
  8066a0:	31400115 	stw	r5,4(r6)
  8066a4:	30800015 	stw	r2,0(r6)
  8066a8:	d9001117 	ldw	r4,68(sp)
  8066ac:	014021b4 	movhi	r5,134
  8066b0:	297c2704 	addi	r5,r5,-3940
  8066b4:	08054180 	call	805418 <_ZNSt6locale5_Impl16_M_install_facetEPKNS_2idEPKNS_5facetE>
  8066b8:	00800144 	movi	r2,5
  8066bc:	d8800115 	stw	r2,4(sp)
  8066c0:	01400044 	movi	r5,1
  8066c4:	010021b4 	movhi	r4,134
  8066c8:	213f3404 	addi	r4,r4,-816
  8066cc:	081460c0 	call	81460c <_ZNSt8messagesIcEC1Em>
  8066d0:	01800244 	movi	r6,9
  8066d4:	d9800115 	stw	r6,4(sp)
  8066d8:	d9001117 	ldw	r4,68(sp)
  8066dc:	018021b4 	movhi	r6,134
  8066e0:	31bf3404 	addi	r6,r6,-816
  8066e4:	014021b4 	movhi	r5,134
  8066e8:	297c2904 	addi	r5,r5,-3932
  8066ec:	08054180 	call	805418 <_ZNSt6locale5_Impl16_M_install_facetEPKNS_2idEPKNS_5facetE>
  8066f0:	d8801117 	ldw	r2,68(sp)
  8066f4:	010021b4 	movhi	r4,134
  8066f8:	213c2304 	addi	r4,r4,-3956
  8066fc:	10800317 	ldw	r2,12(r2)
  806700:	d8801015 	stw	r2,64(sp)
  806704:	0803b600 	call	803b60 <_ZNKSt6locale2id5_M_idEv>
  806708:	d9401117 	ldw	r5,68(sp)
  80670c:	d8c01017 	ldw	r3,64(sp)
  806710:	1085883a 	add	r2,r2,r2
  806714:	1085883a 	add	r2,r2,r2
  806718:	29400317 	ldw	r5,12(r5)
  80671c:	10c5883a 	add	r2,r2,r3
  806720:	00c021b4 	movhi	r3,134
  806724:	18ff3804 	addi	r3,r3,-800
  806728:	10c00015 	stw	r3,0(r2)
  80672c:	d9400f15 	stw	r5,60(sp)
  806730:	010021b4 	movhi	r4,134
  806734:	213c1f04 	addi	r4,r4,-3972
  806738:	0803b600 	call	803b60 <_ZNKSt6locale2id5_M_idEv>
  80673c:	d9800f17 	ldw	r6,60(sp)
  806740:	1085883a 	add	r2,r2,r2
  806744:	1085883a 	add	r2,r2,r2
  806748:	1185883a 	add	r2,r2,r6
  80674c:	00c021b4 	movhi	r3,134
  806750:	18ff6304 	addi	r3,r3,-628
  806754:	10c00015 	stw	r3,0(r2)
  806758:	d8801117 	ldw	r2,68(sp)
  80675c:	010021b4 	movhi	r4,134
  806760:	213c2004 	addi	r4,r4,-3968
  806764:	10800317 	ldw	r2,12(r2)
  806768:	d8800e15 	stw	r2,56(sp)
  80676c:	0803b600 	call	803b60 <_ZNKSt6locale2id5_M_idEv>
  806770:	d9401117 	ldw	r5,68(sp)
  806774:	d8c00e17 	ldw	r3,56(sp)
  806778:	1085883a 	add	r2,r2,r2
  80677c:	1085883a 	add	r2,r2,r2
  806780:	29400317 	ldw	r5,12(r5)
  806784:	10c5883a 	add	r2,r2,r3
  806788:	00c021b4 	movhi	r3,134
  80678c:	18ff5204 	addi	r3,r3,-696
  806790:	10c00015 	stw	r3,0(r2)
  806794:	d9400d15 	stw	r5,52(sp)
  806798:	010021b4 	movhi	r4,134
  80679c:	213c2604 	addi	r4,r4,-3944
  8067a0:	0803b600 	call	803b60 <_ZNKSt6locale2id5_M_idEv>
  8067a4:	d8c00d17 	ldw	r3,52(sp)
  8067a8:	1085883a 	add	r2,r2,r2
  8067ac:	1085883a 	add	r2,r2,r2
  8067b0:	10c5883a 	add	r2,r2,r3
  8067b4:	00c021b4 	movhi	r3,134
  8067b8:	18ff7404 	addi	r3,r3,-560
  8067bc:	10c00015 	stw	r3,0(r2)
  8067c0:	d809883a 	mov	r4,sp
  8067c4:	08433e40 	call	8433e4 <_Unwind_SjLj_Unregister>
  8067c8:	dfc01717 	ldw	ra,92(sp)
  8067cc:	df001617 	ldw	fp,88(sp)
  8067d0:	ddc01517 	ldw	r23,84(sp)
  8067d4:	dec01804 	addi	sp,sp,96
  8067d8:	f800283a 	ret
  8067dc:	d9400217 	ldw	r5,8(sp)
  8067e0:	d9800317 	ldw	r6,12(sp)
  8067e4:	d8c00117 	ldw	r3,4(sp)
  8067e8:	00800044 	movi	r2,1
  8067ec:	d9401415 	stw	r5,80(sp)
  8067f0:	d9801315 	stw	r6,76(sp)
  8067f4:	18802626 	beq	r3,r2,806890 <_ZNSt6locale5_ImplC1Em+0x79c>
  8067f8:	00800084 	movi	r2,2
  8067fc:	18801f26 	beq	r3,r2,80687c <_ZNSt6locale5_ImplC1Em+0x788>
  806800:	008000c4 	movi	r2,3
  806804:	18801426 	beq	r3,r2,806858 <_ZNSt6locale5_ImplC1Em+0x764>
  806808:	00800104 	movi	r2,4
  80680c:	18800c26 	beq	r3,r2,806840 <_ZNSt6locale5_ImplC1Em+0x74c>
  806810:	00800144 	movi	r2,5
  806814:	18800a26 	beq	r3,r2,806840 <_ZNSt6locale5_ImplC1Em+0x74c>
  806818:	00800184 	movi	r2,6
  80681c:	18800826 	beq	r3,r2,806840 <_ZNSt6locale5_ImplC1Em+0x74c>
  806820:	008001c4 	movi	r2,7
  806824:	18800626 	beq	r3,r2,806840 <_ZNSt6locale5_ImplC1Em+0x74c>
  806828:	00800204 	movi	r2,8
  80682c:	18800426 	beq	r3,r2,806840 <_ZNSt6locale5_ImplC1Em+0x74c>
  806830:	010021b4 	movhi	r4,134
  806834:	213f2904 	addi	r4,r4,-860
  806838:	d8000115 	stw	zero,4(sp)
  80683c:	0803c680 	call	803c68 <_ZNSt6locale5facetD2Ev>
  806840:	d9801317 	ldw	r6,76(sp)
  806844:	00bfffc4 	movi	r2,-1
  806848:	30800826 	beq	r6,r2,80686c <_ZNSt6locale5_ImplC1Em+0x778>
  80684c:	d9001417 	ldw	r4,80(sp)
  806850:	d8800115 	stw	r2,4(sp)
  806854:	08436a00 	call	8436a0 <_Unwind_SjLj_Resume>
  806858:	010021b4 	movhi	r4,134
  80685c:	213f2304 	addi	r4,r4,-884
  806860:	d8000115 	stw	zero,4(sp)
  806864:	0803c680 	call	803c68 <_ZNSt6locale5facetD2Ev>
  806868:	003ff506 	br	806840 <_ZNSt6locale5_ImplC1Em+0x74c>
  80686c:	d9001417 	ldw	r4,80(sp)
  806870:	00bfffc4 	movi	r2,-1
  806874:	d8800115 	stw	r2,4(sp)
  806878:	08380940 	call	838094 <__cxa_call_unexpected>
  80687c:	010021b4 	movhi	r4,134
  806880:	213f2004 	addi	r4,r4,-896
  806884:	d8000115 	stw	zero,4(sp)
  806888:	0803c680 	call	803c68 <_ZNSt6locale5facetD2Ev>
  80688c:	003fec06 	br	806840 <_ZNSt6locale5_ImplC1Em+0x74c>
  806890:	010021b4 	movhi	r4,134
  806894:	213f2c04 	addi	r4,r4,-848
  806898:	d8000115 	stw	zero,4(sp)
  80689c:	0803c680 	call	803c68 <_ZNSt6locale5facetD2Ev>
  8068a0:	003fe706 	br	806840 <_ZNSt6locale5_ImplC1Em+0x74c>

008068a4 <_ZNSt6locale18_S_initialize_onceEv>:
  8068a4:	defffe04 	addi	sp,sp,-8
  8068a8:	dc000015 	stw	r16,0(sp)
  8068ac:	040021b4 	movhi	r16,134
  8068b0:	843e6e04 	addi	r16,r16,-1608
  8068b4:	8009883a 	mov	r4,r16
  8068b8:	01400084 	movi	r5,2
  8068bc:	dfc00115 	stw	ra,4(sp)
  8068c0:	08060f40 	call	8060f4 <_ZNSt6locale5_ImplC1Em>
  8068c4:	008021b4 	movhi	r2,134
  8068c8:	10bc1b04 	addi	r2,r2,-3988
  8068cc:	00c021b4 	movhi	r3,134
  8068d0:	18fc1c04 	addi	r3,r3,-3984
  8068d4:	800b883a 	mov	r5,r16
  8068d8:	010021b4 	movhi	r4,134
  8068dc:	213c4a04 	addi	r4,r4,-3800
  8068e0:	14000015 	stw	r16,0(r2)
  8068e4:	1c000015 	stw	r16,0(r3)
  8068e8:	dfc00117 	ldw	ra,4(sp)
  8068ec:	dc000017 	ldw	r16,0(sp)
  8068f0:	dec00204 	addi	sp,sp,8
  8068f4:	0803b501 	jmpi	803b50 <_ZNSt6localeC1EPNS_5_ImplE>

008068f8 <_ZNSt6locale13_S_initializeEv>:
  8068f8:	008021b4 	movhi	r2,134
  8068fc:	10bc1b04 	addi	r2,r2,-3988
  806900:	10c00017 	ldw	r3,0(r2)
  806904:	18000126 	beq	r3,zero,80690c <_ZNSt6locale13_S_initializeEv+0x14>
  806908:	f800283a 	ret
  80690c:	08068a41 	jmpi	8068a4 <_ZNSt6locale18_S_initialize_onceEv>

00806910 <_ZNSt6locale7classicEv>:
  806910:	deffff04 	addi	sp,sp,-4
  806914:	dfc00015 	stw	ra,0(sp)
  806918:	08068f80 	call	8068f8 <_ZNSt6locale13_S_initializeEv>
  80691c:	008021b4 	movhi	r2,134
  806920:	10bc4a04 	addi	r2,r2,-3800
  806924:	dfc00017 	ldw	ra,0(sp)
  806928:	dec00104 	addi	sp,sp,4
  80692c:	f800283a 	ret

00806930 <_ZNSt6locale6globalERKS_>:
  806930:	deffe704 	addi	sp,sp,-100
  806934:	00802134 	movhi	r2,132
  806938:	10a08504 	addi	r2,r2,-32236
  80693c:	00c02174 	movhi	r3,133
  806940:	18dedd04 	addi	r3,r3,31604
  806944:	d8800815 	stw	r2,32(sp)
  806948:	d9001315 	stw	r4,76(sp)
  80694c:	00802034 	movhi	r2,128
  806950:	109a9d04 	addi	r2,r2,27252
  806954:	d9000204 	addi	r4,sp,8
  806958:	d8c00915 	stw	r3,36(sp)
  80695c:	d8800b15 	stw	r2,44(sp)
  806960:	d9401415 	stw	r5,80(sp)
  806964:	dfc01815 	stw	ra,96(sp)
  806968:	df001715 	stw	fp,92(sp)
  80696c:	ddc01615 	stw	r23,88(sp)
  806970:	dec00a15 	stw	sp,40(sp)
  806974:	dec00c15 	stw	sp,48(sp)
  806978:	08433d40 	call	8433d4 <_Unwind_SjLj_Register>
  80697c:	08068f80 	call	8068f8 <_ZNSt6locale13_S_initializeEv>
  806980:	008021b4 	movhi	r2,134
  806984:	10bc1c04 	addi	r2,r2,-3984
  806988:	10800017 	ldw	r2,0(r2)
  80698c:	00c000c4 	movi	r3,3
  806990:	d8c00315 	stw	r3,12(sp)
  806994:	d8801215 	stw	r2,72(sp)
  806998:	d8801417 	ldw	r2,80(sp)
  80699c:	01400044 	movi	r5,1
  8069a0:	11000017 	ldw	r4,0(r2)
  8069a4:	08355880 	call	835588 <_ZN9__gnu_cxx12__atomic_addEPVii>
  8069a8:	d8c01417 	ldw	r3,80(sp)
  8069ac:	01000144 	movi	r4,5
  8069b0:	d9401417 	ldw	r5,80(sp)
  8069b4:	18800017 	ldw	r2,0(r3)
  8069b8:	00c021b4 	movhi	r3,134
  8069bc:	18fc1c04 	addi	r3,r3,-3984
  8069c0:	18800015 	stw	r2,0(r3)
  8069c4:	d8800104 	addi	r2,sp,4
  8069c8:	d9000315 	stw	r4,12(sp)
  8069cc:	d8801515 	stw	r2,84(sp)
  8069d0:	1009883a 	mov	r4,r2
  8069d4:	0803f280 	call	803f28 <_ZNKSt6locale4nameEv>
  8069d8:	00c00104 	movi	r3,4
  8069dc:	d8c00315 	stw	r3,12(sp)
  8069e0:	d9001517 	ldw	r4,84(sp)
  8069e4:	014021b4 	movhi	r5,134
  8069e8:	29634504 	addi	r5,r5,-29420
  8069ec:	08324040 	call	832404 <_ZNKSs7compareEPKc>
  8069f0:	1000111e 	bne	r2,zero,806a38 <_ZNSt6locale6globalERKS_+0x108>
  8069f4:	d8800117 	ldw	r2,4(sp)
  8069f8:	00c021b4 	movhi	r3,134
  8069fc:	18fc6a04 	addi	r3,r3,-3672
  806a00:	10bffd04 	addi	r2,r2,-12
  806a04:	d8800f15 	stw	r2,60(sp)
  806a08:	10c00f1e 	bne	r2,r3,806a48 <_ZNSt6locale6globalERKS_+0x118>
  806a0c:	d9401217 	ldw	r5,72(sp)
  806a10:	d9001317 	ldw	r4,76(sp)
  806a14:	0803b500 	call	803b50 <_ZNSt6localeC1EPNS_5_ImplE>
  806a18:	d9000204 	addi	r4,sp,8
  806a1c:	08433e40 	call	8433e4 <_Unwind_SjLj_Unregister>
  806a20:	d8801317 	ldw	r2,76(sp)
  806a24:	dfc01817 	ldw	ra,96(sp)
  806a28:	df001717 	ldw	fp,92(sp)
  806a2c:	ddc01617 	ldw	r23,88(sp)
  806a30:	dec01904 	addi	sp,sp,100
  806a34:	f800283a 	ret
  806a38:	d9400117 	ldw	r5,4(sp)
  806a3c:	0009883a 	mov	r4,zero
  806a40:	08456800 	call	845680 <setlocale>
  806a44:	003feb06 	br	8069f4 <_ZNSt6locale6globalERKS_+0xc4>
  806a48:	d8c00f17 	ldw	r3,60(sp)
  806a4c:	00800044 	movi	r2,1
  806a50:	d8800315 	stw	r2,12(sp)
  806a54:	19000204 	addi	r4,r3,8
  806a58:	017fffc4 	movi	r5,-1
  806a5c:	08355740 	call	835574 <_ZN9__gnu_cxx18__exchange_and_addEPVii>
  806a60:	00bfea16 	blt	zero,r2,806a0c <_ZNSt6locale6globalERKS_+0xdc>
  806a64:	d9000f17 	ldw	r4,60(sp)
  806a68:	d80b883a 	mov	r5,sp
  806a6c:	08320040 	call	832004 <_ZNSs4_Rep10_M_destroyERKSaIcE>
  806a70:	003fe606 	br	806a0c <_ZNSt6locale6globalERKS_+0xdc>
  806a74:	d8c00317 	ldw	r3,12(sp)
  806a78:	00800044 	movi	r2,1
  806a7c:	d9000417 	ldw	r4,16(sp)
  806a80:	d9400517 	ldw	r5,20(sp)
  806a84:	18800426 	beq	r3,r2,806a98 <_ZNSt6locale6globalERKS_+0x168>
  806a88:	00800084 	movi	r2,2
  806a8c:	18800e26 	beq	r3,r2,806ac8 <_ZNSt6locale6globalERKS_+0x198>
  806a90:	008000c4 	movi	r2,3
  806a94:	18800326 	beq	r3,r2,806aa4 <_ZNSt6locale6globalERKS_+0x174>
  806a98:	00bfffc4 	movi	r2,-1
  806a9c:	d8800315 	stw	r2,12(sp)
  806aa0:	08436a00 	call	8436a0 <_Unwind_SjLj_Resume>
  806aa4:	d8800117 	ldw	r2,4(sp)
  806aa8:	00c021b4 	movhi	r3,134
  806aac:	18fc6a04 	addi	r3,r3,-3672
  806ab0:	d9001115 	stw	r4,68(sp)
  806ab4:	10bffd04 	addi	r2,r2,-12
  806ab8:	d8801015 	stw	r2,64(sp)
  806abc:	10c0071e 	bne	r2,r3,806adc <_ZNSt6locale6globalERKS_+0x1ac>
  806ac0:	d9001117 	ldw	r4,68(sp)
  806ac4:	003ff406 	br	806a98 <_ZNSt6locale6globalERKS_+0x168>
  806ac8:	00bfffc4 	movi	r2,-1
  806acc:	28bff31e 	bne	r5,r2,806a9c <_ZNSt6locale6globalERKS_+0x16c>
  806ad0:	00bfffc4 	movi	r2,-1
  806ad4:	d8800315 	stw	r2,12(sp)
  806ad8:	08380940 	call	838094 <__cxa_call_unexpected>
  806adc:	00800084 	movi	r2,2
  806ae0:	d8800315 	stw	r2,12(sp)
  806ae4:	d8801017 	ldw	r2,64(sp)
  806ae8:	017fffc4 	movi	r5,-1
  806aec:	11000204 	addi	r4,r2,8
  806af0:	08355740 	call	835574 <_ZN9__gnu_cxx18__exchange_and_addEPVii>
  806af4:	00bff216 	blt	zero,r2,806ac0 <_ZNSt6locale6globalERKS_+0x190>
  806af8:	d9001017 	ldw	r4,64(sp)
  806afc:	d9400044 	addi	r5,sp,1
  806b00:	08320040 	call	832004 <_ZNSs4_Rep10_M_destroyERKSaIcE>
  806b04:	003fee06 	br	806ac0 <_ZNSt6locale6globalERKS_+0x190>

00806b08 <_ZNSt6localeC1Ev>:
  806b08:	deffef04 	addi	sp,sp,-68
  806b0c:	00802134 	movhi	r2,132
  806b10:	10a08504 	addi	r2,r2,-32236
  806b14:	00c02174 	movhi	r3,133
  806b18:	18dee304 	addi	r3,r3,31628
  806b1c:	d8800615 	stw	r2,24(sp)
  806b20:	d9000d15 	stw	r4,52(sp)
  806b24:	00802034 	movhi	r2,128
  806b28:	109ae904 	addi	r2,r2,27556
  806b2c:	d809883a 	mov	r4,sp
  806b30:	dfc01015 	stw	ra,64(sp)
  806b34:	d8c00715 	stw	r3,28(sp)
  806b38:	d8800915 	stw	r2,36(sp)
  806b3c:	df000f15 	stw	fp,60(sp)
  806b40:	ddc00e15 	stw	r23,56(sp)
  806b44:	dec00815 	stw	sp,32(sp)
  806b48:	dec00a15 	stw	sp,40(sp)
  806b4c:	08433d40 	call	8433d4 <_Unwind_SjLj_Register>
  806b50:	d8800d17 	ldw	r2,52(sp)
  806b54:	10000015 	stw	zero,0(r2)
  806b58:	08068f80 	call	8068f8 <_ZNSt6locale13_S_initializeEv>
  806b5c:	01400044 	movi	r5,1
  806b60:	d9400115 	stw	r5,4(sp)
  806b64:	008021b4 	movhi	r2,134
  806b68:	10bc1c04 	addi	r2,r2,-3984
  806b6c:	11000017 	ldw	r4,0(r2)
  806b70:	08355880 	call	835588 <_ZN9__gnu_cxx12__atomic_addEPVii>
  806b74:	008021b4 	movhi	r2,134
  806b78:	10bc1c04 	addi	r2,r2,-3984
  806b7c:	10c00017 	ldw	r3,0(r2)
  806b80:	d8800d17 	ldw	r2,52(sp)
  806b84:	d809883a 	mov	r4,sp
  806b88:	10c00015 	stw	r3,0(r2)
  806b8c:	08433e40 	call	8433e4 <_Unwind_SjLj_Unregister>
  806b90:	dfc01017 	ldw	ra,64(sp)
  806b94:	df000f17 	ldw	fp,60(sp)
  806b98:	ddc00e17 	ldw	r23,56(sp)
  806b9c:	dec01104 	addi	sp,sp,68
  806ba0:	f800283a 	ret
  806ba4:	d8800317 	ldw	r2,12(sp)
  806ba8:	00ffffc4 	movi	r3,-1
  806bac:	d9000217 	ldw	r4,8(sp)
  806bb0:	10c00226 	beq	r2,r3,806bbc <_ZNSt6localeC1Ev+0xb4>
  806bb4:	d8c00115 	stw	r3,4(sp)
  806bb8:	08436a00 	call	8436a0 <_Unwind_SjLj_Resume>
  806bbc:	00bfffc4 	movi	r2,-1
  806bc0:	d8800115 	stw	r2,4(sp)
  806bc4:	08380940 	call	838094 <__cxa_call_unexpected>

00806bc8 <_ZNSt6localeC2Ev>:
  806bc8:	deffef04 	addi	sp,sp,-68
  806bcc:	00802134 	movhi	r2,132
  806bd0:	10a08504 	addi	r2,r2,-32236
  806bd4:	00c02174 	movhi	r3,133
  806bd8:	18dee704 	addi	r3,r3,31644
  806bdc:	d8800615 	stw	r2,24(sp)
  806be0:	d9000d15 	stw	r4,52(sp)
  806be4:	00802034 	movhi	r2,128
  806be8:	109b1904 	addi	r2,r2,27748
  806bec:	d809883a 	mov	r4,sp
  806bf0:	dfc01015 	stw	ra,64(sp)
  806bf4:	d8c00715 	stw	r3,28(sp)
  806bf8:	d8800915 	stw	r2,36(sp)
  806bfc:	df000f15 	stw	fp,60(sp)
  806c00:	ddc00e15 	stw	r23,56(sp)
  806c04:	dec00815 	stw	sp,32(sp)
  806c08:	dec00a15 	stw	sp,40(sp)
  806c0c:	08433d40 	call	8433d4 <_Unwind_SjLj_Register>
  806c10:	d8800d17 	ldw	r2,52(sp)
  806c14:	10000015 	stw	zero,0(r2)
  806c18:	08068f80 	call	8068f8 <_ZNSt6locale13_S_initializeEv>
  806c1c:	01400044 	movi	r5,1
  806c20:	d9400115 	stw	r5,4(sp)
  806c24:	008021b4 	movhi	r2,134
  806c28:	10bc1c04 	addi	r2,r2,-3984
  806c2c:	11000017 	ldw	r4,0(r2)
  806c30:	08355880 	call	835588 <_ZN9__gnu_cxx12__atomic_addEPVii>
  806c34:	008021b4 	movhi	r2,134
  806c38:	10bc1c04 	addi	r2,r2,-3984
  806c3c:	10c00017 	ldw	r3,0(r2)
  806c40:	d8800d17 	ldw	r2,52(sp)
  806c44:	d809883a 	mov	r4,sp
  806c48:	10c00015 	stw	r3,0(r2)
  806c4c:	08433e40 	call	8433e4 <_Unwind_SjLj_Unregister>
  806c50:	dfc01017 	ldw	ra,64(sp)
  806c54:	df000f17 	ldw	fp,60(sp)
  806c58:	ddc00e17 	ldw	r23,56(sp)
  806c5c:	dec01104 	addi	sp,sp,68
  806c60:	f800283a 	ret
  806c64:	d8800317 	ldw	r2,12(sp)
  806c68:	00ffffc4 	movi	r3,-1
  806c6c:	d9000217 	ldw	r4,8(sp)
  806c70:	10c00226 	beq	r2,r3,806c7c <_ZNSt6localeC2Ev+0xb4>
  806c74:	d8c00115 	stw	r3,4(sp)
  806c78:	08436a00 	call	8436a0 <_Unwind_SjLj_Resume>
  806c7c:	00bfffc4 	movi	r2,-1
  806c80:	d8800115 	stw	r2,4(sp)
  806c84:	08380940 	call	838094 <__cxa_call_unexpected>

00806c88 <_ZN9__gnu_cxx4ropeIcSaIcEE8_S_fetchEPNS_13_Rope_RopeRepIcS1_EEm>:
  806c88:	20800417 	ldw	r2,16(r4)
  806c8c:	defffe04 	addi	sp,sp,-8
  806c90:	dfc00115 	stw	ra,4(sp)
  806c94:	10000526 	beq	r2,zero,806cac <_ZN9__gnu_cxx4ropeIcSaIcEE8_S_fetchEPNS_13_Rope_RopeRepIcS1_EEm+0x24>
  806c98:	1145883a 	add	r2,r2,r5
  806c9c:	10800007 	ldb	r2,0(r2)
  806ca0:	dfc00117 	ldw	ra,4(sp)
  806ca4:	dec00204 	addi	sp,sp,8
  806ca8:	f800283a 	ret
  806cac:	20c00303 	ldbu	r3,12(r4)
  806cb0:	00800044 	movi	r2,1
  806cb4:	18800e26 	beq	r3,r2,806cf0 <_ZN9__gnu_cxx4ropeIcSaIcEE8_S_fetchEPNS_13_Rope_RopeRepIcS1_EEm+0x68>
  806cb8:	10c00316 	blt	r2,r3,806cc8 <_ZN9__gnu_cxx4ropeIcSaIcEE8_S_fetchEPNS_13_Rope_RopeRepIcS1_EEm+0x40>
  806cbc:	183ffc1e 	bne	r3,zero,806cb0 <_ZN9__gnu_cxx4ropeIcSaIcEE8_S_fetchEPNS_13_Rope_RopeRepIcS1_EEm+0x28>
  806cc0:	20800617 	ldw	r2,24(r4)
  806cc4:	003ff406 	br	806c98 <_ZN9__gnu_cxx4ropeIcSaIcEE8_S_fetchEPNS_13_Rope_RopeRepIcS1_EEm+0x10>
  806cc8:	008000c4 	movi	r2,3
  806ccc:	10fff816 	blt	r2,r3,806cb0 <_ZN9__gnu_cxx4ropeIcSaIcEE8_S_fetchEPNS_13_Rope_RopeRepIcS1_EEm+0x28>
  806cd0:	21000617 	ldw	r4,24(r4)
  806cd4:	01800044 	movi	r6,1
  806cd8:	d80f883a 	mov	r7,sp
  806cdc:	20c00017 	ldw	r3,0(r4)
  806ce0:	18800217 	ldw	r2,8(r3)
  806ce4:	103ee83a 	callr	r2
  806ce8:	d8800007 	ldb	r2,0(sp)
  806cec:	003fec06 	br	806ca0 <_ZN9__gnu_cxx4ropeIcSaIcEE8_S_fetchEPNS_13_Rope_RopeRepIcS1_EEm+0x18>
  806cf0:	20c00617 	ldw	r3,24(r4)
  806cf4:	18800017 	ldw	r2,0(r3)
  806cf8:	28800436 	bltu	r5,r2,806d0c <_ZN9__gnu_cxx4ropeIcSaIcEE8_S_fetchEPNS_13_Rope_RopeRepIcS1_EEm+0x84>
  806cfc:	21000717 	ldw	r4,28(r4)
  806d00:	288bc83a 	sub	r5,r5,r2
  806d04:	20c00303 	ldbu	r3,12(r4)
  806d08:	003fe906 	br	806cb0 <_ZN9__gnu_cxx4ropeIcSaIcEE8_S_fetchEPNS_13_Rope_RopeRepIcS1_EEm+0x28>
  806d0c:	1809883a 	mov	r4,r3
  806d10:	18c00303 	ldbu	r3,12(r3)
  806d14:	003fe606 	br	806cb0 <_ZN9__gnu_cxx4ropeIcSaIcEE8_S_fetchEPNS_13_Rope_RopeRepIcS1_EEm+0x28>

00806d18 <_ZN9__gnu_cxx13stdio_filebufIcSt11char_traitsIcEE4fileEv>:
  806d18:	21000904 	addi	r4,r4,36
  806d1c:	08366681 	jmpi	836668 <_ZNSt12__basic_fileIcE4fileEv>

00806d20 <_ZN9__gnu_cxx13stdio_filebufIcSt11char_traitsIcEE2fdEv>:
  806d20:	21000904 	addi	r4,r4,36
  806d24:	08368281 	jmpi	836828 <_ZNSt12__basic_fileIcE2fdEv>

00806d28 <_ZN9__gnu_cxx13stdio_filebufIcSt11char_traitsIcEEC1Ev>:
  806d28:	defffe04 	addi	sp,sp,-8
  806d2c:	dc000015 	stw	r16,0(sp)
  806d30:	dfc00115 	stw	ra,4(sp)
  806d34:	2021883a 	mov	r16,r4
  806d38:	083d66c0 	call	83d66c <_ZNSt13basic_filebufIcSt11char_traitsIcEEC2Ev>
  806d3c:	008021b4 	movhi	r2,134
  806d40:	10a38d04 	addi	r2,r2,-29132
  806d44:	80800015 	stw	r2,0(r16)
  806d48:	dfc00117 	ldw	ra,4(sp)
  806d4c:	dc000017 	ldw	r16,0(sp)
  806d50:	dec00204 	addi	sp,sp,8
  806d54:	f800283a 	ret

00806d58 <_ZN9__gnu_cxx13stdio_filebufIcSt11char_traitsIcEEC2Ev>:
  806d58:	defffe04 	addi	sp,sp,-8
  806d5c:	dc000015 	stw	r16,0(sp)
  806d60:	dfc00115 	stw	ra,4(sp)
  806d64:	2021883a 	mov	r16,r4
  806d68:	083d66c0 	call	83d66c <_ZNSt13basic_filebufIcSt11char_traitsIcEEC2Ev>
  806d6c:	008021b4 	movhi	r2,134
  806d70:	10a38d04 	addi	r2,r2,-29132
  806d74:	80800015 	stw	r2,0(r16)
  806d78:	dfc00117 	ldw	ra,4(sp)
  806d7c:	dc000017 	ldw	r16,0(sp)
  806d80:	dec00204 	addi	sp,sp,8
  806d84:	f800283a 	ret

00806d88 <_ZN9__gnu_cxx13stdio_filebufIcSt11char_traitsIcEEC1EP7__sFILESt13_Ios_Openmodem>:
  806d88:	deffe804 	addi	sp,sp,-96
  806d8c:	00802134 	movhi	r2,132
  806d90:	10a08504 	addi	r2,r2,-32236
  806d94:	00c02174 	movhi	r3,133
  806d98:	18deeb04 	addi	r3,r3,31660
  806d9c:	d8800615 	stw	r2,24(sp)
  806da0:	d9000f15 	stw	r4,60(sp)
  806da4:	00802034 	movhi	r2,128
  806da8:	109bae04 	addi	r2,r2,28344
  806dac:	d809883a 	mov	r4,sp
  806db0:	d8c00715 	stw	r3,28(sp)
  806db4:	d9401015 	stw	r5,64(sp)
  806db8:	d9801115 	stw	r6,68(sp)
  806dbc:	dfc01715 	stw	ra,92(sp)
  806dc0:	d8800915 	stw	r2,36(sp)
  806dc4:	d9c01215 	stw	r7,72(sp)
  806dc8:	df001615 	stw	fp,88(sp)
  806dcc:	ddc01515 	stw	r23,84(sp)
  806dd0:	dec00815 	stw	sp,32(sp)
  806dd4:	dec00a15 	stw	sp,40(sp)
  806dd8:	08433d40 	call	8433d4 <_Unwind_SjLj_Register>
  806ddc:	d9000f17 	ldw	r4,60(sp)
  806de0:	00bfffc4 	movi	r2,-1
  806de4:	d8800115 	stw	r2,4(sp)
  806de8:	083d66c0 	call	83d66c <_ZNSt13basic_filebufIcSt11char_traitsIcEEC2Ev>
  806dec:	d8c00f17 	ldw	r3,60(sp)
  806df0:	008021b4 	movhi	r2,134
  806df4:	10a38d04 	addi	r2,r2,-29132
  806df8:	d9401017 	ldw	r5,64(sp)
  806dfc:	18800015 	stw	r2,0(r3)
  806e00:	18c00904 	addi	r3,r3,36
  806e04:	008000c4 	movi	r2,3
  806e08:	d8800115 	stw	r2,4(sp)
  806e0c:	d8c01315 	stw	r3,76(sp)
  806e10:	1809883a 	mov	r4,r3
  806e14:	d9801117 	ldw	r6,68(sp)
  806e18:	08366780 	call	836678 <_ZNSt12__basic_fileIcE8sys_openEP7__sFILESt13_Ios_Openmode>
  806e1c:	00800084 	movi	r2,2
  806e20:	d8800115 	stw	r2,4(sp)
  806e24:	d9001317 	ldw	r4,76(sp)
  806e28:	083665c0 	call	83665c <_ZNKSt12__basic_fileIcE7is_openEv>
  806e2c:	10803fcc 	andi	r2,r2,255
  806e30:	1000071e 	bne	r2,zero,806e50 <_ZN9__gnu_cxx13stdio_filebufIcSt11char_traitsIcEEC1EP7__sFILESt13_Ios_Openmodem+0xc8>
  806e34:	d809883a 	mov	r4,sp
  806e38:	08433e40 	call	8433e4 <_Unwind_SjLj_Unregister>
  806e3c:	dfc01717 	ldw	ra,92(sp)
  806e40:	df001617 	ldw	fp,88(sp)
  806e44:	ddc01517 	ldw	r23,84(sp)
  806e48:	dec01804 	addi	sp,sp,96
  806e4c:	f800283a 	ret
  806e50:	d8800f17 	ldw	r2,60(sp)
  806e54:	d8c01117 	ldw	r3,68(sp)
  806e58:	d9000f17 	ldw	r4,60(sp)
  806e5c:	10c00b15 	stw	r3,44(r2)
  806e60:	d8c01217 	ldw	r3,72(sp)
  806e64:	10c01315 	stw	r3,76(r2)
  806e68:	008000c4 	movi	r2,3
  806e6c:	d8800115 	stw	r2,4(sp)
  806e70:	083cdec0 	call	83cdec <_ZNSt13basic_filebufIcSt11char_traitsIcEE27_M_allocate_internal_bufferEv>
  806e74:	d8c00f17 	ldw	r3,60(sp)
  806e78:	d809883a 	mov	r4,sp
  806e7c:	18801217 	ldw	r2,72(r3)
  806e80:	18000615 	stw	zero,24(r3)
  806e84:	18001445 	stb	zero,81(r3)
  806e88:	18800315 	stw	r2,12(r3)
  806e8c:	18001485 	stb	zero,82(r3)
  806e90:	18800115 	stw	r2,4(r3)
  806e94:	18800215 	stw	r2,8(r3)
  806e98:	18000515 	stw	zero,20(r3)
  806e9c:	18000415 	stw	zero,16(r3)
  806ea0:	08433e40 	call	8433e4 <_Unwind_SjLj_Unregister>
  806ea4:	dfc01717 	ldw	ra,92(sp)
  806ea8:	df001617 	ldw	fp,88(sp)
  806eac:	ddc01517 	ldw	r23,84(sp)
  806eb0:	dec01804 	addi	sp,sp,96
  806eb4:	f800283a 	ret
  806eb8:	d8800217 	ldw	r2,8(sp)
  806ebc:	d9000117 	ldw	r4,4(sp)
  806ec0:	d8c00317 	ldw	r3,12(sp)
  806ec4:	d8801415 	stw	r2,80(sp)
  806ec8:	00800044 	movi	r2,1
  806ecc:	20800c26 	beq	r4,r2,806f00 <_ZN9__gnu_cxx13stdio_filebufIcSt11char_traitsIcEEC1EP7__sFILESt13_Ios_Openmodem+0x178>
  806ed0:	00800084 	movi	r2,2
  806ed4:	20801026 	beq	r4,r2,806f18 <_ZN9__gnu_cxx13stdio_filebufIcSt11char_traitsIcEEC1EP7__sFILESt13_Ios_Openmodem+0x190>
  806ed8:	d8c00d17 	ldw	r3,52(sp)
  806edc:	008021b4 	movhi	r2,134
  806ee0:	10a67b04 	addi	r2,r2,-26132
  806ee4:	18800015 	stw	r2,0(r3)
  806ee8:	19000704 	addi	r4,r3,28
  806eec:	0804eac0 	call	804eac <_ZNSt6localeD1Ev>
  806ef0:	00bfffc4 	movi	r2,-1
  806ef4:	d9001417 	ldw	r4,80(sp)
  806ef8:	d8800115 	stw	r2,4(sp)
  806efc:	08436a00 	call	8436a0 <_Unwind_SjLj_Resume>
  806f00:	00bfffc4 	movi	r2,-1
  806f04:	18bffb1e 	bne	r3,r2,806ef4 <_ZN9__gnu_cxx13stdio_filebufIcSt11char_traitsIcEEC1EP7__sFILESt13_Ios_Openmodem+0x16c>
  806f08:	d9001417 	ldw	r4,80(sp)
  806f0c:	00bfffc4 	movi	r2,-1
  806f10:	d8800115 	stw	r2,4(sp)
  806f14:	08380940 	call	838094 <__cxa_call_unexpected>
  806f18:	d8800f17 	ldw	r2,60(sp)
  806f1c:	d8800d15 	stw	r2,52(sp)
  806f20:	d8c00d17 	ldw	r3,52(sp)
  806f24:	008021b4 	movhi	r2,134
  806f28:	10aa2304 	addi	r2,r2,-22388
  806f2c:	1809883a 	mov	r4,r3
  806f30:	18800015 	stw	r2,0(r3)
  806f34:	083e3380 	call	83e338 <_ZNSt13basic_filebufIcSt11char_traitsIcEE5closeEv>
  806f38:	00c00044 	movi	r3,1
  806f3c:	d8c00115 	stw	r3,4(sp)
  806f40:	d8801417 	ldw	r2,80(sp)
  806f44:	d8c00d17 	ldw	r3,52(sp)
  806f48:	d8800e15 	stw	r2,56(sp)
  806f4c:	19000904 	addi	r4,r3,36
  806f50:	08368200 	call	836820 <_ZNSt12__basic_fileIcED1Ev>
  806f54:	d8c00d17 	ldw	r3,52(sp)
  806f58:	008021b4 	movhi	r2,134
  806f5c:	10a67b04 	addi	r2,r2,-26132
  806f60:	18800015 	stw	r2,0(r3)
  806f64:	19000704 	addi	r4,r3,28
  806f68:	0804eac0 	call	804eac <_ZNSt6localeD1Ev>
  806f6c:	d9000e17 	ldw	r4,56(sp)
  806f70:	00bfffc4 	movi	r2,-1
  806f74:	d8800115 	stw	r2,4(sp)
  806f78:	08436a00 	call	8436a0 <_Unwind_SjLj_Resume>

00806f7c <_ZN9__gnu_cxx13stdio_filebufIcSt11char_traitsIcEEC2EiSt13_Ios_Openmodem>:
  806f7c:	deffe804 	addi	sp,sp,-96
  806f80:	00802134 	movhi	r2,132
  806f84:	10a08504 	addi	r2,r2,-32236
  806f88:	00c02174 	movhi	r3,133
  806f8c:	18def004 	addi	r3,r3,31680
  806f90:	d8800615 	stw	r2,24(sp)
  806f94:	d9000f15 	stw	r4,60(sp)
  806f98:	00802034 	movhi	r2,128
  806f9c:	109c2b04 	addi	r2,r2,28844
  806fa0:	d809883a 	mov	r4,sp
  806fa4:	d8c00715 	stw	r3,28(sp)
  806fa8:	d9401015 	stw	r5,64(sp)
  806fac:	d9801115 	stw	r6,68(sp)
  806fb0:	dfc01715 	stw	ra,92(sp)
  806fb4:	d8800915 	stw	r2,36(sp)
  806fb8:	d9c01215 	stw	r7,72(sp)
  806fbc:	df001615 	stw	fp,88(sp)
  806fc0:	ddc01515 	stw	r23,84(sp)
  806fc4:	dec00815 	stw	sp,32(sp)
  806fc8:	dec00a15 	stw	sp,40(sp)
  806fcc:	08433d40 	call	8433d4 <_Unwind_SjLj_Register>
  806fd0:	d9000f17 	ldw	r4,60(sp)
  806fd4:	00bfffc4 	movi	r2,-1
  806fd8:	d8800115 	stw	r2,4(sp)
  806fdc:	083d66c0 	call	83d66c <_ZNSt13basic_filebufIcSt11char_traitsIcEEC2Ev>
  806fe0:	d8c00f17 	ldw	r3,60(sp)
  806fe4:	008021b4 	movhi	r2,134
  806fe8:	10a38d04 	addi	r2,r2,-29132
  806fec:	d9401017 	ldw	r5,64(sp)
  806ff0:	18800015 	stw	r2,0(r3)
  806ff4:	18c00904 	addi	r3,r3,36
  806ff8:	008000c4 	movi	r2,3
  806ffc:	d8800115 	stw	r2,4(sp)
  807000:	d8c01315 	stw	r3,76(sp)
  807004:	1809883a 	mov	r4,r3
  807008:	d9801117 	ldw	r6,68(sp)
  80700c:	0836b100 	call	836b10 <_ZNSt12__basic_fileIcE8sys_openEiSt13_Ios_Openmode>
  807010:	00800084 	movi	r2,2
  807014:	d8800115 	stw	r2,4(sp)
  807018:	d9001317 	ldw	r4,76(sp)
  80701c:	083665c0 	call	83665c <_ZNKSt12__basic_fileIcE7is_openEv>
  807020:	10803fcc 	andi	r2,r2,255
  807024:	1000071e 	bne	r2,zero,807044 <_ZN9__gnu_cxx13stdio_filebufIcSt11char_traitsIcEEC2EiSt13_Ios_Openmodem+0xc8>
  807028:	d809883a 	mov	r4,sp
  80702c:	08433e40 	call	8433e4 <_Unwind_SjLj_Unregister>
  807030:	dfc01717 	ldw	ra,92(sp)
  807034:	df001617 	ldw	fp,88(sp)
  807038:	ddc01517 	ldw	r23,84(sp)
  80703c:	dec01804 	addi	sp,sp,96
  807040:	f800283a 	ret
  807044:	d8800f17 	ldw	r2,60(sp)
  807048:	d8c01117 	ldw	r3,68(sp)
  80704c:	d9000f17 	ldw	r4,60(sp)
  807050:	10c00b15 	stw	r3,44(r2)
  807054:	d8c01217 	ldw	r3,72(sp)
  807058:	10c01315 	stw	r3,76(r2)
  80705c:	008000c4 	movi	r2,3
  807060:	d8800115 	stw	r2,4(sp)
  807064:	083cdec0 	call	83cdec <_ZNSt13basic_filebufIcSt11char_traitsIcEE27_M_allocate_internal_bufferEv>
  807068:	d8c00f17 	ldw	r3,60(sp)
  80706c:	d809883a 	mov	r4,sp
  807070:	18801217 	ldw	r2,72(r3)
  807074:	18000615 	stw	zero,24(r3)
  807078:	18001445 	stb	zero,81(r3)
  80707c:	18800315 	stw	r2,12(r3)
  807080:	18001485 	stb	zero,82(r3)
  807084:	18800115 	stw	r2,4(r3)
  807088:	18800215 	stw	r2,8(r3)
  80708c:	18000515 	stw	zero,20(r3)
  807090:	18000415 	stw	zero,16(r3)
  807094:	08433e40 	call	8433e4 <_Unwind_SjLj_Unregister>
  807098:	dfc01717 	ldw	ra,92(sp)
  80709c:	df001617 	ldw	fp,88(sp)
  8070a0:	ddc01517 	ldw	r23,84(sp)
  8070a4:	dec01804 	addi	sp,sp,96
  8070a8:	f800283a 	ret
  8070ac:	d8800217 	ldw	r2,8(sp)
  8070b0:	d9000117 	ldw	r4,4(sp)
  8070b4:	d8c00317 	ldw	r3,12(sp)
  8070b8:	d8801415 	stw	r2,80(sp)
  8070bc:	00800044 	movi	r2,1
  8070c0:	20800c26 	beq	r4,r2,8070f4 <_ZN9__gnu_cxx13stdio_filebufIcSt11char_traitsIcEEC2EiSt13_Ios_Openmodem+0x178>
  8070c4:	00800084 	movi	r2,2
  8070c8:	20801026 	beq	r4,r2,80710c <_ZN9__gnu_cxx13stdio_filebufIcSt11char_traitsIcEEC2EiSt13_Ios_Openmodem+0x190>
  8070cc:	d8c00d17 	ldw	r3,52(sp)
  8070d0:	008021b4 	movhi	r2,134
  8070d4:	10a67b04 	addi	r2,r2,-26132
  8070d8:	18800015 	stw	r2,0(r3)
  8070dc:	19000704 	addi	r4,r3,28
  8070e0:	0804eac0 	call	804eac <_ZNSt6localeD1Ev>
  8070e4:	00bfffc4 	movi	r2,-1
  8070e8:	d9001417 	ldw	r4,80(sp)
  8070ec:	d8800115 	stw	r2,4(sp)
  8070f0:	08436a00 	call	8436a0 <_Unwind_SjLj_Resume>
  8070f4:	00bfffc4 	movi	r2,-1
  8070f8:	18bffb1e 	bne	r3,r2,8070e8 <_ZN9__gnu_cxx13stdio_filebufIcSt11char_traitsIcEEC2EiSt13_Ios_Openmodem+0x16c>
  8070fc:	d9001417 	ldw	r4,80(sp)
  807100:	00bfffc4 	movi	r2,-1
  807104:	d8800115 	stw	r2,4(sp)
  807108:	08380940 	call	838094 <__cxa_call_unexpected>
  80710c:	d8800f17 	ldw	r2,60(sp)
  807110:	d8800d15 	stw	r2,52(sp)
  807114:	d8c00d17 	ldw	r3,52(sp)
  807118:	008021b4 	movhi	r2,134
  80711c:	10aa2304 	addi	r2,r2,-22388
  807120:	1809883a 	mov	r4,r3
  807124:	18800015 	stw	r2,0(r3)
  807128:	083e3380 	call	83e338 <_ZNSt13basic_filebufIcSt11char_traitsIcEE5closeEv>
  80712c:	00c00044 	movi	r3,1
  807130:	d8c00115 	stw	r3,4(sp)
  807134:	d8801417 	ldw	r2,80(sp)
  807138:	d8c00d17 	ldw	r3,52(sp)
  80713c:	d8800e15 	stw	r2,56(sp)
  807140:	19000904 	addi	r4,r3,36
  807144:	08368200 	call	836820 <_ZNSt12__basic_fileIcED1Ev>
  807148:	d8c00d17 	ldw	r3,52(sp)
  80714c:	008021b4 	movhi	r2,134
  807150:	10a67b04 	addi	r2,r2,-26132
  807154:	18800015 	stw	r2,0(r3)
  807158:	19000704 	addi	r4,r3,28
  80715c:	0804eac0 	call	804eac <_ZNSt6localeD1Ev>
  807160:	d9000e17 	ldw	r4,56(sp)
  807164:	00bfffc4 	movi	r2,-1
  807168:	d8800115 	stw	r2,4(sp)
  80716c:	08436a00 	call	8436a0 <_Unwind_SjLj_Resume>

00807170 <_ZN9__gnu_cxx13stdio_filebufIcSt11char_traitsIcEEC2EP7__sFILESt13_Ios_Openmodem>:
  807170:	deffe804 	addi	sp,sp,-96
  807174:	00802134 	movhi	r2,132
  807178:	10a08504 	addi	r2,r2,-32236
  80717c:	00c02174 	movhi	r3,133
  807180:	18def504 	addi	r3,r3,31700
  807184:	d8800615 	stw	r2,24(sp)
  807188:	d9000f15 	stw	r4,60(sp)
  80718c:	00802034 	movhi	r2,128
  807190:	109ca804 	addi	r2,r2,29344
  807194:	d809883a 	mov	r4,sp
  807198:	d8c00715 	stw	r3,28(sp)
  80719c:	d9401015 	stw	r5,64(sp)
  8071a0:	d9801115 	stw	r6,68(sp)
  8071a4:	dfc01715 	stw	ra,92(sp)
  8071a8:	d8800915 	stw	r2,36(sp)
  8071ac:	d9c01215 	stw	r7,72(sp)
  8071b0:	df001615 	stw	fp,88(sp)
  8071b4:	ddc01515 	stw	r23,84(sp)
  8071b8:	dec00815 	stw	sp,32(sp)
  8071bc:	dec00a15 	stw	sp,40(sp)
  8071c0:	08433d40 	call	8433d4 <_Unwind_SjLj_Register>
  8071c4:	d9000f17 	ldw	r4,60(sp)
  8071c8:	00bfffc4 	movi	r2,-1
  8071cc:	d8800115 	stw	r2,4(sp)
  8071d0:	083d66c0 	call	83d66c <_ZNSt13basic_filebufIcSt11char_traitsIcEEC2Ev>
  8071d4:	d8c00f17 	ldw	r3,60(sp)
  8071d8:	008021b4 	movhi	r2,134
  8071dc:	10a38d04 	addi	r2,r2,-29132
  8071e0:	d9401017 	ldw	r5,64(sp)
  8071e4:	18800015 	stw	r2,0(r3)
  8071e8:	18c00904 	addi	r3,r3,36
  8071ec:	008000c4 	movi	r2,3
  8071f0:	d8800115 	stw	r2,4(sp)
  8071f4:	d8c01315 	stw	r3,76(sp)
  8071f8:	1809883a 	mov	r4,r3
  8071fc:	d9801117 	ldw	r6,68(sp)
  807200:	08366780 	call	836678 <_ZNSt12__basic_fileIcE8sys_openEP7__sFILESt13_Ios_Openmode>
  807204:	00800084 	movi	r2,2
  807208:	d8800115 	stw	r2,4(sp)
  80720c:	d9001317 	ldw	r4,76(sp)
  807210:	083665c0 	call	83665c <_ZNKSt12__basic_fileIcE7is_openEv>
  807214:	10803fcc 	andi	r2,r2,255
  807218:	1000071e 	bne	r2,zero,807238 <_ZN9__gnu_cxx13stdio_filebufIcSt11char_traitsIcEEC2EP7__sFILESt13_Ios_Openmodem+0xc8>
  80721c:	d809883a 	mov	r4,sp
  807220:	08433e40 	call	8433e4 <_Unwind_SjLj_Unregister>
  807224:	dfc01717 	ldw	ra,92(sp)
  807228:	df001617 	ldw	fp,88(sp)
  80722c:	ddc01517 	ldw	r23,84(sp)
  807230:	dec01804 	addi	sp,sp,96
  807234:	f800283a 	ret
  807238:	d8800f17 	ldw	r2,60(sp)
  80723c:	d8c01117 	ldw	r3,68(sp)
  807240:	d9000f17 	ldw	r4,60(sp)
  807244:	10c00b15 	stw	r3,44(r2)
  807248:	d8c01217 	ldw	r3,72(sp)
  80724c:	10c01315 	stw	r3,76(r2)
  807250:	008000c4 	movi	r2,3
  807254:	d8800115 	stw	r2,4(sp)
  807258:	083cdec0 	call	83cdec <_ZNSt13basic_filebufIcSt11char_traitsIcEE27_M_allocate_internal_bufferEv>
  80725c:	d8c00f17 	ldw	r3,60(sp)
  807260:	d809883a 	mov	r4,sp
  807264:	18801217 	ldw	r2,72(r3)
  807268:	18000615 	stw	zero,24(r3)
  80726c:	18001445 	stb	zero,81(r3)
  807270:	18800315 	stw	r2,12(r3)
  807274:	18001485 	stb	zero,82(r3)
  807278:	18800115 	stw	r2,4(r3)
  80727c:	18800215 	stw	r2,8(r3)
  807280:	18000515 	stw	zero,20(r3)
  807284:	18000415 	stw	zero,16(r3)
  807288:	08433e40 	call	8433e4 <_Unwind_SjLj_Unregister>
  80728c:	dfc01717 	ldw	ra,92(sp)
  807290:	df001617 	ldw	fp,88(sp)
  807294:	ddc01517 	ldw	r23,84(sp)
  807298:	dec01804 	addi	sp,sp,96
  80729c:	f800283a 	ret
  8072a0:	d8800217 	ldw	r2,8(sp)
  8072a4:	d9000117 	ldw	r4,4(sp)
  8072a8:	d8c00317 	ldw	r3,12(sp)
  8072ac:	d8801415 	stw	r2,80(sp)
  8072b0:	00800044 	movi	r2,1
  8072b4:	20800c26 	beq	r4,r2,8072e8 <_ZN9__gnu_cxx13stdio_filebufIcSt11char_traitsIcEEC2EP7__sFILESt13_Ios_Openmodem+0x178>
  8072b8:	00800084 	movi	r2,2
  8072bc:	20801026 	beq	r4,r2,807300 <_ZN9__gnu_cxx13stdio_filebufIcSt11char_traitsIcEEC2EP7__sFILESt13_Ios_Openmodem+0x190>
  8072c0:	d8c00d17 	ldw	r3,52(sp)
  8072c4:	008021b4 	movhi	r2,134
  8072c8:	10a67b04 	addi	r2,r2,-26132
  8072cc:	18800015 	stw	r2,0(r3)
  8072d0:	19000704 	addi	r4,r3,28
  8072d4:	0804eac0 	call	804eac <_ZNSt6localeD1Ev>
  8072d8:	00bfffc4 	movi	r2,-1
  8072dc:	d9001417 	ldw	r4,80(sp)
  8072e0:	d8800115 	stw	r2,4(sp)
  8072e4:	08436a00 	call	8436a0 <_Unwind_SjLj_Resume>
  8072e8:	00bfffc4 	movi	r2,-1
  8072ec:	18bffb1e 	bne	r3,r2,8072dc <_ZN9__gnu_cxx13stdio_filebufIcSt11char_traitsIcEEC2EP7__sFILESt13_Ios_Openmodem+0x16c>
  8072f0:	d9001417 	ldw	r4,80(sp)
  8072f4:	00bfffc4 	movi	r2,-1
  8072f8:	d8800115 	stw	r2,4(sp)
  8072fc:	08380940 	call	838094 <__cxa_call_unexpected>
  807300:	d8800f17 	ldw	r2,60(sp)
  807304:	d8800d15 	stw	r2,52(sp)
  807308:	d8c00d17 	ldw	r3,52(sp)
  80730c:	008021b4 	movhi	r2,134
  807310:	10aa2304 	addi	r2,r2,-22388
  807314:	1809883a 	mov	r4,r3
  807318:	18800015 	stw	r2,0(r3)
  80731c:	083e3380 	call	83e338 <_ZNSt13basic_filebufIcSt11char_traitsIcEE5closeEv>
  807320:	00c00044 	movi	r3,1
  807324:	d8c00115 	stw	r3,4(sp)
  807328:	d8801417 	ldw	r2,80(sp)
  80732c:	d8c00d17 	ldw	r3,52(sp)
  807330:	d8800e15 	stw	r2,56(sp)
  807334:	19000904 	addi	r4,r3,36
  807338:	08368200 	call	836820 <_ZNSt12__basic_fileIcED1Ev>
  80733c:	d8c00d17 	ldw	r3,52(sp)
  807340:	008021b4 	movhi	r2,134
  807344:	10a67b04 	addi	r2,r2,-26132
  807348:	18800015 	stw	r2,0(r3)
  80734c:	19000704 	addi	r4,r3,28
  807350:	0804eac0 	call	804eac <_ZNSt6localeD1Ev>
  807354:	d9000e17 	ldw	r4,56(sp)
  807358:	00bfffc4 	movi	r2,-1
  80735c:	d8800115 	stw	r2,4(sp)
  807360:	08436a00 	call	8436a0 <_Unwind_SjLj_Resume>

00807364 <_ZN9__gnu_cxx13stdio_filebufIcSt11char_traitsIcEEC1EiSt13_Ios_Openmodem>:
  807364:	deffe804 	addi	sp,sp,-96
  807368:	00802134 	movhi	r2,132
  80736c:	10a08504 	addi	r2,r2,-32236
  807370:	00c02174 	movhi	r3,133
  807374:	18defa04 	addi	r3,r3,31720
  807378:	d8800615 	stw	r2,24(sp)
  80737c:	d9000f15 	stw	r4,60(sp)
  807380:	00802034 	movhi	r2,128
  807384:	109d2504 	addi	r2,r2,29844
  807388:	d809883a 	mov	r4,sp
  80738c:	d8c00715 	stw	r3,28(sp)
  807390:	d9401015 	stw	r5,64(sp)
  807394:	d9801115 	stw	r6,68(sp)
  807398:	dfc01715 	stw	ra,92(sp)
  80739c:	d8800915 	stw	r2,36(sp)
  8073a0:	d9c01215 	stw	r7,72(sp)
  8073a4:	df001615 	stw	fp,88(sp)
  8073a8:	ddc01515 	stw	r23,84(sp)
  8073ac:	dec00815 	stw	sp,32(sp)
  8073b0:	dec00a15 	stw	sp,40(sp)
  8073b4:	08433d40 	call	8433d4 <_Unwind_SjLj_Register>
  8073b8:	d9000f17 	ldw	r4,60(sp)
  8073bc:	00bfffc4 	movi	r2,-1
  8073c0:	d8800115 	stw	r2,4(sp)
  8073c4:	083d66c0 	call	83d66c <_ZNSt13basic_filebufIcSt11char_traitsIcEEC2Ev>
  8073c8:	d8c00f17 	ldw	r3,60(sp)
  8073cc:	008021b4 	movhi	r2,134
  8073d0:	10a38d04 	addi	r2,r2,-29132
  8073d4:	d9401017 	ldw	r5,64(sp)
  8073d8:	18800015 	stw	r2,0(r3)
  8073dc:	18c00904 	addi	r3,r3,36
  8073e0:	008000c4 	movi	r2,3
  8073e4:	d8800115 	stw	r2,4(sp)
  8073e8:	d8c01315 	stw	r3,76(sp)
  8073ec:	1809883a 	mov	r4,r3
  8073f0:	d9801117 	ldw	r6,68(sp)
  8073f4:	0836b100 	call	836b10 <_ZNSt12__basic_fileIcE8sys_openEiSt13_Ios_Openmode>
  8073f8:	00800084 	movi	r2,2
  8073fc:	d8800115 	stw	r2,4(sp)
  807400:	d9001317 	ldw	r4,76(sp)
  807404:	083665c0 	call	83665c <_ZNKSt12__basic_fileIcE7is_openEv>
  807408:	10803fcc 	andi	r2,r2,255
  80740c:	1000071e 	bne	r2,zero,80742c <_ZN9__gnu_cxx13stdio_filebufIcSt11char_traitsIcEEC1EiSt13_Ios_Openmodem+0xc8>
  807410:	d809883a 	mov	r4,sp
  807414:	08433e40 	call	8433e4 <_Unwind_SjLj_Unregister>
  807418:	dfc01717 	ldw	ra,92(sp)
  80741c:	df001617 	ldw	fp,88(sp)
  807420:	ddc01517 	ldw	r23,84(sp)
  807424:	dec01804 	addi	sp,sp,96
  807428:	f800283a 	ret
  80742c:	d8800f17 	ldw	r2,60(sp)
  807430:	d8c01117 	ldw	r3,68(sp)
  807434:	d9000f17 	ldw	r4,60(sp)
  807438:	10c00b15 	stw	r3,44(r2)
  80743c:	d8c01217 	ldw	r3,72(sp)
  807440:	10c01315 	stw	r3,76(r2)
  807444:	008000c4 	movi	r2,3
  807448:	d8800115 	stw	r2,4(sp)
  80744c:	083cdec0 	call	83cdec <_ZNSt13basic_filebufIcSt11char_traitsIcEE27_M_allocate_internal_bufferEv>
  807450:	d8c00f17 	ldw	r3,60(sp)
  807454:	d809883a 	mov	r4,sp
  807458:	18801217 	ldw	r2,72(r3)
  80745c:	18000615 	stw	zero,24(r3)
  807460:	18001445 	stb	zero,81(r3)
  807464:	18800315 	stw	r2,12(r3)
  807468:	18001485 	stb	zero,82(r3)
  80746c:	18800115 	stw	r2,4(r3)
  807470:	18800215 	stw	r2,8(r3)
  807474:	18000515 	stw	zero,20(r3)
  807478:	18000415 	stw	zero,16(r3)
  80747c:	08433e40 	call	8433e4 <_Unwind_SjLj_Unregister>
  807480:	dfc01717 	ldw	ra,92(sp)
  807484:	df001617 	ldw	fp,88(sp)
  807488:	ddc01517 	ldw	r23,84(sp)
  80748c:	dec01804 	addi	sp,sp,96
  807490:	f800283a 	ret
  807494:	d8800217 	ldw	r2,8(sp)
  807498:	d9000117 	ldw	r4,4(sp)
  80749c:	d8c00317 	ldw	r3,12(sp)
  8074a0:	d8801415 	stw	r2,80(sp)
  8074a4:	00800044 	movi	r2,1
  8074a8:	20800c26 	beq	r4,r2,8074dc <_ZN9__gnu_cxx13stdio_filebufIcSt11char_traitsIcEEC1EiSt13_Ios_Openmodem+0x178>
  8074ac:	00800084 	movi	r2,2
  8074b0:	20801026 	beq	r4,r2,8074f4 <_ZN9__gnu_cxx13stdio_filebufIcSt11char_traitsIcEEC1EiSt13_Ios_Openmodem+0x190>
  8074b4:	d8c00d17 	ldw	r3,52(sp)
  8074b8:	008021b4 	movhi	r2,134
  8074bc:	10a67b04 	addi	r2,r2,-26132
  8074c0:	18800015 	stw	r2,0(r3)
  8074c4:	19000704 	addi	r4,r3,28
  8074c8:	0804eac0 	call	804eac <_ZNSt6localeD1Ev>
  8074cc:	00bfffc4 	movi	r2,-1
  8074d0:	d9001417 	ldw	r4,80(sp)
  8074d4:	d8800115 	stw	r2,4(sp)
  8074d8:	08436a00 	call	8436a0 <_Unwind_SjLj_Resume>
  8074dc:	00bfffc4 	movi	r2,-1
  8074e0:	18bffb1e 	bne	r3,r2,8074d0 <_ZN9__gnu_cxx13stdio_filebufIcSt11char_traitsIcEEC1EiSt13_Ios_Openmodem+0x16c>
  8074e4:	d9001417 	ldw	r4,80(sp)
  8074e8:	00bfffc4 	movi	r2,-1
  8074ec:	d8800115 	stw	r2,4(sp)
  8074f0:	08380940 	call	838094 <__cxa_call_unexpected>
  8074f4:	d8800f17 	ldw	r2,60(sp)
  8074f8:	d8800d15 	stw	r2,52(sp)
  8074fc:	d8c00d17 	ldw	r3,52(sp)
  807500:	008021b4 	movhi	r2,134
  807504:	10aa2304 	addi	r2,r2,-22388
  807508:	1809883a 	mov	r4,r3
  80750c:	18800015 	stw	r2,0(r3)
  807510:	083e3380 	call	83e338 <_ZNSt13basic_filebufIcSt11char_traitsIcEE5closeEv>
  807514:	00c00044 	movi	r3,1
  807518:	d8c00115 	stw	r3,4(sp)
  80751c:	d8801417 	ldw	r2,80(sp)
  807520:	d8c00d17 	ldw	r3,52(sp)
  807524:	d8800e15 	stw	r2,56(sp)
  807528:	19000904 	addi	r4,r3,36
  80752c:	08368200 	call	836820 <_ZNSt12__basic_fileIcED1Ev>
  807530:	d8c00d17 	ldw	r3,52(sp)
  807534:	008021b4 	movhi	r2,134
  807538:	10a67b04 	addi	r2,r2,-26132
  80753c:	18800015 	stw	r2,0(r3)
  807540:	19000704 	addi	r4,r3,28
  807544:	0804eac0 	call	804eac <_ZNSt6localeD1Ev>
  807548:	d9000e17 	ldw	r4,56(sp)
  80754c:	00bfffc4 	movi	r2,-1
  807550:	d8800115 	stw	r2,4(sp)
  807554:	08436a00 	call	8436a0 <_Unwind_SjLj_Resume>

00807558 <_ZN9__gnu_cxx13stdio_filebufIcSt11char_traitsIcEED0Ev>:
  807558:	deffed04 	addi	sp,sp,-76
  80755c:	00802134 	movhi	r2,132
  807560:	10a08504 	addi	r2,r2,-32236
  807564:	00c02174 	movhi	r3,133
  807568:	18defe44 	addi	r3,r3,31737
  80756c:	d8800615 	stw	r2,24(sp)
  807570:	d9000e15 	stw	r4,56(sp)
  807574:	00802034 	movhi	r2,128
  807578:	109d8304 	addi	r2,r2,30220
  80757c:	d809883a 	mov	r4,sp
  807580:	dfc01215 	stw	ra,72(sp)
  807584:	d8c00715 	stw	r3,28(sp)
  807588:	d8800915 	stw	r2,36(sp)
  80758c:	df001115 	stw	fp,68(sp)
  807590:	ddc01015 	stw	r23,64(sp)
  807594:	dec00815 	stw	sp,32(sp)
  807598:	dec00a15 	stw	sp,40(sp)
  80759c:	08433d40 	call	8433d4 <_Unwind_SjLj_Register>
  8075a0:	d8c00e17 	ldw	r3,56(sp)
  8075a4:	008021b4 	movhi	r2,134
  8075a8:	10aa2304 	addi	r2,r2,-22388
  8075ac:	1809883a 	mov	r4,r3
  8075b0:	18800015 	stw	r2,0(r3)
  8075b4:	083e3380 	call	83e338 <_ZNSt13basic_filebufIcSt11char_traitsIcEE5closeEv>
  8075b8:	d8800e17 	ldw	r2,56(sp)
  8075bc:	00c00044 	movi	r3,1
  8075c0:	d8c00115 	stw	r3,4(sp)
  8075c4:	d8800d15 	stw	r2,52(sp)
  8075c8:	11000904 	addi	r4,r2,36
  8075cc:	08368200 	call	836820 <_ZNSt12__basic_fileIcED1Ev>
  8075d0:	d8c00d17 	ldw	r3,52(sp)
  8075d4:	008021b4 	movhi	r2,134
  8075d8:	10a67b04 	addi	r2,r2,-26132
  8075dc:	19000704 	addi	r4,r3,28
  8075e0:	18800015 	stw	r2,0(r3)
  8075e4:	0804eac0 	call	804eac <_ZNSt6localeD1Ev>
  8075e8:	d9000e17 	ldw	r4,56(sp)
  8075ec:	0837aa00 	call	837aa0 <_ZdlPv>
  8075f0:	d809883a 	mov	r4,sp
  8075f4:	08433e40 	call	8433e4 <_Unwind_SjLj_Unregister>
  8075f8:	dfc01217 	ldw	ra,72(sp)
  8075fc:	df001117 	ldw	fp,68(sp)
  807600:	ddc01017 	ldw	r23,64(sp)
  807604:	dec01304 	addi	sp,sp,76
  807608:	f800283a 	ret
  80760c:	d8c00217 	ldw	r3,8(sp)
  807610:	008021b4 	movhi	r2,134
  807614:	10a67b04 	addi	r2,r2,-26132
  807618:	d8c00f15 	stw	r3,60(sp)
  80761c:	d8c00d17 	ldw	r3,52(sp)
  807620:	18800015 	stw	r2,0(r3)
  807624:	19000704 	addi	r4,r3,28
  807628:	0804eac0 	call	804eac <_ZNSt6localeD1Ev>
  80762c:	d9000f17 	ldw	r4,60(sp)
  807630:	00bfffc4 	movi	r2,-1
  807634:	d8800115 	stw	r2,4(sp)
  807638:	08436a00 	call	8436a0 <_Unwind_SjLj_Resume>

0080763c <_ZN9__gnu_cxx13stdio_filebufIcSt11char_traitsIcEED1Ev>:
  80763c:	deffed04 	addi	sp,sp,-76
  807640:	00802134 	movhi	r2,132
  807644:	10a08504 	addi	r2,r2,-32236
  807648:	00c02174 	movhi	r3,133
  80764c:	18deffc4 	addi	r3,r3,31743
  807650:	d8800615 	stw	r2,24(sp)
  807654:	d9000e15 	stw	r4,56(sp)
  807658:	00802034 	movhi	r2,128
  80765c:	109dba04 	addi	r2,r2,30440
  807660:	d809883a 	mov	r4,sp
  807664:	dfc01215 	stw	ra,72(sp)
  807668:	d8c00715 	stw	r3,28(sp)
  80766c:	d8800915 	stw	r2,36(sp)
  807670:	df001115 	stw	fp,68(sp)
  807674:	ddc01015 	stw	r23,64(sp)
  807678:	dec00815 	stw	sp,32(sp)
  80767c:	dec00a15 	stw	sp,40(sp)
  807680:	08433d40 	call	8433d4 <_Unwind_SjLj_Register>
  807684:	d8c00e17 	ldw	r3,56(sp)
  807688:	008021b4 	movhi	r2,134
  80768c:	10aa2304 	addi	r2,r2,-22388
  807690:	1809883a 	mov	r4,r3
  807694:	18800015 	stw	r2,0(r3)
  807698:	d8c00d15 	stw	r3,52(sp)
  80769c:	083e3380 	call	83e338 <_ZNSt13basic_filebufIcSt11char_traitsIcEE5closeEv>
  8076a0:	d8800d17 	ldw	r2,52(sp)
  8076a4:	00c00044 	movi	r3,1
  8076a8:	d8c00115 	stw	r3,4(sp)
  8076ac:	11000904 	addi	r4,r2,36
  8076b0:	08368200 	call	836820 <_ZNSt12__basic_fileIcED1Ev>
  8076b4:	d8c00d17 	ldw	r3,52(sp)
  8076b8:	008021b4 	movhi	r2,134
  8076bc:	10a67b04 	addi	r2,r2,-26132
  8076c0:	19000704 	addi	r4,r3,28
  8076c4:	18800015 	stw	r2,0(r3)
  8076c8:	0804eac0 	call	804eac <_ZNSt6localeD1Ev>
  8076cc:	d809883a 	mov	r4,sp
  8076d0:	08433e40 	call	8433e4 <_Unwind_SjLj_Unregister>
  8076d4:	dfc01217 	ldw	ra,72(sp)
  8076d8:	df001117 	ldw	fp,68(sp)
  8076dc:	ddc01017 	ldw	r23,64(sp)
  8076e0:	dec01304 	addi	sp,sp,76
  8076e4:	f800283a 	ret
  8076e8:	d8c00217 	ldw	r3,8(sp)
  8076ec:	008021b4 	movhi	r2,134
  8076f0:	10a67b04 	addi	r2,r2,-26132
  8076f4:	d8c00f15 	stw	r3,60(sp)
  8076f8:	d8c00d17 	ldw	r3,52(sp)
  8076fc:	18800015 	stw	r2,0(r3)
  807700:	19000704 	addi	r4,r3,28
  807704:	0804eac0 	call	804eac <_ZNSt6localeD1Ev>
  807708:	d9000f17 	ldw	r4,60(sp)
  80770c:	00bfffc4 	movi	r2,-1
  807710:	d8800115 	stw	r2,4(sp)
  807714:	08436a00 	call	8436a0 <_Unwind_SjLj_Resume>

00807718 <_ZN9__gnu_cxx13stdio_filebufIcSt11char_traitsIcEED2Ev>:
  807718:	deffed04 	addi	sp,sp,-76
  80771c:	00802134 	movhi	r2,132
  807720:	10a08504 	addi	r2,r2,-32236
  807724:	00c02174 	movhi	r3,133
  807728:	18df0144 	addi	r3,r3,31749
  80772c:	d8800615 	stw	r2,24(sp)
  807730:	d9000e15 	stw	r4,56(sp)
  807734:	00802034 	movhi	r2,128
  807738:	109df104 	addi	r2,r2,30660
  80773c:	d809883a 	mov	r4,sp
  807740:	dfc01215 	stw	ra,72(sp)
  807744:	d8c00715 	stw	r3,28(sp)
  807748:	d8800915 	stw	r2,36(sp)
  80774c:	df001115 	stw	fp,68(sp)
  807750:	ddc01015 	stw	r23,64(sp)
  807754:	dec00815 	stw	sp,32(sp)
  807758:	dec00a15 	stw	sp,40(sp)
  80775c:	08433d40 	call	8433d4 <_Unwind_SjLj_Register>
  807760:	d8c00e17 	ldw	r3,56(sp)
  807764:	008021b4 	movhi	r2,134
  807768:	10aa2304 	addi	r2,r2,-22388
  80776c:	1809883a 	mov	r4,r3
  807770:	18800015 	stw	r2,0(r3)
  807774:	d8c00d15 	stw	r3,52(sp)
  807778:	083e3380 	call	83e338 <_ZNSt13basic_filebufIcSt11char_traitsIcEE5closeEv>
  80777c:	d8800d17 	ldw	r2,52(sp)
  807780:	00c00044 	movi	r3,1
  807784:	d8c00115 	stw	r3,4(sp)
  807788:	11000904 	addi	r4,r2,36
  80778c:	08368200 	call	836820 <_ZNSt12__basic_fileIcED1Ev>
  807790:	d8c00d17 	ldw	r3,52(sp)
  807794:	008021b4 	movhi	r2,134
  807798:	10a67b04 	addi	r2,r2,-26132
  80779c:	19000704 	addi	r4,r3,28
  8077a0:	18800015 	stw	r2,0(r3)
  8077a4:	0804eac0 	call	804eac <_ZNSt6localeD1Ev>
  8077a8:	d809883a 	mov	r4,sp
  8077ac:	08433e40 	call	8433e4 <_Unwind_SjLj_Unregister>
  8077b0:	dfc01217 	ldw	ra,72(sp)
  8077b4:	df001117 	ldw	fp,68(sp)
  8077b8:	ddc01017 	ldw	r23,64(sp)
  8077bc:	dec01304 	addi	sp,sp,76
  8077c0:	f800283a 	ret
  8077c4:	d8c00217 	ldw	r3,8(sp)
  8077c8:	008021b4 	movhi	r2,134
  8077cc:	10a67b04 	addi	r2,r2,-26132
  8077d0:	d8c00f15 	stw	r3,60(sp)
  8077d4:	d8c00d17 	ldw	r3,52(sp)
  8077d8:	18800015 	stw	r2,0(r3)
  8077dc:	19000704 	addi	r4,r3,28
  8077e0:	0804eac0 	call	804eac <_ZNSt6localeD1Ev>
  8077e4:	d9000f17 	ldw	r4,60(sp)
  8077e8:	00bfffc4 	movi	r2,-1
  8077ec:	d8800115 	stw	r2,4(sp)
  8077f0:	08436a00 	call	8436a0 <_Unwind_SjLj_Resume>

008077f4 <_ZNKSt9basic_iosIcSt11char_traitsIcEE7rdstateEv>:
  8077f4:	20800517 	ldw	r2,20(r4)
  8077f8:	f800283a 	ret

008077fc <_ZNKSt9basic_iosIcSt11char_traitsIcEE4failEv>:
  8077fc:	20800517 	ldw	r2,20(r4)
  807800:	1080014c 	andi	r2,r2,5
  807804:	1004c03a 	cmpne	r2,r2,zero
  807808:	f800283a 	ret

0080780c <_ZNKSt9basic_iosIcSt11char_traitsIcEE10exceptionsEv>:
  80780c:	20800417 	ldw	r2,16(r4)
  807810:	f800283a 	ret

00807814 <_ZNKSt9basic_iosIcSt11char_traitsIcEE3tieEv>:
  807814:	20801c17 	ldw	r2,112(r4)
  807818:	f800283a 	ret

0080781c <_ZNSt9basic_iosIcSt11char_traitsIcEE3tieEPSo>:
  80781c:	20801c17 	ldw	r2,112(r4)
  807820:	21401c15 	stw	r5,112(r4)
  807824:	f800283a 	ret

00807828 <_ZNKSt9basic_iosIcSt11char_traitsIcEE5rdbufEv>:
  807828:	20801e17 	ldw	r2,120(r4)
  80782c:	f800283a 	ret

00807830 <_ZNSt9basic_iosIcSt11char_traitsIcEE15_M_cache_localeERKSt6locale>:
  807830:	defffd04 	addi	sp,sp,-12
  807834:	dc400115 	stw	r17,4(sp)
  807838:	2023883a 	mov	r17,r4
  80783c:	2809883a 	mov	r4,r5
  807840:	dc000015 	stw	r16,0(sp)
  807844:	dfc00215 	stw	ra,8(sp)
  807848:	2821883a 	mov	r16,r5
  80784c:	081081c0 	call	81081c <_ZSt9has_facetISt5ctypeIcEEbRKSt6locale>
  807850:	10803fcc 	andi	r2,r2,255
  807854:	8009883a 	mov	r4,r16
  807858:	10001526 	beq	r2,zero,8078b0 <_ZNSt9basic_iosIcSt11char_traitsIcEE15_M_cache_localeERKSt6locale+0x80>
  80785c:	0839c040 	call	839c04 <_ZSt9use_facetISt5ctypeIcEERKT_RKSt6locale>
  807860:	88801f15 	stw	r2,124(r17)
  807864:	8009883a 	mov	r4,r16
  807868:	081044c0 	call	81044c <_ZSt9has_facetISt7num_putIcSt19ostreambuf_iteratorIcSt11char_traitsIcEEEEbRKSt6locale>
  80786c:	10803fcc 	andi	r2,r2,255
  807870:	8009883a 	mov	r4,r16
  807874:	10001226 	beq	r2,zero,8078c0 <_ZNSt9basic_iosIcSt11char_traitsIcEE15_M_cache_localeERKSt6locale+0x90>
  807878:	0810c280 	call	810c28 <_ZSt9use_facetISt7num_putIcSt19ostreambuf_iteratorIcSt11char_traitsIcEEEERKT_RKSt6locale>
  80787c:	88802015 	stw	r2,128(r17)
  807880:	8009883a 	mov	r4,r16
  807884:	08103580 	call	810358 <_ZSt9has_facetISt7num_getIcSt19istreambuf_iteratorIcSt11char_traitsIcEEEEbRKSt6locale>
  807888:	10803fcc 	andi	r2,r2,255
  80788c:	10000a26 	beq	r2,zero,8078b8 <_ZNSt9basic_iosIcSt11char_traitsIcEE15_M_cache_localeERKSt6locale+0x88>
  807890:	8009883a 	mov	r4,r16
  807894:	0810bd00 	call	810bd0 <_ZSt9use_facetISt7num_getIcSt19istreambuf_iteratorIcSt11char_traitsIcEEEERKT_RKSt6locale>
  807898:	88802115 	stw	r2,132(r17)
  80789c:	dfc00217 	ldw	ra,8(sp)
  8078a0:	dc400117 	ldw	r17,4(sp)
  8078a4:	dc000017 	ldw	r16,0(sp)
  8078a8:	dec00304 	addi	sp,sp,12
  8078ac:	f800283a 	ret
  8078b0:	88001f15 	stw	zero,124(r17)
  8078b4:	003feb06 	br	807864 <_ZNSt9basic_iosIcSt11char_traitsIcEE15_M_cache_localeERKSt6locale+0x34>
  8078b8:	88002115 	stw	zero,132(r17)
  8078bc:	003ff706 	br	80789c <_ZNSt9basic_iosIcSt11char_traitsIcEE15_M_cache_localeERKSt6locale+0x6c>
  8078c0:	88002015 	stw	zero,128(r17)
  8078c4:	003fee06 	br	807880 <_ZNSt9basic_iosIcSt11char_traitsIcEE15_M_cache_localeERKSt6locale+0x50>

008078c8 <_ZNSt9basic_iosIcSt11char_traitsIcEE4initEPSt15basic_streambufIcS1_E>:
  8078c8:	defffd04 	addi	sp,sp,-12
  8078cc:	dfc00215 	stw	ra,8(sp)
  8078d0:	dc800115 	stw	r18,4(sp)
  8078d4:	dc000015 	stw	r16,0(sp)
  8078d8:	2825883a 	mov	r18,r5
  8078dc:	2021883a 	mov	r16,r4
  8078e0:	083c0180 	call	83c018 <_ZNSt8ios_base7_M_initEv>
  8078e4:	81401b04 	addi	r5,r16,108
  8078e8:	8009883a 	mov	r4,r16
  8078ec:	08078300 	call	807830 <_ZNSt9basic_iosIcSt11char_traitsIcEE15_M_cache_localeERKSt6locale>
  8078f0:	9005003a 	cmpeq	r2,r18,zero
  8078f4:	80800515 	stw	r2,20(r16)
  8078f8:	80001d05 	stb	zero,116(r16)
  8078fc:	80001d45 	stb	zero,117(r16)
  807900:	80001c15 	stw	zero,112(r16)
  807904:	80000415 	stw	zero,16(r16)
  807908:	84801e15 	stw	r18,120(r16)
  80790c:	dfc00217 	ldw	ra,8(sp)
  807910:	dc800117 	ldw	r18,4(sp)
  807914:	dc000017 	ldw	r16,0(sp)
  807918:	dec00304 	addi	sp,sp,12
  80791c:	f800283a 	ret

00807920 <_ZNSt9basic_iosIcSt11char_traitsIcEEC1Ev>:
  807920:	defffe04 	addi	sp,sp,-8
  807924:	dc000015 	stw	r16,0(sp)
  807928:	dfc00115 	stw	ra,4(sp)
  80792c:	2021883a 	mov	r16,r4
  807930:	083b7700 	call	83b770 <_ZNSt8ios_baseC2Ev>
  807934:	008021b4 	movhi	r2,134
  807938:	10a3b204 	addi	r2,r2,-28984
  80793c:	80800015 	stw	r2,0(r16)
  807940:	80002115 	stw	zero,132(r16)
  807944:	80001c15 	stw	zero,112(r16)
  807948:	80001d05 	stb	zero,116(r16)
  80794c:	80001d45 	stb	zero,117(r16)
  807950:	80001e15 	stw	zero,120(r16)
  807954:	80001f15 	stw	zero,124(r16)
  807958:	80002015 	stw	zero,128(r16)
  80795c:	dfc00117 	ldw	ra,4(sp)
  807960:	dc000017 	ldw	r16,0(sp)
  807964:	dec00204 	addi	sp,sp,8
  807968:	f800283a 	ret

0080796c <_ZNSt9basic_iosIcSt11char_traitsIcEEC2Ev>:
  80796c:	defffe04 	addi	sp,sp,-8
  807970:	dc000015 	stw	r16,0(sp)
  807974:	dfc00115 	stw	ra,4(sp)
  807978:	2021883a 	mov	r16,r4
  80797c:	083b7700 	call	83b770 <_ZNSt8ios_baseC2Ev>
  807980:	008021b4 	movhi	r2,134
  807984:	10a3b204 	addi	r2,r2,-28984
  807988:	80800015 	stw	r2,0(r16)
  80798c:	80002115 	stw	zero,132(r16)
  807990:	80001c15 	stw	zero,112(r16)
  807994:	80001d05 	stb	zero,116(r16)
  807998:	80001d45 	stb	zero,117(r16)
  80799c:	80001e15 	stw	zero,120(r16)
  8079a0:	80001f15 	stw	zero,124(r16)
  8079a4:	80002015 	stw	zero,128(r16)
  8079a8:	dfc00117 	ldw	ra,4(sp)
  8079ac:	dc000017 	ldw	r16,0(sp)
  8079b0:	dec00204 	addi	sp,sp,8
  8079b4:	f800283a 	ret

008079b8 <_ZNKSt9basic_iosIcSt11char_traitsIcEE6narrowEcc>:
  8079b8:	21001f17 	ldw	r4,124(r4)
  8079bc:	defffd04 	addi	sp,sp,-12
  8079c0:	dfc00215 	stw	ra,8(sp)
  8079c4:	dc400115 	stw	r17,4(sp)
  8079c8:	dc000015 	stw	r16,0(sp)
  8079cc:	20001f26 	beq	r4,zero,807a4c <_ZNKSt9basic_iosIcSt11char_traitsIcEE6narrowEcc+0x94>
  8079d0:	28803fcc 	andi	r2,r5,255
  8079d4:	1105883a 	add	r2,r2,r4
  8079d8:	14404704 	addi	r17,r2,284
  8079dc:	88800047 	ldb	r2,1(r17)
  8079e0:	10000526 	beq	r2,zero,8079f8 <_ZNKSt9basic_iosIcSt11char_traitsIcEE6narrowEcc+0x40>
  8079e4:	dfc00217 	ldw	ra,8(sp)
  8079e8:	dc400117 	ldw	r17,4(sp)
  8079ec:	dc000017 	ldw	r16,0(sp)
  8079f0:	dec00304 	addi	sp,sp,12
  8079f4:	f800283a 	ret
  8079f8:	20800017 	ldw	r2,0(r4)
  8079fc:	34003fcc 	andi	r16,r6,255
  807a00:	8400201c 	xori	r16,r16,128
  807a04:	10c00817 	ldw	r3,32(r2)
  807a08:	29403fcc 	andi	r5,r5,255
  807a0c:	843fe004 	addi	r16,r16,-128
  807a10:	2940201c 	xori	r5,r5,128
  807a14:	297fe004 	addi	r5,r5,-128
  807a18:	800d883a 	mov	r6,r16
  807a1c:	183ee83a 	callr	r3
  807a20:	1007883a 	mov	r3,r2
  807a24:	18803fcc 	andi	r2,r3,255
  807a28:	1080201c 	xori	r2,r2,128
  807a2c:	10bfe004 	addi	r2,r2,-128
  807a30:	80bfec26 	beq	r16,r2,8079e4 <_ZNKSt9basic_iosIcSt11char_traitsIcEE6narrowEcc+0x2c>
  807a34:	88c00045 	stb	r3,1(r17)
  807a38:	dfc00217 	ldw	ra,8(sp)
  807a3c:	dc400117 	ldw	r17,4(sp)
  807a40:	dc000017 	ldw	r16,0(sp)
  807a44:	dec00304 	addi	sp,sp,12
  807a48:	f800283a 	ret
  807a4c:	083a0bc0 	call	83a0bc <_ZSt16__throw_bad_castv>

00807a50 <_ZNSt9basic_iosIcSt11char_traitsIcEED0Ev>:
  807a50:	defffe04 	addi	sp,sp,-8
  807a54:	008021b4 	movhi	r2,134
  807a58:	10a3b204 	addi	r2,r2,-28984
  807a5c:	dc400015 	stw	r17,0(sp)
  807a60:	20800015 	stw	r2,0(r4)
  807a64:	2023883a 	mov	r17,r4
  807a68:	dfc00115 	stw	ra,4(sp)
  807a6c:	083b6900 	call	83b690 <_ZNSt8ios_baseD2Ev>
  807a70:	8809883a 	mov	r4,r17
  807a74:	dfc00117 	ldw	ra,4(sp)
  807a78:	dc400017 	ldw	r17,0(sp)
  807a7c:	dec00204 	addi	sp,sp,8
  807a80:	0837aa01 	jmpi	837aa0 <_ZdlPv>

00807a84 <_ZNSt9basic_iosIcSt11char_traitsIcEED1Ev>:
  807a84:	008021b4 	movhi	r2,134
  807a88:	10a3b204 	addi	r2,r2,-28984
  807a8c:	20800015 	stw	r2,0(r4)
  807a90:	083b6901 	jmpi	83b690 <_ZNSt8ios_baseD2Ev>

00807a94 <_ZNSt9basic_iosIcSt11char_traitsIcEED2Ev>:
  807a94:	008021b4 	movhi	r2,134
  807a98:	10a3b204 	addi	r2,r2,-28984
  807a9c:	20800015 	stw	r2,0(r4)
  807aa0:	083b6901 	jmpi	83b690 <_ZNSt8ios_baseD2Ev>

00807aa4 <_ZNSt9basic_iosIcSt11char_traitsIcEEC1EPSt15basic_streambufIcS1_E>:
  807aa4:	deffed04 	addi	sp,sp,-76
  807aa8:	00802134 	movhi	r2,132
  807aac:	10a08504 	addi	r2,r2,-32236
  807ab0:	00c02174 	movhi	r3,133
  807ab4:	18df0304 	addi	r3,r3,31756
  807ab8:	d8800615 	stw	r2,24(sp)
  807abc:	d9000d15 	stw	r4,52(sp)
  807ac0:	00802034 	movhi	r2,128
  807ac4:	109ed704 	addi	r2,r2,31580
  807ac8:	d809883a 	mov	r4,sp
  807acc:	d8c00715 	stw	r3,28(sp)
  807ad0:	d9400e15 	stw	r5,56(sp)
  807ad4:	dfc01215 	stw	ra,72(sp)
  807ad8:	d8800915 	stw	r2,36(sp)
  807adc:	df001115 	stw	fp,68(sp)
  807ae0:	ddc01015 	stw	r23,64(sp)
  807ae4:	dec00815 	stw	sp,32(sp)
  807ae8:	dec00a15 	stw	sp,40(sp)
  807aec:	08433d40 	call	8433d4 <_Unwind_SjLj_Register>
  807af0:	d9000d17 	ldw	r4,52(sp)
  807af4:	00bfffc4 	movi	r2,-1
  807af8:	d8800115 	stw	r2,4(sp)
  807afc:	083b7700 	call	83b770 <_ZNSt8ios_baseC2Ev>
  807b00:	d8c00d17 	ldw	r3,52(sp)
  807b04:	008021b4 	movhi	r2,134
  807b08:	10a3b204 	addi	r2,r2,-28984
  807b0c:	18001d05 	stb	zero,116(r3)
  807b10:	18800015 	stw	r2,0(r3)
  807b14:	18001c15 	stw	zero,112(r3)
  807b18:	18001d45 	stb	zero,117(r3)
  807b1c:	18001e15 	stw	zero,120(r3)
  807b20:	18001f15 	stw	zero,124(r3)
  807b24:	18002015 	stw	zero,128(r3)
  807b28:	18002115 	stw	zero,132(r3)
  807b2c:	00800044 	movi	r2,1
  807b30:	d8800115 	stw	r2,4(sp)
  807b34:	d9400e17 	ldw	r5,56(sp)
  807b38:	d9000d17 	ldw	r4,52(sp)
  807b3c:	08078c80 	call	8078c8 <_ZNSt9basic_iosIcSt11char_traitsIcEE4initEPSt15basic_streambufIcS1_E>
  807b40:	d809883a 	mov	r4,sp
  807b44:	08433e40 	call	8433e4 <_Unwind_SjLj_Unregister>
  807b48:	dfc01217 	ldw	ra,72(sp)
  807b4c:	df001117 	ldw	fp,68(sp)
  807b50:	ddc01017 	ldw	r23,64(sp)
  807b54:	dec01304 	addi	sp,sp,76
  807b58:	f800283a 	ret
  807b5c:	d8800217 	ldw	r2,8(sp)
  807b60:	d9000d17 	ldw	r4,52(sp)
  807b64:	d8000115 	stw	zero,4(sp)
  807b68:	d8800f15 	stw	r2,60(sp)
  807b6c:	083b6900 	call	83b690 <_ZNSt8ios_baseD2Ev>
  807b70:	d9000f17 	ldw	r4,60(sp)
  807b74:	00bfffc4 	movi	r2,-1
  807b78:	d8800115 	stw	r2,4(sp)
  807b7c:	08436a00 	call	8436a0 <_Unwind_SjLj_Resume>

00807b80 <_ZNSt9basic_iosIcSt11char_traitsIcEEC2EPSt15basic_streambufIcS1_E>:
  807b80:	deffed04 	addi	sp,sp,-76
  807b84:	00802134 	movhi	r2,132
  807b88:	10a08504 	addi	r2,r2,-32236
  807b8c:	00c02174 	movhi	r3,133
  807b90:	18df0484 	addi	r3,r3,31762
  807b94:	d8800615 	stw	r2,24(sp)
  807b98:	d9000d15 	stw	r4,52(sp)
  807b9c:	00802034 	movhi	r2,128
  807ba0:	109f0e04 	addi	r2,r2,31800
  807ba4:	d809883a 	mov	r4,sp
  807ba8:	d8c00715 	stw	r3,28(sp)
  807bac:	d9400e15 	stw	r5,56(sp)
  807bb0:	dfc01215 	stw	ra,72(sp)
  807bb4:	d8800915 	stw	r2,36(sp)
  807bb8:	df001115 	stw	fp,68(sp)
  807bbc:	ddc01015 	stw	r23,64(sp)
  807bc0:	dec00815 	stw	sp,32(sp)
  807bc4:	dec00a15 	stw	sp,40(sp)
  807bc8:	08433d40 	call	8433d4 <_Unwind_SjLj_Register>
  807bcc:	d9000d17 	ldw	r4,52(sp)
  807bd0:	00bfffc4 	movi	r2,-1
  807bd4:	d8800115 	stw	r2,4(sp)
  807bd8:	083b7700 	call	83b770 <_ZNSt8ios_baseC2Ev>
  807bdc:	d8c00d17 	ldw	r3,52(sp)
  807be0:	008021b4 	movhi	r2,134
  807be4:	10a3b204 	addi	r2,r2,-28984
  807be8:	18001d05 	stb	zero,116(r3)
  807bec:	18800015 	stw	r2,0(r3)
  807bf0:	18001c15 	stw	zero,112(r3)
  807bf4:	18001d45 	stb	zero,117(r3)
  807bf8:	18001e15 	stw	zero,120(r3)
  807bfc:	18001f15 	stw	zero,124(r3)
  807c00:	18002015 	stw	zero,128(r3)
  807c04:	18002115 	stw	zero,132(r3)
  807c08:	00800044 	movi	r2,1
  807c0c:	d8800115 	stw	r2,4(sp)
  807c10:	d9400e17 	ldw	r5,56(sp)
  807c14:	d9000d17 	ldw	r4,52(sp)
  807c18:	08078c80 	call	8078c8 <_ZNSt9basic_iosIcSt11char_traitsIcEE4initEPSt15basic_streambufIcS1_E>
  807c1c:	d809883a 	mov	r4,sp
  807c20:	08433e40 	call	8433e4 <_Unwind_SjLj_Unregister>
  807c24:	dfc01217 	ldw	ra,72(sp)
  807c28:	df001117 	ldw	fp,68(sp)
  807c2c:	ddc01017 	ldw	r23,64(sp)
  807c30:	dec01304 	addi	sp,sp,76
  807c34:	f800283a 	ret
  807c38:	d8800217 	ldw	r2,8(sp)
  807c3c:	d9000d17 	ldw	r4,52(sp)
  807c40:	d8000115 	stw	zero,4(sp)
  807c44:	d8800f15 	stw	r2,60(sp)
  807c48:	083b6900 	call	83b690 <_ZNSt8ios_baseD2Ev>
  807c4c:	d9000f17 	ldw	r4,60(sp)
  807c50:	00bfffc4 	movi	r2,-1
  807c54:	d8800115 	stw	r2,4(sp)
  807c58:	08436a00 	call	8436a0 <_Unwind_SjLj_Resume>

00807c5c <_ZNKSt9basic_iosIcSt11char_traitsIcEE4goodEv>:
  807c5c:	20800517 	ldw	r2,20(r4)
  807c60:	1005003a 	cmpeq	r2,r2,zero
  807c64:	f800283a 	ret

00807c68 <_ZNKSt9basic_iosIcSt11char_traitsIcEE3badEv>:
  807c68:	20800517 	ldw	r2,20(r4)
  807c6c:	1080004c 	andi	r2,r2,1
  807c70:	f800283a 	ret

00807c74 <_ZNKSt9basic_iosIcSt11char_traitsIcEE3eofEv>:
  807c74:	20800517 	ldw	r2,20(r4)
  807c78:	1004d07a 	srli	r2,r2,1
  807c7c:	1080004c 	andi	r2,r2,1
  807c80:	f800283a 	ret

00807c84 <_ZNSt9basic_iosIcSt11char_traitsIcEE11_M_setstateESt12_Ios_Iostate>:
  807c84:	20800517 	ldw	r2,20(r4)
  807c88:	20c00417 	ldw	r3,16(r4)
  807c8c:	deffff04 	addi	sp,sp,-4
  807c90:	1144b03a 	or	r2,r2,r5
  807c94:	28c6703a 	and	r3,r5,r3
  807c98:	dfc00015 	stw	ra,0(sp)
  807c9c:	20800515 	stw	r2,20(r4)
  807ca0:	1800031e 	bne	r3,zero,807cb0 <_ZNSt9basic_iosIcSt11char_traitsIcEE11_M_setstateESt12_Ios_Iostate+0x2c>
  807ca4:	dfc00017 	ldw	ra,0(sp)
  807ca8:	dec00104 	addi	sp,sp,4
  807cac:	f800283a 	ret
  807cb0:	0836e840 	call	836e84 <__cxa_rethrow>

00807cb4 <_ZNSt9basic_iosIcSt11char_traitsIcEE5clearESt12_Ios_Iostate>:
  807cb4:	20801e17 	ldw	r2,120(r4)
  807cb8:	deffff04 	addi	sp,sp,-4
  807cbc:	dfc00015 	stw	ra,0(sp)
  807cc0:	10000826 	beq	r2,zero,807ce4 <_ZNSt9basic_iosIcSt11char_traitsIcEE5clearESt12_Ios_Iostate+0x30>
  807cc4:	21400515 	stw	r5,20(r4)
  807cc8:	20c00517 	ldw	r3,20(r4)
  807ccc:	20800417 	ldw	r2,16(r4)
  807cd0:	10c4703a 	and	r2,r2,r3
  807cd4:	1000061e 	bne	r2,zero,807cf0 <_ZNSt9basic_iosIcSt11char_traitsIcEE5clearESt12_Ios_Iostate+0x3c>
  807cd8:	dfc00017 	ldw	ra,0(sp)
  807cdc:	dec00104 	addi	sp,sp,4
  807ce0:	f800283a 	ret
  807ce4:	28800054 	ori	r2,r5,1
  807ce8:	20800515 	stw	r2,20(r4)
  807cec:	003ff606 	br	807cc8 <_ZNSt9basic_iosIcSt11char_traitsIcEE5clearESt12_Ios_Iostate+0x14>
  807cf0:	010021b4 	movhi	r4,134
  807cf4:	2123ab04 	addi	r4,r4,-29012
  807cf8:	083a1580 	call	83a158 <_ZSt19__throw_ios_failurePKc>

00807cfc <_ZNSt9basic_iosIcSt11char_traitsIcEE5rdbufEPSt15basic_streambufIcS1_E>:
  807cfc:	defffe04 	addi	sp,sp,-8
  807d00:	dc400015 	stw	r17,0(sp)
  807d04:	24401e17 	ldw	r17,120(r4)
  807d08:	21401e15 	stw	r5,120(r4)
  807d0c:	000b883a 	mov	r5,zero
  807d10:	dfc00115 	stw	ra,4(sp)
  807d14:	0807cb40 	call	807cb4 <_ZNSt9basic_iosIcSt11char_traitsIcEE5clearESt12_Ios_Iostate>
  807d18:	8805883a 	mov	r2,r17
  807d1c:	dfc00117 	ldw	ra,4(sp)
  807d20:	dc400017 	ldw	r17,0(sp)
  807d24:	dec00204 	addi	sp,sp,8
  807d28:	f800283a 	ret

00807d2c <_ZNSt9basic_iosIcSt11char_traitsIcEE10exceptionsESt12_Ios_Iostate>:
  807d2c:	21400415 	stw	r5,16(r4)
  807d30:	21400517 	ldw	r5,20(r4)
  807d34:	0807cb41 	jmpi	807cb4 <_ZNSt9basic_iosIcSt11char_traitsIcEE5clearESt12_Ios_Iostate>

00807d38 <_ZNSt9basic_iosIcSt11char_traitsIcEE8setstateESt12_Ios_Iostate>:
  807d38:	20800517 	ldw	r2,20(r4)
  807d3c:	288ab03a 	or	r5,r5,r2
  807d40:	0807cb41 	jmpi	807cb4 <_ZNSt9basic_iosIcSt11char_traitsIcEE5clearESt12_Ios_Iostate>

00807d44 <_ZNKSt9basic_iosIcSt11char_traitsIcEEntEv>:
  807d44:	20800517 	ldw	r2,20(r4)
  807d48:	1080014c 	andi	r2,r2,5
  807d4c:	1004c03a 	cmpne	r2,r2,zero
  807d50:	f800283a 	ret

00807d54 <_ZNKSt9basic_iosIcSt11char_traitsIcEEcvPvEv>:
  807d54:	20800517 	ldw	r2,20(r4)
  807d58:	0007883a 	mov	r3,zero
  807d5c:	1080014c 	andi	r2,r2,5
  807d60:	1000011e 	bne	r2,zero,807d68 <_ZNKSt9basic_iosIcSt11char_traitsIcEEcvPvEv+0x14>
  807d64:	2007883a 	mov	r3,r4
  807d68:	1805883a 	mov	r2,r3
  807d6c:	f800283a 	ret

00807d70 <_ZNSt9basic_iosIcSt11char_traitsIcEE5imbueERKSt6locale>:
  807d70:	deffe704 	addi	sp,sp,-100
  807d74:	00802134 	movhi	r2,132
  807d78:	10a08504 	addi	r2,r2,-32236
  807d7c:	00c02174 	movhi	r3,133
  807d80:	18df0604 	addi	r3,r3,31768
  807d84:	d8800815 	stw	r2,32(sp)
  807d88:	d9001115 	stw	r4,68(sp)
  807d8c:	00802034 	movhi	r2,128
  807d90:	109f9f04 	addi	r2,r2,32380
  807d94:	d9000204 	addi	r4,sp,8
  807d98:	d8c00915 	stw	r3,36(sp)
  807d9c:	d9801315 	stw	r6,76(sp)
  807da0:	dfc01815 	stw	ra,96(sp)
  807da4:	d8800b15 	stw	r2,44(sp)
  807da8:	d9401215 	stw	r5,72(sp)
  807dac:	df001715 	stw	fp,92(sp)
  807db0:	ddc01615 	stw	r23,88(sp)
  807db4:	dec00a15 	stw	sp,40(sp)
  807db8:	dec00c15 	stw	sp,48(sp)
  807dbc:	08433d40 	call	8433d4 <_Unwind_SjLj_Register>
  807dc0:	d8801217 	ldw	r2,72(sp)
  807dc4:	d9001117 	ldw	r4,68(sp)
  807dc8:	11401b04 	addi	r5,r2,108
  807dcc:	0803cb80 	call	803cb8 <_ZNSt6localeC1ERKS_>
  807dd0:	d8c01117 	ldw	r3,68(sp)
  807dd4:	00800084 	movi	r2,2
  807dd8:	d8800315 	stw	r2,12(sp)
  807ddc:	d8c00f15 	stw	r3,60(sp)
  807de0:	d9000104 	addi	r4,sp,4
  807de4:	d9401217 	ldw	r5,72(sp)
  807de8:	d9801317 	ldw	r6,76(sp)
  807dec:	083bfb00 	call	83bfb0 <_ZNSt8ios_base5imbueERKSt6locale>
  807df0:	d9000104 	addi	r4,sp,4
  807df4:	0804eac0 	call	804eac <_ZNSt6localeD1Ev>
  807df8:	d9001217 	ldw	r4,72(sp)
  807dfc:	d9401317 	ldw	r5,76(sp)
  807e00:	08078300 	call	807830 <_ZNSt9basic_iosIcSt11char_traitsIcEE15_M_cache_localeERKSt6locale>
  807e04:	d8801217 	ldw	r2,72(sp)
  807e08:	10801e17 	ldw	r2,120(r2)
  807e0c:	d8801015 	stw	r2,64(sp)
  807e10:	10001226 	beq	r2,zero,807e5c <_ZNSt9basic_iosIcSt11char_traitsIcEE5imbueERKSt6locale+0xec>
  807e14:	10c00704 	addi	r3,r2,28
  807e18:	180b883a 	mov	r5,r3
  807e1c:	d809883a 	mov	r4,sp
  807e20:	d8c01415 	stw	r3,80(sp)
  807e24:	0803cb80 	call	803cb8 <_ZNSt6localeC1ERKS_>
  807e28:	d8c01017 	ldw	r3,64(sp)
  807e2c:	d9401317 	ldw	r5,76(sp)
  807e30:	18800017 	ldw	r2,0(r3)
  807e34:	1809883a 	mov	r4,r3
  807e38:	00c00044 	movi	r3,1
  807e3c:	11800217 	ldw	r6,8(r2)
  807e40:	d8c00315 	stw	r3,12(sp)
  807e44:	303ee83a 	callr	r6
  807e48:	d9001417 	ldw	r4,80(sp)
  807e4c:	d9401317 	ldw	r5,76(sp)
  807e50:	08050740 	call	805074 <_ZNSt6localeaSERKS_>
  807e54:	d809883a 	mov	r4,sp
  807e58:	0804eac0 	call	804eac <_ZNSt6localeD1Ev>
  807e5c:	d9000204 	addi	r4,sp,8
  807e60:	08433e40 	call	8433e4 <_Unwind_SjLj_Unregister>
  807e64:	d8801117 	ldw	r2,68(sp)
  807e68:	dfc01817 	ldw	ra,96(sp)
  807e6c:	df001717 	ldw	fp,92(sp)
  807e70:	ddc01617 	ldw	r23,88(sp)
  807e74:	dec01904 	addi	sp,sp,100
  807e78:	f800283a 	ret
  807e7c:	d8800417 	ldw	r2,16(sp)
  807e80:	d8c00317 	ldw	r3,12(sp)
  807e84:	d8801515 	stw	r2,84(sp)
  807e88:	00800044 	movi	r2,1
  807e8c:	18800226 	beq	r3,r2,807e98 <_ZNSt9basic_iosIcSt11char_traitsIcEE5imbueERKSt6locale+0x128>
  807e90:	d809883a 	mov	r4,sp
  807e94:	0804eac0 	call	804eac <_ZNSt6localeD1Ev>
  807e98:	d9000f17 	ldw	r4,60(sp)
  807e9c:	0804eac0 	call	804eac <_ZNSt6localeD1Ev>
  807ea0:	d9001517 	ldw	r4,84(sp)
  807ea4:	00bfffc4 	movi	r2,-1
  807ea8:	d8800315 	stw	r2,12(sp)
  807eac:	08436a00 	call	8436a0 <_Unwind_SjLj_Resume>

00807eb0 <_ZNKSt9basic_iosIcSt11char_traitsIcEE5widenEc>:
  807eb0:	deffbc04 	addi	sp,sp,-272
  807eb4:	dc004015 	stw	r16,256(sp)
  807eb8:	24001f17 	ldw	r16,124(r4)
  807ebc:	dfc04315 	stw	ra,268(sp)
  807ec0:	dc804215 	stw	r18,264(sp)
  807ec4:	dc404115 	stw	r17,260(sp)
  807ec8:	80003326 	beq	r16,zero,807f98 <_ZNKSt9basic_iosIcSt11char_traitsIcEE5widenEc+0xe8>
  807ecc:	80800707 	ldb	r2,28(r16)
  807ed0:	2825883a 	mov	r18,r5
  807ed4:	1000271e 	bne	r2,zero,807f74 <_ZNKSt9basic_iosIcSt11char_traitsIcEE5widenEc+0xc4>
  807ed8:	0007883a 	mov	r3,zero
  807edc:	01004004 	movi	r4,256
  807ee0:	d8c5883a 	add	r2,sp,r3
  807ee4:	10c00005 	stb	r3,0(r2)
  807ee8:	18c00044 	addi	r3,r3,1
  807eec:	193ffc1e 	bne	r3,r4,807ee0 <_ZNKSt9basic_iosIcSt11char_traitsIcEE5widenEc+0x30>
  807ef0:	80800017 	ldw	r2,0(r16)
  807ef4:	84400744 	addi	r17,r16,29
  807ef8:	8009883a 	mov	r4,r16
  807efc:	12000717 	ldw	r8,28(r2)
  807f00:	d80b883a 	mov	r5,sp
  807f04:	d9804004 	addi	r6,sp,256
  807f08:	880f883a 	mov	r7,r17
  807f0c:	403ee83a 	callr	r8
  807f10:	00c00044 	movi	r3,1
  807f14:	80c00705 	stb	r3,28(r16)
  807f18:	880b883a 	mov	r5,r17
  807f1c:	d809883a 	mov	r4,sp
  807f20:	01804004 	movi	r6,256
  807f24:	084607c0 	call	84607c <memcmp>
  807f28:	10000226 	beq	r2,zero,807f34 <_ZNKSt9basic_iosIcSt11char_traitsIcEE5widenEc+0x84>
  807f2c:	00800084 	movi	r2,2
  807f30:	80800705 	stb	r2,28(r16)
  807f34:	80800017 	ldw	r2,0(r16)
  807f38:	91403fcc 	andi	r5,r18,255
  807f3c:	2940201c 	xori	r5,r5,128
  807f40:	10c00617 	ldw	r3,24(r2)
  807f44:	8009883a 	mov	r4,r16
  807f48:	297fe004 	addi	r5,r5,-128
  807f4c:	183ee83a 	callr	r3
  807f50:	10803fcc 	andi	r2,r2,255
  807f54:	1080201c 	xori	r2,r2,128
  807f58:	10bfe004 	addi	r2,r2,-128
  807f5c:	dfc04317 	ldw	ra,268(sp)
  807f60:	dc804217 	ldw	r18,264(sp)
  807f64:	dc404117 	ldw	r17,260(sp)
  807f68:	dc004017 	ldw	r16,256(sp)
  807f6c:	dec04404 	addi	sp,sp,272
  807f70:	f800283a 	ret
  807f74:	28803fcc 	andi	r2,r5,255
  807f78:	1405883a 	add	r2,r2,r16
  807f7c:	10800747 	ldb	r2,29(r2)
  807f80:	dfc04317 	ldw	ra,268(sp)
  807f84:	dc804217 	ldw	r18,264(sp)
  807f88:	dc404117 	ldw	r17,260(sp)
  807f8c:	dc004017 	ldw	r16,256(sp)
  807f90:	dec04404 	addi	sp,sp,272
  807f94:	f800283a 	ret
  807f98:	083a0bc0 	call	83a0bc <_ZSt16__throw_bad_castv>

00807f9c <_ZNKSt9basic_iosIcSt11char_traitsIcEE4fillEv>:
  807f9c:	20801d43 	ldbu	r2,117(r4)
  807fa0:	defffe04 	addi	sp,sp,-8
  807fa4:	dc000015 	stw	r16,0(sp)
  807fa8:	dfc00115 	stw	ra,4(sp)
  807fac:	2021883a 	mov	r16,r4
  807fb0:	01400804 	movi	r5,32
  807fb4:	1000041e 	bne	r2,zero,807fc8 <_ZNKSt9basic_iosIcSt11char_traitsIcEE4fillEv+0x2c>
  807fb8:	0807eb00 	call	807eb0 <_ZNKSt9basic_iosIcSt11char_traitsIcEE5widenEc>
  807fbc:	00c00044 	movi	r3,1
  807fc0:	80c01d45 	stb	r3,117(r16)
  807fc4:	80801d05 	stb	r2,116(r16)
  807fc8:	80801d07 	ldb	r2,116(r16)
  807fcc:	dfc00117 	ldw	ra,4(sp)
  807fd0:	dc000017 	ldw	r16,0(sp)
  807fd4:	dec00204 	addi	sp,sp,8
  807fd8:	f800283a 	ret

00807fdc <_ZNSt9basic_iosIcSt11char_traitsIcEE4fillEc>:
  807fdc:	20801d43 	ldbu	r2,117(r4)
  807fe0:	defffd04 	addi	sp,sp,-12
  807fe4:	dc400115 	stw	r17,4(sp)
  807fe8:	dc000015 	stw	r16,0(sp)
  807fec:	2823883a 	mov	r17,r5
  807ff0:	dfc00215 	stw	ra,8(sp)
  807ff4:	2021883a 	mov	r16,r4
  807ff8:	01400804 	movi	r5,32
  807ffc:	1000041e 	bne	r2,zero,808010 <_ZNSt9basic_iosIcSt11char_traitsIcEE4fillEc+0x34>
  808000:	0807eb00 	call	807eb0 <_ZNKSt9basic_iosIcSt11char_traitsIcEE5widenEc>
  808004:	00c00044 	movi	r3,1
  808008:	80c01d45 	stb	r3,117(r16)
  80800c:	80801d05 	stb	r2,116(r16)
  808010:	80801d03 	ldbu	r2,116(r16)
  808014:	84401d05 	stb	r17,116(r16)
  808018:	10803fcc 	andi	r2,r2,255
  80801c:	1080201c 	xori	r2,r2,128
  808020:	10bfe004 	addi	r2,r2,-128
  808024:	dfc00217 	ldw	ra,8(sp)
  808028:	dc400117 	ldw	r17,4(sp)
  80802c:	dc000017 	ldw	r16,0(sp)
  808030:	dec00304 	addi	sp,sp,12
  808034:	f800283a 	ret

00808038 <_ZNSt9basic_iosIcSt11char_traitsIcEE7copyfmtERKS2_>:
  808038:	defff904 	addi	sp,sp,-28
  80803c:	dc800315 	stw	r18,12(sp)
  808040:	dc000115 	stw	r16,4(sp)
  808044:	dfc00615 	stw	ra,24(sp)
  808048:	dd000515 	stw	r20,20(sp)
  80804c:	dcc00415 	stw	r19,16(sp)
  808050:	dc400215 	stw	r17,8(sp)
  808054:	2021883a 	mov	r16,r4
  808058:	2825883a 	mov	r18,r5
  80805c:	21404826 	beq	r4,r5,808180 <_ZNSt9basic_iosIcSt11char_traitsIcEE7copyfmtERKS2_+0x148>
  808060:	29001917 	ldw	r4,100(r5)
  808064:	00800204 	movi	r2,8
  808068:	11004e16 	blt	r2,r4,8081a4 <_ZNSt9basic_iosIcSt11char_traitsIcEE7copyfmtERKS2_+0x16c>
  80806c:	85000904 	addi	r20,r16,36
  808070:	a027883a 	mov	r19,r20
  808074:	94400617 	ldw	r17,24(r18)
  808078:	88000326 	beq	r17,zero,808088 <_ZNSt9basic_iosIcSt11char_traitsIcEE7copyfmtERKS2_+0x50>
  80807c:	89000304 	addi	r4,r17,12
  808080:	01400044 	movi	r5,1
  808084:	08355880 	call	835588 <_ZN9__gnu_cxx12__atomic_addEPVii>
  808088:	8009883a 	mov	r4,r16
  80808c:	000b883a 	mov	r5,zero
  808090:	083b2b00 	call	83b2b0 <_ZNSt8ios_base17_M_call_callbacksENS_5eventE>
  808094:	81001a17 	ldw	r4,104(r16)
  808098:	24c00326 	beq	r4,r19,8080a8 <_ZNSt9basic_iosIcSt11char_traitsIcEE7copyfmtERKS2_+0x70>
  80809c:	20000126 	beq	r4,zero,8080a4 <_ZNSt9basic_iosIcSt11char_traitsIcEE7copyfmtERKS2_+0x6c>
  8080a0:	0837aac0 	call	837aac <_ZdaPv>
  8080a4:	80001a15 	stw	zero,104(r16)
  8080a8:	8009883a 	mov	r4,r16
  8080ac:	083b24c0 	call	83b24c <_ZNSt8ios_base20_M_dispose_callbacksEv>
  8080b0:	92001917 	ldw	r8,100(r18)
  8080b4:	84400615 	stw	r17,24(r16)
  8080b8:	02000d0e 	bge	zero,r8,8080f0 <_ZNSt9basic_iosIcSt11char_traitsIcEE7copyfmtERKS2_+0xb8>
  8080bc:	92401a17 	ldw	r9,104(r18)
  8080c0:	a00b883a 	mov	r5,r20
  8080c4:	000f883a 	mov	r7,zero
  8080c8:	000d883a 	mov	r6,zero
  8080cc:	3245883a 	add	r2,r6,r9
  8080d0:	10c00117 	ldw	r3,4(r2)
  8080d4:	11000017 	ldw	r4,0(r2)
  8080d8:	39c00044 	addi	r7,r7,1
  8080dc:	28c00115 	stw	r3,4(r5)
  8080e0:	29000015 	stw	r4,0(r5)
  8080e4:	31800204 	addi	r6,r6,8
  8080e8:	29400204 	addi	r5,r5,8
  8080ec:	3a3ff716 	blt	r7,r8,8080cc <_ZNSt9basic_iosIcSt11char_traitsIcEE7copyfmtERKS2_+0x94>
  8080f0:	90800317 	ldw	r2,12(r18)
  8080f4:	90c00217 	ldw	r3,8(r18)
  8080f8:	91000117 	ldw	r4,4(r18)
  8080fc:	91401c17 	ldw	r5,112(r18)
  808100:	91801d43 	ldbu	r6,117(r18)
  808104:	85001a15 	stw	r20,104(r16)
  808108:	82001915 	stw	r8,100(r16)
  80810c:	80800315 	stw	r2,12(r16)
  808110:	80c00215 	stw	r3,8(r16)
  808114:	81000115 	stw	r4,4(r16)
  808118:	81401c15 	stw	r5,112(r16)
  80811c:	30003626 	beq	r6,zero,8081f8 <_ZNSt9basic_iosIcSt11char_traitsIcEE7copyfmtERKS2_+0x1c0>
  808120:	80801d43 	ldbu	r2,117(r16)
  808124:	94401d03 	ldbu	r17,116(r18)
